
emwaver-firmware.elf:     file format elf32-littlearm

Sections:
Idx Name          Size      VMA       LMA       File off  Algn
  0 .isr_vector   000000c0  08000000  08000000  00001000  2**0
                  CONTENTS, ALLOC, LOAD, READONLY, DATA
  1 .text         00005f10  080000c0  080000c0  000010c0  2**3
                  CONTENTS, ALLOC, LOAD, READONLY, CODE
  2 .rodata       0000008c  08005fd0  08005fd0  00006fd0  2**1
                  CONTENTS, ALLOC, LOAD, READONLY, DATA
  3 .ARM.extab    00000000  0800605c  0800605c  000081d8  2**0
                  CONTENTS
  4 .ARM          00000000  0800605c  0800605c  000081d8  2**0
                  CONTENTS
  5 .preinit_array 00000000  0800605c  0800605c  000081d8  2**0
                  CONTENTS, ALLOC, LOAD, DATA
  6 .init_array   00000004  0800605c  0800605c  0000705c  2**2
                  CONTENTS, ALLOC, LOAD, DATA
  7 .fini_array   00000004  08006060  08006060  00007060  2**2
                  CONTENTS, ALLOC, LOAD, DATA
  8 .data         000001d8  20000000  08006064  00008000  2**2
                  CONTENTS, ALLOC, LOAD, CODE
  9 .bss          00000d70  200001d8  0800623c  000081d8  2**3
                  ALLOC
 10 ._user_heap_stack 000003e0  20000f48  0800623c  00008f48  2**0
                  ALLOC
 11 .ARM.attributes 00000028  00000000  00000000  000081d8  2**0
                  CONTENTS, READONLY
 12 .comment      00000043  00000000  00000000  00008200  2**0
                  CONTENTS, READONLY
 13 .debug_frame  00000094  00000000  00000000  00008244  2**2
                  CONTENTS, READONLY, DEBUGGING, OCTETS

Disassembly of section .text:

080000c0 <__do_global_dtors_aux>:
 80000c0:	b510      	push	{r4, lr}
 80000c2:	4c06      	ldr	r4, [pc, #24]	@ (80000dc <__do_global_dtors_aux+0x1c>)
 80000c4:	7823      	ldrb	r3, [r4, #0]
 80000c6:	2b00      	cmp	r3, #0
 80000c8:	d107      	bne.n	80000da <__do_global_dtors_aux+0x1a>
 80000ca:	4b05      	ldr	r3, [pc, #20]	@ (80000e0 <__do_global_dtors_aux+0x20>)
 80000cc:	2b00      	cmp	r3, #0
 80000ce:	d002      	beq.n	80000d6 <__do_global_dtors_aux+0x16>
 80000d0:	4804      	ldr	r0, [pc, #16]	@ (80000e4 <__do_global_dtors_aux+0x24>)
 80000d2:	e000      	b.n	80000d6 <__do_global_dtors_aux+0x16>
 80000d4:	bf00      	nop
 80000d6:	2301      	movs	r3, #1
 80000d8:	7023      	strb	r3, [r4, #0]
 80000da:	bd10      	pop	{r4, pc}
 80000dc:	200001d8 	.word	0x200001d8
 80000e0:	00000000 	.word	0x00000000
 80000e4:	08005fa4 	.word	0x08005fa4

080000e8 <frame_dummy>:
 80000e8:	4b04      	ldr	r3, [pc, #16]	@ (80000fc <frame_dummy+0x14>)
 80000ea:	b510      	push	{r4, lr}
 80000ec:	2b00      	cmp	r3, #0
 80000ee:	d003      	beq.n	80000f8 <frame_dummy+0x10>
 80000f0:	4903      	ldr	r1, [pc, #12]	@ (8000100 <frame_dummy+0x18>)
 80000f2:	4804      	ldr	r0, [pc, #16]	@ (8000104 <frame_dummy+0x1c>)
 80000f4:	e000      	b.n	80000f8 <frame_dummy+0x10>
 80000f6:	bf00      	nop
 80000f8:	bd10      	pop	{r4, pc}
 80000fa:	46c0      	nop			@ (mov r8, r8)
 80000fc:	00000000 	.word	0x00000000
 8000100:	200001dc 	.word	0x200001dc
 8000104:	08005fa4 	.word	0x08005fa4

08000108 <strlen>:
 8000108:	2300      	movs	r3, #0
 800010a:	5cc2      	ldrb	r2, [r0, r3]
 800010c:	3301      	adds	r3, #1
 800010e:	2a00      	cmp	r2, #0
 8000110:	d1fb      	bne.n	800010a <strlen+0x2>
 8000112:	1e58      	subs	r0, r3, #1
 8000114:	4770      	bx	lr
	...

08000118 <__gnu_thumb1_case_sqi>:
 8000118:	b402      	push	{r1}
 800011a:	4671      	mov	r1, lr
 800011c:	0849      	lsrs	r1, r1, #1
 800011e:	0049      	lsls	r1, r1, #1
 8000120:	5609      	ldrsb	r1, [r1, r0]
 8000122:	0049      	lsls	r1, r1, #1
 8000124:	448e      	add	lr, r1
 8000126:	bc02      	pop	{r1}
 8000128:	4770      	bx	lr
 800012a:	46c0      	nop			@ (mov r8, r8)

0800012c <__gnu_thumb1_case_uqi>:
 800012c:	b402      	push	{r1}
 800012e:	4671      	mov	r1, lr
 8000130:	0849      	lsrs	r1, r1, #1
 8000132:	0049      	lsls	r1, r1, #1
 8000134:	5c09      	ldrb	r1, [r1, r0]
 8000136:	0049      	lsls	r1, r1, #1
 8000138:	448e      	add	lr, r1
 800013a:	bc02      	pop	{r1}
 800013c:	4770      	bx	lr
 800013e:	46c0      	nop			@ (mov r8, r8)

08000140 <__gnu_thumb1_case_shi>:
 8000140:	b403      	push	{r0, r1}
 8000142:	4671      	mov	r1, lr
 8000144:	0849      	lsrs	r1, r1, #1
 8000146:	0040      	lsls	r0, r0, #1
 8000148:	0049      	lsls	r1, r1, #1
 800014a:	5e09      	ldrsh	r1, [r1, r0]
 800014c:	0049      	lsls	r1, r1, #1
 800014e:	448e      	add	lr, r1
 8000150:	bc03      	pop	{r0, r1}
 8000152:	4770      	bx	lr

08000154 <__udivsi3>:
 8000154:	2200      	movs	r2, #0
 8000156:	0843      	lsrs	r3, r0, #1
 8000158:	428b      	cmp	r3, r1
 800015a:	d374      	bcc.n	8000246 <__udivsi3+0xf2>
 800015c:	0903      	lsrs	r3, r0, #4
 800015e:	428b      	cmp	r3, r1
 8000160:	d35f      	bcc.n	8000222 <__udivsi3+0xce>
 8000162:	0a03      	lsrs	r3, r0, #8
 8000164:	428b      	cmp	r3, r1
 8000166:	d344      	bcc.n	80001f2 <__udivsi3+0x9e>
 8000168:	0b03      	lsrs	r3, r0, #12
 800016a:	428b      	cmp	r3, r1
 800016c:	d328      	bcc.n	80001c0 <__udivsi3+0x6c>
 800016e:	0c03      	lsrs	r3, r0, #16
 8000170:	428b      	cmp	r3, r1
 8000172:	d30d      	bcc.n	8000190 <__udivsi3+0x3c>
 8000174:	22ff      	movs	r2, #255	@ 0xff
 8000176:	0209      	lsls	r1, r1, #8
 8000178:	ba12      	rev	r2, r2
 800017a:	0c03      	lsrs	r3, r0, #16
 800017c:	428b      	cmp	r3, r1
 800017e:	d302      	bcc.n	8000186 <__udivsi3+0x32>
 8000180:	1212      	asrs	r2, r2, #8
 8000182:	0209      	lsls	r1, r1, #8
 8000184:	d065      	beq.n	8000252 <__udivsi3+0xfe>
 8000186:	0b03      	lsrs	r3, r0, #12
 8000188:	428b      	cmp	r3, r1
 800018a:	d319      	bcc.n	80001c0 <__udivsi3+0x6c>
 800018c:	e000      	b.n	8000190 <__udivsi3+0x3c>
 800018e:	0a09      	lsrs	r1, r1, #8
 8000190:	0bc3      	lsrs	r3, r0, #15
 8000192:	428b      	cmp	r3, r1
 8000194:	d301      	bcc.n	800019a <__udivsi3+0x46>
 8000196:	03cb      	lsls	r3, r1, #15
 8000198:	1ac0      	subs	r0, r0, r3
 800019a:	4152      	adcs	r2, r2
 800019c:	0b83      	lsrs	r3, r0, #14
 800019e:	428b      	cmp	r3, r1
 80001a0:	d301      	bcc.n	80001a6 <__udivsi3+0x52>
 80001a2:	038b      	lsls	r3, r1, #14
 80001a4:	1ac0      	subs	r0, r0, r3
 80001a6:	4152      	adcs	r2, r2
 80001a8:	0b43      	lsrs	r3, r0, #13
 80001aa:	428b      	cmp	r3, r1
 80001ac:	d301      	bcc.n	80001b2 <__udivsi3+0x5e>
 80001ae:	034b      	lsls	r3, r1, #13
 80001b0:	1ac0      	subs	r0, r0, r3
 80001b2:	4152      	adcs	r2, r2
 80001b4:	0b03      	lsrs	r3, r0, #12
 80001b6:	428b      	cmp	r3, r1
 80001b8:	d301      	bcc.n	80001be <__udivsi3+0x6a>
 80001ba:	030b      	lsls	r3, r1, #12
 80001bc:	1ac0      	subs	r0, r0, r3
 80001be:	4152      	adcs	r2, r2
 80001c0:	0ac3      	lsrs	r3, r0, #11
 80001c2:	428b      	cmp	r3, r1
 80001c4:	d301      	bcc.n	80001ca <__udivsi3+0x76>
 80001c6:	02cb      	lsls	r3, r1, #11
 80001c8:	1ac0      	subs	r0, r0, r3
 80001ca:	4152      	adcs	r2, r2
 80001cc:	0a83      	lsrs	r3, r0, #10
 80001ce:	428b      	cmp	r3, r1
 80001d0:	d301      	bcc.n	80001d6 <__udivsi3+0x82>
 80001d2:	028b      	lsls	r3, r1, #10
 80001d4:	1ac0      	subs	r0, r0, r3
 80001d6:	4152      	adcs	r2, r2
 80001d8:	0a43      	lsrs	r3, r0, #9
 80001da:	428b      	cmp	r3, r1
 80001dc:	d301      	bcc.n	80001e2 <__udivsi3+0x8e>
 80001de:	024b      	lsls	r3, r1, #9
 80001e0:	1ac0      	subs	r0, r0, r3
 80001e2:	4152      	adcs	r2, r2
 80001e4:	0a03      	lsrs	r3, r0, #8
 80001e6:	428b      	cmp	r3, r1
 80001e8:	d301      	bcc.n	80001ee <__udivsi3+0x9a>
 80001ea:	020b      	lsls	r3, r1, #8
 80001ec:	1ac0      	subs	r0, r0, r3
 80001ee:	4152      	adcs	r2, r2
 80001f0:	d2cd      	bcs.n	800018e <__udivsi3+0x3a>
 80001f2:	09c3      	lsrs	r3, r0, #7
 80001f4:	428b      	cmp	r3, r1
 80001f6:	d301      	bcc.n	80001fc <__udivsi3+0xa8>
 80001f8:	01cb      	lsls	r3, r1, #7
 80001fa:	1ac0      	subs	r0, r0, r3
 80001fc:	4152      	adcs	r2, r2
 80001fe:	0983      	lsrs	r3, r0, #6
 8000200:	428b      	cmp	r3, r1
 8000202:	d301      	bcc.n	8000208 <__udivsi3+0xb4>
 8000204:	018b      	lsls	r3, r1, #6
 8000206:	1ac0      	subs	r0, r0, r3
 8000208:	4152      	adcs	r2, r2
 800020a:	0943      	lsrs	r3, r0, #5
 800020c:	428b      	cmp	r3, r1
 800020e:	d301      	bcc.n	8000214 <__udivsi3+0xc0>
 8000210:	014b      	lsls	r3, r1, #5
 8000212:	1ac0      	subs	r0, r0, r3
 8000214:	4152      	adcs	r2, r2
 8000216:	0903      	lsrs	r3, r0, #4
 8000218:	428b      	cmp	r3, r1
 800021a:	d301      	bcc.n	8000220 <__udivsi3+0xcc>
 800021c:	010b      	lsls	r3, r1, #4
 800021e:	1ac0      	subs	r0, r0, r3
 8000220:	4152      	adcs	r2, r2
 8000222:	08c3      	lsrs	r3, r0, #3
 8000224:	428b      	cmp	r3, r1
 8000226:	d301      	bcc.n	800022c <__udivsi3+0xd8>
 8000228:	00cb      	lsls	r3, r1, #3
 800022a:	1ac0      	subs	r0, r0, r3
 800022c:	4152      	adcs	r2, r2
 800022e:	0883      	lsrs	r3, r0, #2
 8000230:	428b      	cmp	r3, r1
 8000232:	d301      	bcc.n	8000238 <__udivsi3+0xe4>
 8000234:	008b      	lsls	r3, r1, #2
 8000236:	1ac0      	subs	r0, r0, r3
 8000238:	4152      	adcs	r2, r2
 800023a:	0843      	lsrs	r3, r0, #1
 800023c:	428b      	cmp	r3, r1
 800023e:	d301      	bcc.n	8000244 <__udivsi3+0xf0>
 8000240:	004b      	lsls	r3, r1, #1
 8000242:	1ac0      	subs	r0, r0, r3
 8000244:	4152      	adcs	r2, r2
 8000246:	1a41      	subs	r1, r0, r1
 8000248:	d200      	bcs.n	800024c <__udivsi3+0xf8>
 800024a:	4601      	mov	r1, r0
 800024c:	4152      	adcs	r2, r2
 800024e:	4610      	mov	r0, r2
 8000250:	4770      	bx	lr
 8000252:	e7ff      	b.n	8000254 <__udivsi3+0x100>
 8000254:	b501      	push	{r0, lr}
 8000256:	2000      	movs	r0, #0
 8000258:	f000 f806 	bl	8000268 <__aeabi_idiv0>
 800025c:	bd02      	pop	{r1, pc}
 800025e:	46c0      	nop			@ (mov r8, r8)

08000260 <__aeabi_uidivmod>:
 8000260:	2900      	cmp	r1, #0
 8000262:	d0f7      	beq.n	8000254 <__udivsi3+0x100>
 8000264:	e776      	b.n	8000154 <__udivsi3>
 8000266:	4770      	bx	lr

08000268 <__aeabi_idiv0>:
 8000268:	4770      	bx	lr
 800026a:	46c0      	nop			@ (mov r8, r8)

0800026c <__aeabi_llsr>:
 800026c:	40d0      	lsrs	r0, r2
 800026e:	000b      	movs	r3, r1
 8000270:	40d1      	lsrs	r1, r2
 8000272:	469c      	mov	ip, r3
 8000274:	3a20      	subs	r2, #32
 8000276:	40d3      	lsrs	r3, r2
 8000278:	4318      	orrs	r0, r3
 800027a:	4252      	negs	r2, r2
 800027c:	4663      	mov	r3, ip
 800027e:	4093      	lsls	r3, r2
 8000280:	4318      	orrs	r0, r3
 8000282:	4770      	bx	lr

08000284 <midi_packet_consume>:
 8000284:	2100      	movs	r1, #0
 8000286:	b510      	push	{r4, lr}
 8000288:	4b03      	ldr	r3, [pc, #12]	@ (8000298 <midi_packet_consume+0x14>)
 800028a:	2212      	movs	r2, #18
 800028c:	4803      	ldr	r0, [pc, #12]	@ (800029c <midi_packet_consume+0x18>)
 800028e:	7019      	strb	r1, [r3, #0]
 8000290:	f005 fe51 	bl	8005f36 <memset>
 8000294:	bd10      	pop	{r4, pc}
 8000296:	46c0      	nop			@ (mov r8, r8)
 8000298:	2000034e 	.word	0x2000034e
 800029c:	2000034f 	.word	0x2000034f

080002a0 <tim3_set_tick_us>:
 80002a0:	b530      	push	{r4, r5, lr}
 80002a2:	2804      	cmp	r0, #4
 80002a4:	d916      	bls.n	80002d4 <tim3_set_tick_us+0x34>
 80002a6:	2330      	movs	r3, #48	@ 0x30
 80002a8:	4343      	muls	r3, r0
 80002aa:	b672      	cpsid	i
 80002ac:	4a0b      	ldr	r2, [pc, #44]	@ (80002dc <tim3_set_tick_us+0x3c>)
 80002ae:	4c0c      	ldr	r4, [pc, #48]	@ (80002e0 <tim3_set_tick_us+0x40>)
 80002b0:	6811      	ldr	r1, [r2, #0]
 80002b2:	3b01      	subs	r3, #1
 80002b4:	000d      	movs	r5, r1
 80002b6:	b29b      	uxth	r3, r3
 80002b8:	4025      	ands	r5, r4
 80002ba:	6015      	str	r5, [r2, #0]
 80002bc:	62d3      	str	r3, [r2, #44]	@ 0x2c
 80002be:	2301      	movs	r3, #1
 80002c0:	6153      	str	r3, [r2, #20]
 80002c2:	6913      	ldr	r3, [r2, #16]
 80002c4:	b289      	uxth	r1, r1
 80002c6:	4023      	ands	r3, r4
 80002c8:	6113      	str	r3, [r2, #16]
 80002ca:	4b06      	ldr	r3, [pc, #24]	@ (80002e4 <tim3_set_tick_us+0x44>)
 80002cc:	6011      	str	r1, [r2, #0]
 80002ce:	7018      	strb	r0, [r3, #0]
 80002d0:	b662      	cpsie	i
 80002d2:	bd30      	pop	{r4, r5, pc}
 80002d4:	2005      	movs	r0, #5
 80002d6:	23f0      	movs	r3, #240	@ 0xf0
 80002d8:	e7e7      	b.n	80002aa <tim3_set_tick_us+0xa>
 80002da:	46c0      	nop			@ (mov r8, r8)
 80002dc:	40000400 	.word	0x40000400
 80002e0:	0000fffe 	.word	0x0000fffe
 80002e4:	20000008 	.word	0x20000008

080002e8 <emw_u32_le>:
 80002e8:	7842      	ldrb	r2, [r0, #1]
 80002ea:	7803      	ldrb	r3, [r0, #0]
 80002ec:	0212      	lsls	r2, r2, #8
 80002ee:	431a      	orrs	r2, r3
 80002f0:	7883      	ldrb	r3, [r0, #2]
 80002f2:	78c0      	ldrb	r0, [r0, #3]
 80002f4:	041b      	lsls	r3, r3, #16
 80002f6:	4313      	orrs	r3, r2
 80002f8:	0600      	lsls	r0, r0, #24
 80002fa:	4318      	orrs	r0, r3
 80002fc:	4770      	bx	lr
	...

08000300 <gpio_release_pb6_pb7>:
 8000300:	b507      	push	{r0, r1, r2, lr}
 8000302:	2180      	movs	r1, #128	@ 0x80
 8000304:	4b06      	ldr	r3, [pc, #24]	@ (8000320 <gpio_release_pb6_pb7+0x20>)
 8000306:	02c9      	lsls	r1, r1, #11
 8000308:	695a      	ldr	r2, [r3, #20]
 800030a:	4806      	ldr	r0, [pc, #24]	@ (8000324 <gpio_release_pb6_pb7+0x24>)
 800030c:	430a      	orrs	r2, r1
 800030e:	615a      	str	r2, [r3, #20]
 8000310:	695b      	ldr	r3, [r3, #20]
 8000312:	400b      	ands	r3, r1
 8000314:	9301      	str	r3, [sp, #4]
 8000316:	21c0      	movs	r1, #192	@ 0xc0
 8000318:	9b01      	ldr	r3, [sp, #4]
 800031a:	f001 ffc3 	bl	80022a4 <HAL_GPIO_DeInit>
 800031e:	bd07      	pop	{r0, r1, r2, pc}
 8000320:	40021000 	.word	0x40021000
 8000324:	48000400 	.word	0x48000400

08000328 <uart1_deinit>:
 8000328:	b507      	push	{r0, r1, r2, lr}
 800032a:	2201      	movs	r2, #1
 800032c:	4b11      	ldr	r3, [pc, #68]	@ (8000374 <uart1_deinit+0x4c>)
 800032e:	6819      	ldr	r1, [r3, #0]
 8000330:	4211      	tst	r1, r2
 8000332:	d10f      	bne.n	8000354 <uart1_deinit+0x2c>
 8000334:	4a10      	ldr	r2, [pc, #64]	@ (8000378 <uart1_deinit+0x50>)
 8000336:	4911      	ldr	r1, [pc, #68]	@ (800037c <uart1_deinit+0x54>)
 8000338:	6993      	ldr	r3, [r2, #24]
 800033a:	400b      	ands	r3, r1
 800033c:	6193      	str	r3, [r2, #24]
 800033e:	f7ff ffdf 	bl	8000300 <gpio_release_pb6_pb7>
 8000342:	2200      	movs	r2, #0
 8000344:	4b0e      	ldr	r3, [pc, #56]	@ (8000380 <uart1_deinit+0x58>)
 8000346:	701a      	strb	r2, [r3, #0]
 8000348:	4b0e      	ldr	r3, [pc, #56]	@ (8000384 <uart1_deinit+0x5c>)
 800034a:	7819      	ldrb	r1, [r3, #0]
 800034c:	2901      	cmp	r1, #1
 800034e:	d100      	bne.n	8000352 <uart1_deinit+0x2a>
 8000350:	701a      	strb	r2, [r3, #0]
 8000352:	bd07      	pop	{r0, r1, r2, pc}
 8000354:	6819      	ldr	r1, [r3, #0]
 8000356:	480c      	ldr	r0, [pc, #48]	@ (8000388 <uart1_deinit+0x60>)
 8000358:	4391      	bics	r1, r2
 800035a:	6019      	str	r1, [r3, #0]
 800035c:	2100      	movs	r1, #0
 800035e:	9101      	str	r1, [sp, #4]
 8000360:	9901      	ldr	r1, [sp, #4]
 8000362:	4281      	cmp	r1, r0
 8000364:	d8e6      	bhi.n	8000334 <uart1_deinit+0xc>
 8000366:	6819      	ldr	r1, [r3, #0]
 8000368:	4211      	tst	r1, r2
 800036a:	d0e3      	beq.n	8000334 <uart1_deinit+0xc>
 800036c:	9901      	ldr	r1, [sp, #4]
 800036e:	3101      	adds	r1, #1
 8000370:	9101      	str	r1, [sp, #4]
 8000372:	e7f5      	b.n	8000360 <uart1_deinit+0x38>
 8000374:	40013800 	.word	0x40013800
 8000378:	40021000 	.word	0x40021000
 800037c:	ffffbfff 	.word	0xffffbfff
 8000380:	200001f5 	.word	0x200001f5
 8000384:	200001f6 	.word	0x200001f6
 8000388:	000f423f 	.word	0x000f423f

0800038c <i2c1_ensure>:
 800038c:	b5f0      	push	{r4, r5, r6, r7, lr}
 800038e:	0005      	movs	r5, r0
 8000390:	b089      	sub	sp, #36	@ 0x24
 8000392:	2800      	cmp	r0, #0
 8000394:	d100      	bne.n	8000398 <i2c1_ensure+0xc>
 8000396:	4d28      	ldr	r5, [pc, #160]	@ (8000438 <i2c1_ensure+0xac>)
 8000398:	4b28      	ldr	r3, [pc, #160]	@ (800043c <i2c1_ensure+0xb0>)
 800039a:	4a29      	ldr	r2, [pc, #164]	@ (8000440 <i2c1_ensure+0xb4>)
 800039c:	9300      	str	r3, [sp, #0]
 800039e:	781b      	ldrb	r3, [r3, #0]
 80003a0:	4f28      	ldr	r7, [pc, #160]	@ (8000444 <i2c1_ensure+0xb8>)
 80003a2:	9201      	str	r2, [sp, #4]
 80003a4:	2b02      	cmp	r3, #2
 80003a6:	d108      	bne.n	80003ba <i2c1_ensure+0x2e>
 80003a8:	7813      	ldrb	r3, [r2, #0]
 80003aa:	2b00      	cmp	r3, #0
 80003ac:	d009      	beq.n	80003c2 <i2c1_ensure+0x36>
 80003ae:	683b      	ldr	r3, [r7, #0]
 80003b0:	42ab      	cmp	r3, r5
 80003b2:	d106      	bne.n	80003c2 <i2c1_ensure+0x36>
 80003b4:	2001      	movs	r0, #1
 80003b6:	b009      	add	sp, #36	@ 0x24
 80003b8:	bdf0      	pop	{r4, r5, r6, r7, pc}
 80003ba:	2b01      	cmp	r3, #1
 80003bc:	d101      	bne.n	80003c2 <i2c1_ensure+0x36>
 80003be:	f7ff ffb3 	bl	8000328 <uart1_deinit>
 80003c2:	2280      	movs	r2, #128	@ 0x80
 80003c4:	4c20      	ldr	r4, [pc, #128]	@ (8000448 <i2c1_ensure+0xbc>)
 80003c6:	02d2      	lsls	r2, r2, #11
 80003c8:	6963      	ldr	r3, [r4, #20]
 80003ca:	2601      	movs	r6, #1
 80003cc:	4313      	orrs	r3, r2
 80003ce:	6163      	str	r3, [r4, #20]
 80003d0:	6963      	ldr	r3, [r4, #20]
 80003d2:	a903      	add	r1, sp, #12
 80003d4:	4013      	ands	r3, r2
 80003d6:	9302      	str	r3, [sp, #8]
 80003d8:	9b02      	ldr	r3, [sp, #8]
 80003da:	23c0      	movs	r3, #192	@ 0xc0
 80003dc:	9303      	str	r3, [sp, #12]
 80003de:	3bae      	subs	r3, #174	@ 0xae
 80003e0:	9304      	str	r3, [sp, #16]
 80003e2:	481a      	ldr	r0, [pc, #104]	@ (800044c <i2c1_ensure+0xc0>)
 80003e4:	3b0f      	subs	r3, #15
 80003e6:	9306      	str	r3, [sp, #24]
 80003e8:	9605      	str	r6, [sp, #20]
 80003ea:	9607      	str	r6, [sp, #28]
 80003ec:	f001 fea8 	bl	8002140 <HAL_GPIO_Init>
 80003f0:	2380      	movs	r3, #128	@ 0x80
 80003f2:	69e2      	ldr	r2, [r4, #28]
 80003f4:	039b      	lsls	r3, r3, #14
 80003f6:	431a      	orrs	r2, r3
 80003f8:	61e2      	str	r2, [r4, #28]
 80003fa:	6922      	ldr	r2, [r4, #16]
 80003fc:	4914      	ldr	r1, [pc, #80]	@ (8000450 <i2c1_ensure+0xc4>)
 80003fe:	4313      	orrs	r3, r2
 8000400:	6123      	str	r3, [r4, #16]
 8000402:	6923      	ldr	r3, [r4, #16]
 8000404:	4a13      	ldr	r2, [pc, #76]	@ (8000454 <i2c1_ensure+0xc8>)
 8000406:	4013      	ands	r3, r2
 8000408:	4a13      	ldr	r2, [pc, #76]	@ (8000458 <i2c1_ensure+0xcc>)
 800040a:	6123      	str	r3, [r4, #16]
 800040c:	6813      	ldr	r3, [r2, #0]
 800040e:	43b3      	bics	r3, r6
 8000410:	6013      	str	r3, [r2, #0]
 8000412:	4b12      	ldr	r3, [pc, #72]	@ (800045c <i2c1_ensure+0xd0>)
 8000414:	42ab      	cmp	r3, r5
 8000416:	419b      	sbcs	r3, r3
 8000418:	400b      	ands	r3, r1
 800041a:	4911      	ldr	r1, [pc, #68]	@ (8000460 <i2c1_ensure+0xd4>)
 800041c:	185b      	adds	r3, r3, r1
 800041e:	6113      	str	r3, [r2, #16]
 8000420:	2301      	movs	r3, #1
 8000422:	425b      	negs	r3, r3
 8000424:	61d3      	str	r3, [r2, #28]
 8000426:	9b01      	ldr	r3, [sp, #4]
 8000428:	6016      	str	r6, [r2, #0]
 800042a:	701e      	strb	r6, [r3, #0]
 800042c:	2302      	movs	r3, #2
 800042e:	9a00      	ldr	r2, [sp, #0]
 8000430:	603d      	str	r5, [r7, #0]
 8000432:	7013      	strb	r3, [r2, #0]
 8000434:	e7be      	b.n	80003b4 <i2c1_ensure+0x28>
 8000436:	46c0      	nop			@ (mov r8, r8)
 8000438:	000186a0 	.word	0x000186a0
 800043c:	200001f6 	.word	0x200001f6
 8000440:	200001f4 	.word	0x200001f4
 8000444:	20000000 	.word	0x20000000
 8000448:	40021000 	.word	0x40021000
 800044c:	48000400 	.word	0x48000400
 8000450:	efdec3c4 	.word	0xefdec3c4
 8000454:	ffdfffff 	.word	0xffdfffff
 8000458:	40005400 	.word	0x40005400
 800045c:	00061a7f 	.word	0x00061a7f
 8000460:	10427777 	.word	0x10427777

08000464 <uart1_ensure>:
 8000464:	b5f0      	push	{r4, r5, r6, r7, lr}
 8000466:	0005      	movs	r5, r0
 8000468:	b089      	sub	sp, #36	@ 0x24
 800046a:	2800      	cmp	r0, #0
 800046c:	d101      	bne.n	8000472 <uart1_ensure+0xe>
 800046e:	25e1      	movs	r5, #225	@ 0xe1
 8000470:	026d      	lsls	r5, r5, #9
 8000472:	4e32      	ldr	r6, [pc, #200]	@ (800053c <uart1_ensure+0xd8>)
 8000474:	4a32      	ldr	r2, [pc, #200]	@ (8000540 <uart1_ensure+0xdc>)
 8000476:	7833      	ldrb	r3, [r6, #0]
 8000478:	4f32      	ldr	r7, [pc, #200]	@ (8000544 <uart1_ensure+0xe0>)
 800047a:	9201      	str	r2, [sp, #4]
 800047c:	2b01      	cmp	r3, #1
 800047e:	d108      	bne.n	8000492 <uart1_ensure+0x2e>
 8000480:	7813      	ldrb	r3, [r2, #0]
 8000482:	2b00      	cmp	r3, #0
 8000484:	d017      	beq.n	80004b6 <uart1_ensure+0x52>
 8000486:	683b      	ldr	r3, [r7, #0]
 8000488:	42ab      	cmp	r3, r5
 800048a:	d114      	bne.n	80004b6 <uart1_ensure+0x52>
 800048c:	2001      	movs	r0, #1
 800048e:	b009      	add	sp, #36	@ 0x24
 8000490:	bdf0      	pop	{r4, r5, r6, r7, pc}
 8000492:	2b02      	cmp	r3, #2
 8000494:	d10f      	bne.n	80004b6 <uart1_ensure+0x52>
 8000496:	2400      	movs	r4, #0
 8000498:	2101      	movs	r1, #1
 800049a:	4b2b      	ldr	r3, [pc, #172]	@ (8000548 <uart1_ensure+0xe4>)
 800049c:	4a2b      	ldr	r2, [pc, #172]	@ (800054c <uart1_ensure+0xe8>)
 800049e:	701c      	strb	r4, [r3, #0]
 80004a0:	6813      	ldr	r3, [r2, #0]
 80004a2:	438b      	bics	r3, r1
 80004a4:	6013      	str	r3, [r2, #0]
 80004a6:	4a2a      	ldr	r2, [pc, #168]	@ (8000550 <uart1_ensure+0xec>)
 80004a8:	492a      	ldr	r1, [pc, #168]	@ (8000554 <uart1_ensure+0xf0>)
 80004aa:	69d3      	ldr	r3, [r2, #28]
 80004ac:	400b      	ands	r3, r1
 80004ae:	61d3      	str	r3, [r2, #28]
 80004b0:	f7ff ff26 	bl	8000300 <gpio_release_pb6_pb7>
 80004b4:	7034      	strb	r4, [r6, #0]
 80004b6:	2280      	movs	r2, #128	@ 0x80
 80004b8:	4c25      	ldr	r4, [pc, #148]	@ (8000550 <uart1_ensure+0xec>)
 80004ba:	02d2      	lsls	r2, r2, #11
 80004bc:	6963      	ldr	r3, [r4, #20]
 80004be:	4826      	ldr	r0, [pc, #152]	@ (8000558 <uart1_ensure+0xf4>)
 80004c0:	4313      	orrs	r3, r2
 80004c2:	6163      	str	r3, [r4, #20]
 80004c4:	6963      	ldr	r3, [r4, #20]
 80004c6:	a903      	add	r1, sp, #12
 80004c8:	4013      	ands	r3, r2
 80004ca:	9302      	str	r3, [sp, #8]
 80004cc:	9b02      	ldr	r3, [sp, #8]
 80004ce:	2300      	movs	r3, #0
 80004d0:	9307      	str	r3, [sp, #28]
 80004d2:	33c0      	adds	r3, #192	@ 0xc0
 80004d4:	9303      	str	r3, [sp, #12]
 80004d6:	3bbe      	subs	r3, #190	@ 0xbe
 80004d8:	9304      	str	r3, [sp, #16]
 80004da:	3b01      	subs	r3, #1
 80004dc:	9305      	str	r3, [sp, #20]
 80004de:	3302      	adds	r3, #2
 80004e0:	9306      	str	r3, [sp, #24]
 80004e2:	f001 fe2d 	bl	8002140 <HAL_GPIO_Init>
 80004e6:	2380      	movs	r3, #128	@ 0x80
 80004e8:	69a2      	ldr	r2, [r4, #24]
 80004ea:	01db      	lsls	r3, r3, #7
 80004ec:	4313      	orrs	r3, r2
 80004ee:	2201      	movs	r2, #1
 80004f0:	61a3      	str	r3, [r4, #24]
 80004f2:	4c1a      	ldr	r4, [pc, #104]	@ (800055c <uart1_ensure+0xf8>)
 80004f4:	6823      	ldr	r3, [r4, #0]
 80004f6:	4393      	bics	r3, r2
 80004f8:	6023      	str	r3, [r4, #0]
 80004fa:	f003 f8f3 	bl	80036e4 <HAL_RCC_GetHCLKFreq>
 80004fe:	2800      	cmp	r0, #0
 8000500:	d100      	bne.n	8000504 <uart1_ensure+0xa0>
 8000502:	4817      	ldr	r0, [pc, #92]	@ (8000560 <uart1_ensure+0xfc>)
 8000504:	086b      	lsrs	r3, r5, #1
 8000506:	1818      	adds	r0, r3, r0
 8000508:	2301      	movs	r3, #1
 800050a:	42a8      	cmp	r0, r5
 800050c:	d303      	bcc.n	8000516 <uart1_ensure+0xb2>
 800050e:	0029      	movs	r1, r5
 8000510:	f7ff fe20 	bl	8000154 <__udivsi3>
 8000514:	0003      	movs	r3, r0
 8000516:	60e3      	str	r3, [r4, #12]
 8000518:	2300      	movs	r3, #0
 800051a:	6063      	str	r3, [r4, #4]
 800051c:	60a3      	str	r3, [r4, #8]
 800051e:	330c      	adds	r3, #12
 8000520:	6023      	str	r3, [r4, #0]
 8000522:	3b0d      	subs	r3, #13
 8000524:	6223      	str	r3, [r4, #32]
 8000526:	3309      	adds	r3, #9
 8000528:	61a3      	str	r3, [r4, #24]
 800052a:	6822      	ldr	r2, [r4, #0]
 800052c:	3b07      	subs	r3, #7
 800052e:	431a      	orrs	r2, r3
 8000530:	6022      	str	r2, [r4, #0]
 8000532:	9a01      	ldr	r2, [sp, #4]
 8000534:	603d      	str	r5, [r7, #0]
 8000536:	7013      	strb	r3, [r2, #0]
 8000538:	7033      	strb	r3, [r6, #0]
 800053a:	e7a7      	b.n	800048c <uart1_ensure+0x28>
 800053c:	200001f6 	.word	0x200001f6
 8000540:	200001f5 	.word	0x200001f5
 8000544:	20000004 	.word	0x20000004
 8000548:	200001f4 	.word	0x200001f4
 800054c:	40005400 	.word	0x40005400
 8000550:	40021000 	.word	0x40021000
 8000554:	ffdfffff 	.word	0xffdfffff
 8000558:	48000400 	.word	0x48000400
 800055c:	40013800 	.word	0x40013800
 8000560:	02dc6c00 	.word	0x02dc6c00

08000564 <command_send_status>:
 8000564:	b5f0      	push	{r4, r5, r6, r7, lr}
 8000566:	0006      	movs	r6, r0
 8000568:	000c      	movs	r4, r1
 800056a:	0015      	movs	r5, r2
 800056c:	0017      	movs	r7, r2
 800056e:	b08b      	sub	sp, #44	@ 0x2c
 8000570:	2a11      	cmp	r2, #17
 8000572:	d900      	bls.n	8000576 <command_send_status+0x12>
 8000574:	2711      	movs	r7, #17
 8000576:	4b1d      	ldr	r3, [pc, #116]	@ (80005ec <command_send_status+0x88>)
 8000578:	781b      	ldrb	r3, [r3, #0]
 800057a:	2b01      	cmp	r3, #1
 800057c:	d112      	bne.n	80005a4 <command_send_status+0x40>
 800057e:	2212      	movs	r2, #18
 8000580:	2100      	movs	r1, #0
 8000582:	a801      	add	r0, sp, #4
 8000584:	f005 fcd7 	bl	8005f36 <memset>
 8000588:	466b      	mov	r3, sp
 800058a:	711e      	strb	r6, [r3, #4]
 800058c:	2c00      	cmp	r4, #0
 800058e:	d123      	bne.n	80005d8 <command_send_status+0x74>
 8000590:	2212      	movs	r2, #18
 8000592:	4817      	ldr	r0, [pc, #92]	@ (80005f0 <command_send_status+0x8c>)
 8000594:	a901      	add	r1, sp, #4
 8000596:	f005 fcfb 	bl	8005f90 <memcpy>
 800059a:	2201      	movs	r2, #1
 800059c:	4b15      	ldr	r3, [pc, #84]	@ (80005f4 <command_send_status+0x90>)
 800059e:	701a      	strb	r2, [r3, #0]
 80005a0:	b00b      	add	sp, #44	@ 0x2c
 80005a2:	bdf0      	pop	{r4, r5, r6, r7, pc}
 80005a4:	f005 f986 	bl	80058b4 <MIDI_GetBufferType_FS>
 80005a8:	2801      	cmp	r0, #1
 80005aa:	d0e8      	beq.n	800057e <command_send_status+0x1a>
 80005ac:	2224      	movs	r2, #36	@ 0x24
 80005ae:	2100      	movs	r1, #0
 80005b0:	a801      	add	r0, sp, #4
 80005b2:	f005 fcc0 	bl	8005f36 <memset>
 80005b6:	466b      	mov	r3, sp
 80005b8:	711e      	strb	r6, [r3, #4]
 80005ba:	2c00      	cmp	r4, #0
 80005bc:	d006      	beq.n	80005cc <command_send_status+0x68>
 80005be:	2d00      	cmp	r5, #0
 80005c0:	d004      	beq.n	80005cc <command_send_status+0x68>
 80005c2:	003a      	movs	r2, r7
 80005c4:	0021      	movs	r1, r4
 80005c6:	1d58      	adds	r0, r3, #5
 80005c8:	f005 fce2 	bl	8005f90 <memcpy>
 80005cc:	2264      	movs	r2, #100	@ 0x64
 80005ce:	2124      	movs	r1, #36	@ 0x24
 80005d0:	a801      	add	r0, sp, #4
 80005d2:	f005 fa75 	bl	8005ac0 <MIDI_SendResponsePkt_FS>
 80005d6:	e7e3      	b.n	80005a0 <command_send_status+0x3c>
 80005d8:	2d00      	cmp	r5, #0
 80005da:	d0d9      	beq.n	8000590 <command_send_status+0x2c>
 80005dc:	466b      	mov	r3, sp
 80005de:	003a      	movs	r2, r7
 80005e0:	0021      	movs	r1, r4
 80005e2:	1d58      	adds	r0, r3, #5
 80005e4:	f005 fcd4 	bl	8005f90 <memcpy>
 80005e8:	e7d2      	b.n	8000590 <command_send_status+0x2c>
 80005ea:	46c0      	nop			@ (mov r8, r8)
 80005ec:	2000020b 	.word	0x2000020b
 80005f0:	200001f9 	.word	0x200001f9
 80005f4:	200001f8 	.word	0x200001f8

080005f8 <command_send_ok>:
 80005f8:	b510      	push	{r4, lr}
 80005fa:	000a      	movs	r2, r1
 80005fc:	0001      	movs	r1, r0
 80005fe:	2080      	movs	r0, #128	@ 0x80
 8000600:	f7ff ffb0 	bl	8000564 <command_send_status>
 8000604:	bd10      	pop	{r4, pc}
	...

08000608 <stopPWM_TIM2>:
 8000608:	2808      	cmp	r0, #8
 800060a:	d018      	beq.n	800063e <stopPWM_TIM2+0x36>
 800060c:	d804      	bhi.n	8000618 <stopPWM_TIM2+0x10>
 800060e:	2800      	cmp	r0, #0
 8000610:	d009      	beq.n	8000626 <stopPWM_TIM2+0x1e>
 8000612:	2804      	cmp	r0, #4
 8000614:	d00e      	beq.n	8000634 <stopPWM_TIM2+0x2c>
 8000616:	4770      	bx	lr
 8000618:	280c      	cmp	r0, #12
 800061a:	d1fc      	bne.n	8000616 <stopPWM_TIM2+0xe>
 800061c:	2280      	movs	r2, #128	@ 0x80
 800061e:	05d2      	lsls	r2, r2, #23
 8000620:	6a13      	ldr	r3, [r2, #32]
 8000622:	4909      	ldr	r1, [pc, #36]	@ (8000648 <stopPWM_TIM2+0x40>)
 8000624:	e003      	b.n	800062e <stopPWM_TIM2+0x26>
 8000626:	2280      	movs	r2, #128	@ 0x80
 8000628:	05d2      	lsls	r2, r2, #23
 800062a:	6a13      	ldr	r3, [r2, #32]
 800062c:	4907      	ldr	r1, [pc, #28]	@ (800064c <stopPWM_TIM2+0x44>)
 800062e:	400b      	ands	r3, r1
 8000630:	6213      	str	r3, [r2, #32]
 8000632:	e7f0      	b.n	8000616 <stopPWM_TIM2+0xe>
 8000634:	2280      	movs	r2, #128	@ 0x80
 8000636:	05d2      	lsls	r2, r2, #23
 8000638:	6a13      	ldr	r3, [r2, #32]
 800063a:	4905      	ldr	r1, [pc, #20]	@ (8000650 <stopPWM_TIM2+0x48>)
 800063c:	e7f7      	b.n	800062e <stopPWM_TIM2+0x26>
 800063e:	2280      	movs	r2, #128	@ 0x80
 8000640:	05d2      	lsls	r2, r2, #23
 8000642:	6a13      	ldr	r3, [r2, #32]
 8000644:	4903      	ldr	r1, [pc, #12]	@ (8000654 <stopPWM_TIM2+0x4c>)
 8000646:	e7f2      	b.n	800062e <stopPWM_TIM2+0x26>
 8000648:	0000efff 	.word	0x0000efff
 800064c:	0000fffe 	.word	0x0000fffe
 8000650:	0000ffef 	.word	0x0000ffef
 8000654:	0000feff 	.word	0x0000feff

08000658 <enable_gpio_clock>:
 8000658:	2390      	movs	r3, #144	@ 0x90
 800065a:	b082      	sub	sp, #8
 800065c:	05db      	lsls	r3, r3, #23
 800065e:	4298      	cmp	r0, r3
 8000660:	d10b      	bne.n	800067a <enable_gpio_clock+0x22>
 8000662:	2180      	movs	r1, #128	@ 0x80
 8000664:	4b0c      	ldr	r3, [pc, #48]	@ (8000698 <enable_gpio_clock+0x40>)
 8000666:	0289      	lsls	r1, r1, #10
 8000668:	695a      	ldr	r2, [r3, #20]
 800066a:	430a      	orrs	r2, r1
 800066c:	615a      	str	r2, [r3, #20]
 800066e:	695b      	ldr	r3, [r3, #20]
 8000670:	400b      	ands	r3, r1
 8000672:	9300      	str	r3, [sp, #0]
 8000674:	9b00      	ldr	r3, [sp, #0]
 8000676:	b002      	add	sp, #8
 8000678:	4770      	bx	lr
 800067a:	4b08      	ldr	r3, [pc, #32]	@ (800069c <enable_gpio_clock+0x44>)
 800067c:	4298      	cmp	r0, r3
 800067e:	d1fa      	bne.n	8000676 <enable_gpio_clock+0x1e>
 8000680:	2180      	movs	r1, #128	@ 0x80
 8000682:	4b05      	ldr	r3, [pc, #20]	@ (8000698 <enable_gpio_clock+0x40>)
 8000684:	02c9      	lsls	r1, r1, #11
 8000686:	695a      	ldr	r2, [r3, #20]
 8000688:	430a      	orrs	r2, r1
 800068a:	615a      	str	r2, [r3, #20]
 800068c:	695b      	ldr	r3, [r3, #20]
 800068e:	400b      	ands	r3, r1
 8000690:	9301      	str	r3, [sp, #4]
 8000692:	9b01      	ldr	r3, [sp, #4]
 8000694:	e7ef      	b.n	8000676 <enable_gpio_clock+0x1e>
 8000696:	46c0      	nop			@ (mov r8, r8)
 8000698:	40021000 	.word	0x40021000
 800069c:	48000400 	.word	0x48000400

080006a0 <configurePin>:
 80006a0:	b5f0      	push	{r4, r5, r6, r7, lr}
 80006a2:	001e      	movs	r6, r3
 80006a4:	2300      	movs	r3, #0
 80006a6:	b087      	sub	sp, #28
 80006a8:	000f      	movs	r7, r1
 80006aa:	0014      	movs	r4, r2
 80006ac:	9305      	str	r3, [sp, #20]
 80006ae:	0005      	movs	r5, r0
 80006b0:	f7ff ffd2 	bl	8000658 <enable_gpio_clock>
 80006b4:	2303      	movs	r3, #3
 80006b6:	9701      	str	r7, [sp, #4]
 80006b8:	9402      	str	r4, [sp, #8]
 80006ba:	9603      	str	r6, [sp, #12]
 80006bc:	9304      	str	r3, [sp, #16]
 80006be:	2c02      	cmp	r4, #2
 80006c0:	d100      	bne.n	80006c4 <configurePin+0x24>
 80006c2:	9405      	str	r4, [sp, #20]
 80006c4:	0028      	movs	r0, r5
 80006c6:	a901      	add	r1, sp, #4
 80006c8:	f001 fd3a 	bl	8002140 <HAL_GPIO_Init>
 80006cc:	b007      	add	sp, #28
 80006ce:	bdf0      	pop	{r4, r5, r6, r7, pc}

080006d0 <disable_tim2_output_if_needed>:
 80006d0:	2390      	movs	r3, #144	@ 0x90
 80006d2:	b510      	push	{r4, lr}
 80006d4:	05db      	lsls	r3, r3, #23
 80006d6:	4298      	cmp	r0, r3
 80006d8:	d10f      	bne.n	80006fa <disable_tim2_output_if_needed+0x2a>
 80006da:	2903      	cmp	r1, #3
 80006dc:	d80d      	bhi.n	80006fa <disable_tim2_output_if_needed+0x2a>
 80006de:	4b07      	ldr	r3, [pc, #28]	@ (80006fc <disable_tim2_output_if_needed+0x2c>)
 80006e0:	004c      	lsls	r4, r1, #1
 80006e2:	2080      	movs	r0, #128	@ 0x80
 80006e4:	5ae3      	ldrh	r3, [r4, r3]
 80006e6:	05c0      	lsls	r0, r0, #23
 80006e8:	43db      	mvns	r3, r3
 80006ea:	6a02      	ldr	r2, [r0, #32]
 80006ec:	b29b      	uxth	r3, r3
 80006ee:	4013      	ands	r3, r2
 80006f0:	6203      	str	r3, [r0, #32]
 80006f2:	0089      	lsls	r1, r1, #2
 80006f4:	4802      	ldr	r0, [pc, #8]	@ (8000700 <disable_tim2_output_if_needed+0x30>)
 80006f6:	f003 fe6f 	bl	80043d8 <HAL_TIM_PWM_Stop>
 80006fa:	bd10      	pop	{r4, pc}
 80006fc:	08005fd6 	.word	0x08005fd6
 8000700:	200003ac 	.word	0x200003ac

08000704 <gpio_set_mode>:
 8000704:	b5f8      	push	{r3, r4, r5, r6, r7, lr}
 8000706:	0004      	movs	r4, r0
 8000708:	000d      	movs	r5, r1
 800070a:	0016      	movs	r6, r2
 800070c:	001f      	movs	r7, r3
 800070e:	2800      	cmp	r0, #0
 8000710:	d00b      	beq.n	800072a <gpio_set_mode+0x26>
 8000712:	f7ff ffa1 	bl	8000658 <enable_gpio_clock>
 8000716:	0029      	movs	r1, r5
 8000718:	0020      	movs	r0, r4
 800071a:	f001 fdc3 	bl	80022a4 <HAL_GPIO_DeInit>
 800071e:	003b      	movs	r3, r7
 8000720:	0032      	movs	r2, r6
 8000722:	0029      	movs	r1, r5
 8000724:	0020      	movs	r0, r4
 8000726:	f7ff ffbb 	bl	80006a0 <configurePin>
 800072a:	bdf8      	pop	{r3, r4, r5, r6, r7, pc}

0800072c <tim2_set_pwm_hz>:
 800072c:	b570      	push	{r4, r5, r6, lr}
 800072e:	0005      	movs	r5, r0
 8000730:	2000      	movs	r0, #0
 8000732:	4285      	cmp	r5, r0
 8000734:	d012      	beq.n	800075c <tim2_set_pwm_hz+0x30>
 8000736:	f002 ffd5 	bl	80036e4 <HAL_RCC_GetHCLKFreq>
 800073a:	2800      	cmp	r0, #0
 800073c:	d100      	bne.n	8000740 <tim2_set_pwm_hz+0x14>
 800073e:	4808      	ldr	r0, [pc, #32]	@ (8000760 <tim2_set_pwm_hz+0x34>)
 8000740:	2480      	movs	r4, #128	@ 0x80
 8000742:	2300      	movs	r3, #0
 8000744:	05e4      	lsls	r4, r4, #23
 8000746:	0029      	movs	r1, r5
 8000748:	62a3      	str	r3, [r4, #40]	@ 0x28
 800074a:	f7ff fd03 	bl	8000154 <__udivsi3>
 800074e:	2802      	cmp	r0, #2
 8000750:	d200      	bcs.n	8000754 <tim2_set_pwm_hz+0x28>
 8000752:	2002      	movs	r0, #2
 8000754:	3801      	subs	r0, #1
 8000756:	62e0      	str	r0, [r4, #44]	@ 0x2c
 8000758:	2001      	movs	r0, #1
 800075a:	6160      	str	r0, [r4, #20]
 800075c:	bd70      	pop	{r4, r5, r6, pc}
 800075e:	46c0      	nop			@ (mov r8, r8)
 8000760:	02dc6c00 	.word	0x02dc6c00

08000764 <decode_encoded_pin.part.0.constprop.0>:
 8000764:	280f      	cmp	r0, #15
 8000766:	dc07      	bgt.n	8000778 <decode_encoded_pin.part.0.constprop.0+0x14>
 8000768:	2390      	movs	r3, #144	@ 0x90
 800076a:	05db      	lsls	r3, r3, #23
 800076c:	600b      	str	r3, [r1, #0]
 800076e:	2301      	movs	r3, #1
 8000770:	4083      	lsls	r3, r0
 8000772:	8013      	strh	r3, [r2, #0]
 8000774:	2001      	movs	r0, #1
 8000776:	4770      	bx	lr
 8000778:	0003      	movs	r3, r0
 800077a:	3b10      	subs	r3, #16
 800077c:	2000      	movs	r0, #0
 800077e:	2b0f      	cmp	r3, #15
 8000780:	d8f9      	bhi.n	8000776 <decode_encoded_pin.part.0.constprop.0+0x12>
 8000782:	4803      	ldr	r0, [pc, #12]	@ (8000790 <decode_encoded_pin.part.0.constprop.0+0x2c>)
 8000784:	6008      	str	r0, [r1, #0]
 8000786:	2101      	movs	r1, #1
 8000788:	4099      	lsls	r1, r3
 800078a:	8011      	strh	r1, [r2, #0]
 800078c:	e7f2      	b.n	8000774 <decode_encoded_pin.part.0.constprop.0+0x10>
 800078e:	46c0      	nop			@ (mov r8, r8)
 8000790:	48000400 	.word	0x48000400

08000794 <i2c1_wait_flag.constprop.0>:
 8000794:	b5f7      	push	{r0, r1, r2, r4, r5, r6, r7, lr}
 8000796:	0005      	movs	r5, r0
 8000798:	000e      	movs	r6, r1
 800079a:	f001 fb4f 	bl	8001e3c <HAL_GetTick>
 800079e:	9001      	str	r0, [sp, #4]
 80007a0:	002c      	movs	r4, r5
 80007a2:	4f0a      	ldr	r7, [pc, #40]	@ (80007cc <i2c1_wait_flag.constprop.0+0x38>)
 80007a4:	69bb      	ldr	r3, [r7, #24]
 80007a6:	401c      	ands	r4, r3
 80007a8:	421d      	tst	r5, r3
 80007aa:	d10c      	bne.n	80007c6 <i2c1_wait_flag.constprop.0+0x32>
 80007ac:	f001 fb46 	bl	8001e3c <HAL_GetTick>
 80007b0:	9b01      	ldr	r3, [sp, #4]
 80007b2:	1ac0      	subs	r0, r0, r3
 80007b4:	42b0      	cmp	r0, r6
 80007b6:	d804      	bhi.n	80007c2 <i2c1_wait_flag.constprop.0+0x2e>
 80007b8:	22c4      	movs	r2, #196	@ 0xc4
 80007ba:	69bb      	ldr	r3, [r7, #24]
 80007bc:	0092      	lsls	r2, r2, #2
 80007be:	4213      	tst	r3, r2
 80007c0:	d0ee      	beq.n	80007a0 <i2c1_wait_flag.constprop.0+0xc>
 80007c2:	0020      	movs	r0, r4
 80007c4:	e000      	b.n	80007c8 <i2c1_wait_flag.constprop.0+0x34>
 80007c6:	2001      	movs	r0, #1
 80007c8:	bdfe      	pop	{r1, r2, r3, r4, r5, r6, r7, pc}
 80007ca:	46c0      	nop			@ (mov r8, r8)
 80007cc:	40005400 	.word	0x40005400

080007d0 <i2c1_write_then_maybe_stop.constprop.0>:
 80007d0:	b5f7      	push	{r0, r1, r2, r4, r5, r6, r7, lr}
 80007d2:	001d      	movs	r5, r3
 80007d4:	4b1b      	ldr	r3, [pc, #108]	@ (8000844 <i2c1_write_then_maybe_stop.constprop.0+0x74>)
 80007d6:	0006      	movs	r6, r0
 80007d8:	6818      	ldr	r0, [r3, #0]
 80007da:	000c      	movs	r4, r1
 80007dc:	9201      	str	r2, [sp, #4]
 80007de:	f7ff fdd5 	bl	800038c <i2c1_ensure>
 80007e2:	2800      	cmp	r0, #0
 80007e4:	d101      	bne.n	80007ea <i2c1_write_then_maybe_stop.constprop.0+0x1a>
 80007e6:	2000      	movs	r0, #0
 80007e8:	bdfe      	pop	{r1, r2, r3, r4, r5, r6, r7, pc}
 80007ea:	23cc      	movs	r3, #204	@ 0xcc
 80007ec:	4f16      	ldr	r7, [pc, #88]	@ (8000848 <i2c1_write_then_maybe_stop.constprop.0+0x78>)
 80007ee:	009b      	lsls	r3, r3, #2
 80007f0:	61fb      	str	r3, [r7, #28]
 80007f2:	9b01      	ldr	r3, [sp, #4]
 80007f4:	0422      	lsls	r2, r4, #16
 80007f6:	065b      	lsls	r3, r3, #25
 80007f8:	4313      	orrs	r3, r2
 80007fa:	2280      	movs	r2, #128	@ 0x80
 80007fc:	0076      	lsls	r6, r6, #1
 80007fe:	4333      	orrs	r3, r6
 8000800:	0192      	lsls	r2, r2, #6
 8000802:	4e12      	ldr	r6, [pc, #72]	@ (800084c <i2c1_write_then_maybe_stop.constprop.0+0x7c>)
 8000804:	4313      	orrs	r3, r2
 8000806:	607b      	str	r3, [r7, #4]
 8000808:	19a4      	adds	r4, r4, r6
 800080a:	42a6      	cmp	r6, r4
 800080c:	d10b      	bne.n	8000826 <i2c1_write_then_maybe_stop.constprop.0+0x56>
 800080e:	9b01      	ldr	r3, [sp, #4]
 8000810:	0029      	movs	r1, r5
 8000812:	2b00      	cmp	r3, #0
 8000814:	d011      	beq.n	800083a <i2c1_write_then_maybe_stop.constprop.0+0x6a>
 8000816:	2020      	movs	r0, #32
 8000818:	f7ff ffbc 	bl	8000794 <i2c1_wait_flag.constprop.0>
 800081c:	2800      	cmp	r0, #0
 800081e:	d0e2      	beq.n	80007e6 <i2c1_write_then_maybe_stop.constprop.0+0x16>
 8000820:	2320      	movs	r3, #32
 8000822:	61fb      	str	r3, [r7, #28]
 8000824:	e7e0      	b.n	80007e8 <i2c1_write_then_maybe_stop.constprop.0+0x18>
 8000826:	0029      	movs	r1, r5
 8000828:	2002      	movs	r0, #2
 800082a:	f7ff ffb3 	bl	8000794 <i2c1_wait_flag.constprop.0>
 800082e:	3601      	adds	r6, #1
 8000830:	2800      	cmp	r0, #0
 8000832:	d0d8      	beq.n	80007e6 <i2c1_write_then_maybe_stop.constprop.0+0x16>
 8000834:	7ab3      	ldrb	r3, [r6, #10]
 8000836:	62bb      	str	r3, [r7, #40]	@ 0x28
 8000838:	e7e7      	b.n	800080a <i2c1_write_then_maybe_stop.constprop.0+0x3a>
 800083a:	2040      	movs	r0, #64	@ 0x40
 800083c:	f7ff ffaa 	bl	8000794 <i2c1_wait_flag.constprop.0>
 8000840:	e7d2      	b.n	80007e8 <i2c1_write_then_maybe_stop.constprop.0+0x18>
 8000842:	46c0      	nop			@ (mov r8, r8)
 8000844:	20000000 	.word	0x20000000
 8000848:	40005400 	.word	0x40005400
 800084c:	2000034f 	.word	0x2000034f

08000850 <i2c1_read_with_stop>:
 8000850:	b5f7      	push	{r0, r1, r2, r4, r5, r6, r7, lr}
 8000852:	9300      	str	r3, [sp, #0]
 8000854:	4b16      	ldr	r3, [pc, #88]	@ (80008b0 <i2c1_read_with_stop+0x60>)
 8000856:	0006      	movs	r6, r0
 8000858:	6818      	ldr	r0, [r3, #0]
 800085a:	0014      	movs	r4, r2
 800085c:	9101      	str	r1, [sp, #4]
 800085e:	f7ff fd95 	bl	800038c <i2c1_ensure>
 8000862:	1e05      	subs	r5, r0, #0
 8000864:	d102      	bne.n	800086c <i2c1_read_with_stop+0x1c>
 8000866:	2500      	movs	r5, #0
 8000868:	0028      	movs	r0, r5
 800086a:	bdfe      	pop	{r1, r2, r3, r4, r5, r6, r7, pc}
 800086c:	2c00      	cmp	r4, #0
 800086e:	d0fb      	beq.n	8000868 <i2c1_read_with_stop+0x18>
 8000870:	23cc      	movs	r3, #204	@ 0xcc
 8000872:	4f10      	ldr	r7, [pc, #64]	@ (80008b4 <i2c1_read_with_stop+0x64>)
 8000874:	009b      	lsls	r3, r3, #2
 8000876:	61fb      	str	r3, [r7, #28]
 8000878:	0076      	lsls	r6, r6, #1
 800087a:	0423      	lsls	r3, r4, #16
 800087c:	431e      	orrs	r6, r3
 800087e:	4b0e      	ldr	r3, [pc, #56]	@ (80008b8 <i2c1_read_with_stop+0x68>)
 8000880:	4333      	orrs	r3, r6
 8000882:	9e01      	ldr	r6, [sp, #4]
 8000884:	607b      	str	r3, [r7, #4]
 8000886:	1934      	adds	r4, r6, r4
 8000888:	2004      	movs	r0, #4
 800088a:	9900      	ldr	r1, [sp, #0]
 800088c:	f7ff ff82 	bl	8000794 <i2c1_wait_flag.constprop.0>
 8000890:	2800      	cmp	r0, #0
 8000892:	d0e8      	beq.n	8000866 <i2c1_read_with_stop+0x16>
 8000894:	6a7b      	ldr	r3, [r7, #36]	@ 0x24
 8000896:	7033      	strb	r3, [r6, #0]
 8000898:	3601      	adds	r6, #1
 800089a:	42a6      	cmp	r6, r4
 800089c:	d1f4      	bne.n	8000888 <i2c1_read_with_stop+0x38>
 800089e:	2020      	movs	r0, #32
 80008a0:	9900      	ldr	r1, [sp, #0]
 80008a2:	f7ff ff77 	bl	8000794 <i2c1_wait_flag.constprop.0>
 80008a6:	2800      	cmp	r0, #0
 80008a8:	d0dd      	beq.n	8000866 <i2c1_read_with_stop+0x16>
 80008aa:	2320      	movs	r3, #32
 80008ac:	61fb      	str	r3, [r7, #28]
 80008ae:	e7db      	b.n	8000868 <i2c1_read_with_stop+0x18>
 80008b0:	20000000 	.word	0x20000000
 80008b4:	40005400 	.word	0x40005400
 80008b8:	02002400 	.word	0x02002400

080008bc <pin_mask_to_index.constprop.0>:
 80008bc:	0002      	movs	r2, r0
 80008be:	b530      	push	{r4, r5, lr}
 80008c0:	2800      	cmp	r0, #0
 80008c2:	d010      	beq.n	80008e6 <pin_mask_to_index.constprop.0+0x2a>
 80008c4:	2801      	cmp	r0, #1
 80008c6:	d00f      	beq.n	80008e8 <pin_mask_to_index.constprop.0+0x2c>
 80008c8:	2301      	movs	r3, #1
 80008ca:	001c      	movs	r4, r3
 80008cc:	2b10      	cmp	r3, #16
 80008ce:	d101      	bne.n	80008d4 <pin_mask_to_index.constprop.0+0x18>
 80008d0:	2000      	movs	r0, #0
 80008d2:	e008      	b.n	80008e6 <pin_mask_to_index.constprop.0+0x2a>
 80008d4:	0020      	movs	r0, r4
 80008d6:	4098      	lsls	r0, r3
 80008d8:	b280      	uxth	r0, r0
 80008da:	1c5d      	adds	r5, r3, #1
 80008dc:	4282      	cmp	r2, r0
 80008de:	d105      	bne.n	80008ec <pin_mask_to_index.constprop.0+0x30>
 80008e0:	b2db      	uxtb	r3, r3
 80008e2:	2001      	movs	r0, #1
 80008e4:	700b      	strb	r3, [r1, #0]
 80008e6:	bd30      	pop	{r4, r5, pc}
 80008e8:	2300      	movs	r3, #0
 80008ea:	e7fa      	b.n	80008e2 <pin_mask_to_index.constprop.0+0x26>
 80008ec:	002b      	movs	r3, r5
 80008ee:	e7ed      	b.n	80008cc <pin_mask_to_index.constprop.0+0x10>

080008f0 <command_send_err.constprop.0>:
 80008f0:	2200      	movs	r2, #0
 80008f2:	b510      	push	{r4, lr}
 80008f4:	0011      	movs	r1, r2
 80008f6:	2081      	movs	r0, #129	@ 0x81
 80008f8:	f7ff fe34 	bl	8000564 <command_send_status>
 80008fc:	bd10      	pop	{r4, pc}
	...

08000900 <tim2_stop_pwm_channel>:
 8000900:	b510      	push	{r4, lr}
 8000902:	0004      	movs	r4, r0
 8000904:	280c      	cmp	r0, #12
 8000906:	d80b      	bhi.n	8000920 <tim2_stop_pwm_channel+0x20>
 8000908:	4b09      	ldr	r3, [pc, #36]	@ (8000930 <tim2_stop_pwm_channel+0x30>)
 800090a:	0042      	lsls	r2, r0, #1
 800090c:	5ad3      	ldrh	r3, [r2, r3]
 800090e:	2b00      	cmp	r3, #0
 8000910:	d006      	beq.n	8000920 <tim2_stop_pwm_channel+0x20>
 8000912:	2180      	movs	r1, #128	@ 0x80
 8000914:	43db      	mvns	r3, r3
 8000916:	05c9      	lsls	r1, r1, #23
 8000918:	6a0a      	ldr	r2, [r1, #32]
 800091a:	b29b      	uxth	r3, r3
 800091c:	4013      	ands	r3, r2
 800091e:	620b      	str	r3, [r1, #32]
 8000920:	0020      	movs	r0, r4
 8000922:	f7ff fe71 	bl	8000608 <stopPWM_TIM2>
 8000926:	0021      	movs	r1, r4
 8000928:	4802      	ldr	r0, [pc, #8]	@ (8000934 <tim2_stop_pwm_channel+0x34>)
 800092a:	f003 fd55 	bl	80043d8 <HAL_TIM_PWM_Stop>
 800092e:	bd10      	pop	{r4, pc}
 8000930:	08005fde 	.word	0x08005fde
 8000934:	200003ac 	.word	0x200003ac

08000938 <get_device_name>:
 8000938:	b530      	push	{r4, r5, lr}
 800093a:	4c0a      	ldr	r4, [pc, #40]	@ (8000964 <get_device_name+0x2c>)
 800093c:	2300      	movs	r3, #0
 800093e:	7822      	ldrb	r2, [r4, #0]
 8000940:	3901      	subs	r1, #1
 8000942:	2aff      	cmp	r2, #255	@ 0xff
 8000944:	d108      	bne.n	8000958 <get_device_name+0x20>
 8000946:	7003      	strb	r3, [r0, #0]
 8000948:	bd30      	pop	{r4, r5, pc}
 800094a:	5ce5      	ldrb	r5, [r4, r3]
 800094c:	1e6a      	subs	r2, r5, #1
 800094e:	b2d2      	uxtb	r2, r2
 8000950:	2afd      	cmp	r2, #253	@ 0xfd
 8000952:	d803      	bhi.n	800095c <get_device_name+0x24>
 8000954:	54c5      	strb	r5, [r0, r3]
 8000956:	3301      	adds	r3, #1
 8000958:	428b      	cmp	r3, r1
 800095a:	d3f6      	bcc.n	800094a <get_device_name+0x12>
 800095c:	2200      	movs	r2, #0
 800095e:	54c2      	strb	r2, [r0, r3]
 8000960:	e7f2      	b.n	8000948 <get_device_name+0x10>
 8000962:	46c0      	nop			@ (mov r8, r8)
 8000964:	08007c00 	.word	0x08007c00

08000968 <EMW_TIM3_Tick_ISR>:
 8000968:	b5f8      	push	{r3, r4, r5, r6, r7, lr}
 800096a:	4b53      	ldr	r3, [pc, #332]	@ (8000ab8 <EMW_TIM3_Tick_ISR+0x150>)
 800096c:	781b      	ldrb	r3, [r3, #0]
 800096e:	b2de      	uxtb	r6, r3
 8000970:	2b01      	cmp	r3, #1
 8000972:	d146      	bne.n	8000a02 <EMW_TIM3_Tick_ISR+0x9a>
 8000974:	f004 ffa4 	bl	80058c0 <MIDI_GetRxBufferBytesAvailable_FS>
 8000978:	4c50      	ldr	r4, [pc, #320]	@ (8000abc <EMW_TIM3_Tick_ISR+0x154>)
 800097a:	4d51      	ldr	r5, [pc, #324]	@ (8000ac0 <EMW_TIM3_Tick_ISR+0x158>)
 800097c:	2800      	cmp	r0, #0
 800097e:	d032      	beq.n	80009e6 <EMW_TIM3_Tick_ISR+0x7e>
 8000980:	7823      	ldrb	r3, [r4, #0]
 8000982:	4f50      	ldr	r7, [pc, #320]	@ (8000ac4 <EMW_TIM3_Tick_ISR+0x15c>)
 8000984:	2b00      	cmp	r3, #0
 8000986:	d103      	bne.n	8000990 <EMW_TIM3_Tick_ISR+0x28>
 8000988:	0031      	movs	r1, r6
 800098a:	0038      	movs	r0, r7
 800098c:	f005 f852 	bl	8005a34 <MIDI_ReadRxBuffer_FS>
 8000990:	783b      	ldrb	r3, [r7, #0]
 8000992:	7822      	ldrb	r2, [r4, #0]
 8000994:	4113      	asrs	r3, r2
 8000996:	2201      	movs	r2, #1
 8000998:	0019      	movs	r1, r3
 800099a:	4011      	ands	r1, r2
 800099c:	4213      	tst	r3, r2
 800099e:	d014      	beq.n	80009ca <EMW_TIM3_Tick_ISR+0x62>
 80009a0:	782b      	ldrb	r3, [r5, #0]
 80009a2:	2b00      	cmp	r3, #0
 80009a4:	d107      	bne.n	80009b6 <EMW_TIM3_Tick_ISR+0x4e>
 80009a6:	2180      	movs	r1, #128	@ 0x80
 80009a8:	4b47      	ldr	r3, [pc, #284]	@ (8000ac8 <EMW_TIM3_Tick_ISR+0x160>)
 80009aa:	05c9      	lsls	r1, r1, #23
 80009ac:	881b      	ldrh	r3, [r3, #0]
 80009ae:	6a08      	ldr	r0, [r1, #32]
 80009b0:	4303      	orrs	r3, r0
 80009b2:	620b      	str	r3, [r1, #32]
 80009b4:	702a      	strb	r2, [r5, #0]
 80009b6:	7823      	ldrb	r3, [r4, #0]
 80009b8:	3301      	adds	r3, #1
 80009ba:	b2db      	uxtb	r3, r3
 80009bc:	7023      	strb	r3, [r4, #0]
 80009be:	7823      	ldrb	r3, [r4, #0]
 80009c0:	2b07      	cmp	r3, #7
 80009c2:	d901      	bls.n	80009c8 <EMW_TIM3_Tick_ISR+0x60>
 80009c4:	2300      	movs	r3, #0
 80009c6:	7023      	strb	r3, [r4, #0]
 80009c8:	bdf8      	pop	{r3, r4, r5, r6, r7, pc}
 80009ca:	782b      	ldrb	r3, [r5, #0]
 80009cc:	2b00      	cmp	r3, #0
 80009ce:	d0f2      	beq.n	80009b6 <EMW_TIM3_Tick_ISR+0x4e>
 80009d0:	4b3d      	ldr	r3, [pc, #244]	@ (8000ac8 <EMW_TIM3_Tick_ISR+0x160>)
 80009d2:	2080      	movs	r0, #128	@ 0x80
 80009d4:	881b      	ldrh	r3, [r3, #0]
 80009d6:	05c0      	lsls	r0, r0, #23
 80009d8:	43db      	mvns	r3, r3
 80009da:	6a02      	ldr	r2, [r0, #32]
 80009dc:	b29b      	uxth	r3, r3
 80009de:	4013      	ands	r3, r2
 80009e0:	6203      	str	r3, [r0, #32]
 80009e2:	7029      	strb	r1, [r5, #0]
 80009e4:	e7e7      	b.n	80009b6 <EMW_TIM3_Tick_ISR+0x4e>
 80009e6:	782b      	ldrb	r3, [r5, #0]
 80009e8:	2b00      	cmp	r3, #0
 80009ea:	d0eb      	beq.n	80009c4 <EMW_TIM3_Tick_ISR+0x5c>
 80009ec:	4b36      	ldr	r3, [pc, #216]	@ (8000ac8 <EMW_TIM3_Tick_ISR+0x160>)
 80009ee:	2180      	movs	r1, #128	@ 0x80
 80009f0:	881b      	ldrh	r3, [r3, #0]
 80009f2:	05c9      	lsls	r1, r1, #23
 80009f4:	43db      	mvns	r3, r3
 80009f6:	6a0a      	ldr	r2, [r1, #32]
 80009f8:	b29b      	uxth	r3, r3
 80009fa:	4013      	ands	r3, r2
 80009fc:	620b      	str	r3, [r1, #32]
 80009fe:	7028      	strb	r0, [r5, #0]
 8000a00:	e7e0      	b.n	80009c4 <EMW_TIM3_Tick_ISR+0x5c>
 8000a02:	2e02      	cmp	r6, #2
 8000a04:	d1e0      	bne.n	80009c8 <EMW_TIM3_Tick_ISR+0x60>
 8000a06:	4b31      	ldr	r3, [pc, #196]	@ (8000acc <EMW_TIM3_Tick_ISR+0x164>)
 8000a08:	781b      	ldrb	r3, [r3, #0]
 8000a0a:	b2d9      	uxtb	r1, r3
 8000a0c:	2b01      	cmp	r3, #1
 8000a0e:	d1db      	bne.n	80009c8 <EMW_TIM3_Tick_ISR+0x60>
 8000a10:	4b2f      	ldr	r3, [pc, #188]	@ (8000ad0 <EMW_TIM3_Tick_ISR+0x168>)
 8000a12:	681b      	ldr	r3, [r3, #0]
 8000a14:	6918      	ldr	r0, [r3, #16]
 8000a16:	4b2f      	ldr	r3, [pc, #188]	@ (8000ad4 <EMW_TIM3_Tick_ISR+0x16c>)
 8000a18:	881a      	ldrh	r2, [r3, #0]
 8000a1a:	4b2f      	ldr	r3, [pc, #188]	@ (8000ad8 <EMW_TIM3_Tick_ISR+0x170>)
 8000a1c:	4210      	tst	r0, r2
 8000a1e:	d006      	beq.n	8000a2e <EMW_TIM3_Tick_ISR+0xc6>
 8000a20:	781c      	ldrb	r4, [r3, #0]
 8000a22:	482e      	ldr	r0, [pc, #184]	@ (8000adc <EMW_TIM3_Tick_ISR+0x174>)
 8000a24:	40a1      	lsls	r1, r4
 8000a26:	7802      	ldrb	r2, [r0, #0]
 8000a28:	430a      	orrs	r2, r1
 8000a2a:	b2d2      	uxtb	r2, r2
 8000a2c:	7002      	strb	r2, [r0, #0]
 8000a2e:	781a      	ldrb	r2, [r3, #0]
 8000a30:	3201      	adds	r2, #1
 8000a32:	b2d2      	uxtb	r2, r2
 8000a34:	701a      	strb	r2, [r3, #0]
 8000a36:	781a      	ldrb	r2, [r3, #0]
 8000a38:	2a07      	cmp	r2, #7
 8000a3a:	d9c5      	bls.n	80009c8 <EMW_TIM3_Tick_ISR+0x60>
 8000a3c:	2200      	movs	r2, #0
 8000a3e:	701a      	strb	r2, [r3, #0]
 8000a40:	4a27      	ldr	r2, [pc, #156]	@ (8000ae0 <EMW_TIM3_Tick_ISR+0x178>)
 8000a42:	4b28      	ldr	r3, [pc, #160]	@ (8000ae4 <EMW_TIM3_Tick_ISR+0x17c>)
 8000a44:	7811      	ldrb	r1, [r2, #0]
 8000a46:	2900      	cmp	r1, #0
 8000a48:	d105      	bne.n	8000a56 <EMW_TIM3_Tick_ISR+0xee>
 8000a4a:	4b27      	ldr	r3, [pc, #156]	@ (8000ae8 <EMW_TIM3_Tick_ISR+0x180>)
 8000a4c:	7819      	ldrb	r1, [r3, #0]
 8000a4e:	2312      	movs	r3, #18
 8000a50:	434b      	muls	r3, r1
 8000a52:	4926      	ldr	r1, [pc, #152]	@ (8000aec <EMW_TIM3_Tick_ISR+0x184>)
 8000a54:	185b      	adds	r3, r3, r1
 8000a56:	4926      	ldr	r1, [pc, #152]	@ (8000af0 <EMW_TIM3_Tick_ISR+0x188>)
 8000a58:	4c20      	ldr	r4, [pc, #128]	@ (8000adc <EMW_TIM3_Tick_ISR+0x174>)
 8000a5a:	7808      	ldrb	r0, [r1, #0]
 8000a5c:	7825      	ldrb	r5, [r4, #0]
 8000a5e:	541d      	strb	r5, [r3, r0]
 8000a60:	2000      	movs	r0, #0
 8000a62:	7020      	strb	r0, [r4, #0]
 8000a64:	780b      	ldrb	r3, [r1, #0]
 8000a66:	3301      	adds	r3, #1
 8000a68:	b2db      	uxtb	r3, r3
 8000a6a:	700b      	strb	r3, [r1, #0]
 8000a6c:	780b      	ldrb	r3, [r1, #0]
 8000a6e:	2b11      	cmp	r3, #17
 8000a70:	d9aa      	bls.n	80009c8 <EMW_TIM3_Tick_ISR+0x60>
 8000a72:	7008      	strb	r0, [r1, #0]
 8000a74:	7813      	ldrb	r3, [r2, #0]
 8000a76:	491f      	ldr	r1, [pc, #124]	@ (8000af4 <EMW_TIM3_Tick_ISR+0x18c>)
 8000a78:	4283      	cmp	r3, r0
 8000a7a:	d004      	beq.n	8000a86 <EMW_TIM3_Tick_ISR+0x11e>
 8000a7c:	780b      	ldrb	r3, [r1, #0]
 8000a7e:	2b0f      	cmp	r3, #15
 8000a80:	d8a2      	bhi.n	80009c8 <EMW_TIM3_Tick_ISR+0x60>
 8000a82:	7010      	strb	r0, [r2, #0]
 8000a84:	e7a0      	b.n	80009c8 <EMW_TIM3_Tick_ISR+0x60>
 8000a86:	7808      	ldrb	r0, [r1, #0]
 8000a88:	b2c3      	uxtb	r3, r0
 8000a8a:	280f      	cmp	r0, #15
 8000a8c:	d906      	bls.n	8000a9c <EMW_TIM3_Tick_ISR+0x134>
 8000a8e:	491a      	ldr	r1, [pc, #104]	@ (8000af8 <EMW_TIM3_Tick_ISR+0x190>)
 8000a90:	680b      	ldr	r3, [r1, #0]
 8000a92:	3301      	adds	r3, #1
 8000a94:	600b      	str	r3, [r1, #0]
 8000a96:	2301      	movs	r3, #1
 8000a98:	7013      	strb	r3, [r2, #0]
 8000a9a:	e795      	b.n	80009c8 <EMW_TIM3_Tick_ISR+0x60>
 8000a9c:	240f      	movs	r4, #15
 8000a9e:	3301      	adds	r3, #1
 8000aa0:	4811      	ldr	r0, [pc, #68]	@ (8000ae8 <EMW_TIM3_Tick_ISR+0x180>)
 8000aa2:	b2db      	uxtb	r3, r3
 8000aa4:	700b      	strb	r3, [r1, #0]
 8000aa6:	7803      	ldrb	r3, [r0, #0]
 8000aa8:	3301      	adds	r3, #1
 8000aaa:	4023      	ands	r3, r4
 8000aac:	7003      	strb	r3, [r0, #0]
 8000aae:	780b      	ldrb	r3, [r1, #0]
 8000ab0:	42a3      	cmp	r3, r4
 8000ab2:	d800      	bhi.n	8000ab6 <EMW_TIM3_Tick_ISR+0x14e>
 8000ab4:	e788      	b.n	80009c8 <EMW_TIM3_Tick_ISR+0x60>
 8000ab6:	e7ee      	b.n	8000a96 <EMW_TIM3_Tick_ISR+0x12e>
 8000ab8:	2000020c 	.word	0x2000020c
 8000abc:	2000020f 	.word	0x2000020f
 8000ac0:	2000020d 	.word	0x2000020d
 8000ac4:	2000020e 	.word	0x2000020e
 8000ac8:	2000000a 	.word	0x2000000a
 8000acc:	2000020b 	.word	0x2000020b
 8000ad0:	20000014 	.word	0x20000014
 8000ad4:	20000010 	.word	0x20000010
 8000ad8:	20000212 	.word	0x20000212
 8000adc:	20000210 	.word	0x20000210
 8000ae0:	20000218 	.word	0x20000218
 8000ae4:	2000021c 	.word	0x2000021c
 8000ae8:	2000021b 	.word	0x2000021b
 8000aec:	2000022e 	.word	0x2000022e
 8000af0:	20000211 	.word	0x20000211
 8000af4:	20000219 	.word	0x20000219
 8000af8:	20000214 	.word	0x20000214

08000afc <SystemClock_Config>:
 8000afc:	b510      	push	{r4, lr}
 8000afe:	b098      	sub	sp, #96	@ 0x60
 8000b00:	2230      	movs	r2, #48	@ 0x30
 8000b02:	2100      	movs	r1, #0
 8000b04:	a80c      	add	r0, sp, #48	@ 0x30
 8000b06:	f005 fa16 	bl	8005f36 <memset>
 8000b0a:	2210      	movs	r2, #16
 8000b0c:	2100      	movs	r1, #0
 8000b0e:	a801      	add	r0, sp, #4
 8000b10:	f005 fa11 	bl	8005f36 <memset>
 8000b14:	2218      	movs	r2, #24
 8000b16:	2100      	movs	r1, #0
 8000b18:	a805      	add	r0, sp, #20
 8000b1a:	f005 fa0c 	bl	8005f36 <memset>
 8000b1e:	2401      	movs	r4, #1
 8000b20:	2320      	movs	r3, #32
 8000b22:	a80b      	add	r0, sp, #44	@ 0x2c
 8000b24:	930b      	str	r3, [sp, #44]	@ 0x2c
 8000b26:	9413      	str	r4, [sp, #76]	@ 0x4c
 8000b28:	f002 facc 	bl	80030c4 <HAL_RCC_OscConfig>
 8000b2c:	2800      	cmp	r0, #0
 8000b2e:	d001      	beq.n	8000b34 <SystemClock_Config+0x38>
 8000b30:	b672      	cpsid	i
 8000b32:	e7fe      	b.n	8000b32 <SystemClock_Config+0x36>
 8000b34:	2307      	movs	r3, #7
 8000b36:	9003      	str	r0, [sp, #12]
 8000b38:	9301      	str	r3, [sp, #4]
 8000b3a:	9004      	str	r0, [sp, #16]
 8000b3c:	3b04      	subs	r3, #4
 8000b3e:	0021      	movs	r1, r4
 8000b40:	a801      	add	r0, sp, #4
 8000b42:	9302      	str	r3, [sp, #8]
 8000b44:	f002 fd44 	bl	80035d0 <HAL_RCC_ClockConfig>
 8000b48:	2800      	cmp	r0, #0
 8000b4a:	d001      	beq.n	8000b50 <SystemClock_Config+0x54>
 8000b4c:	b672      	cpsid	i
 8000b4e:	e7fe      	b.n	8000b4e <SystemClock_Config+0x52>
 8000b50:	2380      	movs	r3, #128	@ 0x80
 8000b52:	900a      	str	r0, [sp, #40]	@ 0x28
 8000b54:	029b      	lsls	r3, r3, #10
 8000b56:	a805      	add	r0, sp, #20
 8000b58:	9305      	str	r3, [sp, #20]
 8000b5a:	f002 fdc9 	bl	80036f0 <HAL_RCCEx_PeriphCLKConfig>
 8000b5e:	2800      	cmp	r0, #0
 8000b60:	d001      	beq.n	8000b66 <SystemClock_Config+0x6a>
 8000b62:	b672      	cpsid	i
 8000b64:	e7fe      	b.n	8000b64 <SystemClock_Config+0x68>
 8000b66:	b018      	add	sp, #96	@ 0x60
 8000b68:	bd10      	pop	{r4, pc}
	...

08000b6c <main>:
 8000b6c:	b5f0      	push	{r4, r5, r6, r7, lr}
 8000b6e:	b0b1      	sub	sp, #196	@ 0xc4
 8000b70:	f001 f948 	bl	8001e04 <HAL_Init>
 8000b74:	f7ff ffc2 	bl	8000afc <SystemClock_Config>
 8000b78:	2214      	movs	r2, #20
 8000b7a:	2100      	movs	r1, #0
 8000b7c:	a820      	add	r0, sp, #128	@ 0x80
 8000b7e:	f005 f9da 	bl	8005f36 <memset>
 8000b82:	2280      	movs	r2, #128	@ 0x80
 8000b84:	49ca      	ldr	r1, [pc, #808]	@ (8000eb0 <main+0x344>)
 8000b86:	0292      	lsls	r2, r2, #10
 8000b88:	694b      	ldr	r3, [r1, #20]
 8000b8a:	48ca      	ldr	r0, [pc, #808]	@ (8000eb4 <main+0x348>)
 8000b8c:	4313      	orrs	r3, r2
 8000b8e:	614b      	str	r3, [r1, #20]
 8000b90:	694b      	ldr	r3, [r1, #20]
 8000b92:	2500      	movs	r5, #0
 8000b94:	4013      	ands	r3, r2
 8000b96:	2280      	movs	r2, #128	@ 0x80
 8000b98:	9308      	str	r3, [sp, #32]
 8000b9a:	9b08      	ldr	r3, [sp, #32]
 8000b9c:	694b      	ldr	r3, [r1, #20]
 8000b9e:	02d2      	lsls	r2, r2, #11
 8000ba0:	4313      	orrs	r3, r2
 8000ba2:	614b      	str	r3, [r1, #20]
 8000ba4:	694b      	ldr	r3, [r1, #20]
 8000ba6:	2101      	movs	r1, #1
 8000ba8:	4013      	ands	r3, r2
 8000baa:	9309      	str	r3, [sp, #36]	@ 0x24
 8000bac:	2200      	movs	r2, #0
 8000bae:	9b09      	ldr	r3, [sp, #36]	@ 0x24
 8000bb0:	f001 fbe6 	bl	8002380 <HAL_GPIO_WritePin>
 8000bb4:	2090      	movs	r0, #144	@ 0x90
 8000bb6:	2201      	movs	r2, #1
 8000bb8:	2110      	movs	r1, #16
 8000bba:	05c0      	lsls	r0, r0, #23
 8000bbc:	f001 fbe0 	bl	8002380 <HAL_GPIO_WritePin>
 8000bc0:	2090      	movs	r0, #144	@ 0x90
 8000bc2:	2302      	movs	r3, #2
 8000bc4:	a920      	add	r1, sp, #128	@ 0x80
 8000bc6:	05c0      	lsls	r0, r0, #23
 8000bc8:	9320      	str	r3, [sp, #128]	@ 0x80
 8000bca:	9521      	str	r5, [sp, #132]	@ 0x84
 8000bcc:	9522      	str	r5, [sp, #136]	@ 0x88
 8000bce:	f001 fab7 	bl	8002140 <HAL_GPIO_Init>
 8000bd2:	2090      	movs	r0, #144	@ 0x90
 8000bd4:	2303      	movs	r3, #3
 8000bd6:	2401      	movs	r4, #1
 8000bd8:	2610      	movs	r6, #16
 8000bda:	a920      	add	r1, sp, #128	@ 0x80
 8000bdc:	05c0      	lsls	r0, r0, #23
 8000bde:	9323      	str	r3, [sp, #140]	@ 0x8c
 8000be0:	9421      	str	r4, [sp, #132]	@ 0x84
 8000be2:	9620      	str	r6, [sp, #128]	@ 0x80
 8000be4:	9522      	str	r5, [sp, #136]	@ 0x88
 8000be6:	f001 faab 	bl	8002140 <HAL_GPIO_Init>
 8000bea:	48b2      	ldr	r0, [pc, #712]	@ (8000eb4 <main+0x348>)
 8000bec:	a920      	add	r1, sp, #128	@ 0x80
 8000bee:	9420      	str	r4, [sp, #128]	@ 0x80
 8000bf0:	9421      	str	r4, [sp, #132]	@ 0x84
 8000bf2:	9522      	str	r5, [sp, #136]	@ 0x88
 8000bf4:	9523      	str	r5, [sp, #140]	@ 0x8c
 8000bf6:	f001 faa3 	bl	8002140 <HAL_GPIO_Init>
 8000bfa:	0032      	movs	r2, r6
 8000bfc:	0029      	movs	r1, r5
 8000bfe:	a810      	add	r0, sp, #64	@ 0x40
 8000c00:	f005 f999 	bl	8005f36 <memset>
 8000c04:	2208      	movs	r2, #8
 8000c06:	0029      	movs	r1, r5
 8000c08:	a80e      	add	r0, sp, #56	@ 0x38
 8000c0a:	f005 f994 	bl	8005f36 <memset>
 8000c0e:	221c      	movs	r2, #28
 8000c10:	0029      	movs	r1, r5
 8000c12:	a820      	add	r0, sp, #128	@ 0x80
 8000c14:	f005 f98f 	bl	8005f36 <memset>
 8000c18:	2380      	movs	r3, #128	@ 0x80
 8000c1a:	4ca7      	ldr	r4, [pc, #668]	@ (8000eb8 <main+0x34c>)
 8000c1c:	05db      	lsls	r3, r3, #23
 8000c1e:	6023      	str	r3, [r4, #0]
 8000c20:	4ba6      	ldr	r3, [pc, #664]	@ (8000ebc <main+0x350>)
 8000c22:	0020      	movs	r0, r4
 8000c24:	6065      	str	r5, [r4, #4]
 8000c26:	60a5      	str	r5, [r4, #8]
 8000c28:	60e3      	str	r3, [r4, #12]
 8000c2a:	6125      	str	r5, [r4, #16]
 8000c2c:	61a5      	str	r5, [r4, #24]
 8000c2e:	f003 f993 	bl	8003f58 <HAL_TIM_Base_Init>
 8000c32:	42a8      	cmp	r0, r5
 8000c34:	d001      	beq.n	8000c3a <main+0xce>
 8000c36:	b672      	cpsid	i
 8000c38:	e7fe      	b.n	8000c38 <main+0xcc>
 8000c3a:	2380      	movs	r3, #128	@ 0x80
 8000c3c:	0020      	movs	r0, r4
 8000c3e:	015b      	lsls	r3, r3, #5
 8000c40:	a910      	add	r1, sp, #64	@ 0x40
 8000c42:	9310      	str	r3, [sp, #64]	@ 0x40
 8000c44:	f003 fa80 	bl	8004148 <HAL_TIM_ConfigClockSource>
 8000c48:	2800      	cmp	r0, #0
 8000c4a:	d001      	beq.n	8000c50 <main+0xe4>
 8000c4c:	b672      	cpsid	i
 8000c4e:	e7fe      	b.n	8000c4e <main+0xe2>
 8000c50:	0020      	movs	r0, r4
 8000c52:	f003 f9a9 	bl	8003fa8 <HAL_TIM_PWM_Init>
 8000c56:	2800      	cmp	r0, #0
 8000c58:	d001      	beq.n	8000c5e <main+0xf2>
 8000c5a:	b672      	cpsid	i
 8000c5c:	e7fe      	b.n	8000c5c <main+0xf0>
 8000c5e:	900e      	str	r0, [sp, #56]	@ 0x38
 8000c60:	900f      	str	r0, [sp, #60]	@ 0x3c
 8000c62:	a90e      	add	r1, sp, #56	@ 0x38
 8000c64:	0020      	movs	r0, r4
 8000c66:	f003 fbbb 	bl	80043e0 <HAL_TIMEx_MasterConfigSynchronization>
 8000c6a:	2800      	cmp	r0, #0
 8000c6c:	d001      	beq.n	8000c72 <main+0x106>
 8000c6e:	b672      	cpsid	i
 8000c70:	e7fe      	b.n	8000c70 <main+0x104>
 8000c72:	2360      	movs	r3, #96	@ 0x60
 8000c74:	9320      	str	r3, [sp, #128]	@ 0x80
 8000c76:	4b92      	ldr	r3, [pc, #584]	@ (8000ec0 <main+0x354>)
 8000c78:	2208      	movs	r2, #8
 8000c7a:	9022      	str	r0, [sp, #136]	@ 0x88
 8000c7c:	9024      	str	r0, [sp, #144]	@ 0x90
 8000c7e:	a920      	add	r1, sp, #128	@ 0x80
 8000c80:	0020      	movs	r0, r4
 8000c82:	9321      	str	r3, [sp, #132]	@ 0x84
 8000c84:	f003 f9f4 	bl	8004070 <HAL_TIM_PWM_ConfigChannel>
 8000c88:	1e02      	subs	r2, r0, #0
 8000c8a:	d001      	beq.n	8000c90 <main+0x124>
 8000c8c:	b672      	cpsid	i
 8000c8e:	e7fe      	b.n	8000c8e <main+0x122>
 8000c90:	0020      	movs	r0, r4
 8000c92:	a920      	add	r1, sp, #128	@ 0x80
 8000c94:	f003 f9ec 	bl	8004070 <HAL_TIM_PWM_ConfigChannel>
 8000c98:	2800      	cmp	r0, #0
 8000c9a:	d001      	beq.n	8000ca0 <main+0x134>
 8000c9c:	b672      	cpsid	i
 8000c9e:	e7fe      	b.n	8000c9e <main+0x132>
 8000ca0:	2204      	movs	r2, #4
 8000ca2:	0020      	movs	r0, r4
 8000ca4:	a920      	add	r1, sp, #128	@ 0x80
 8000ca6:	f003 f9e3 	bl	8004070 <HAL_TIM_PWM_ConfigChannel>
 8000caa:	2800      	cmp	r0, #0
 8000cac:	d001      	beq.n	8000cb2 <main+0x146>
 8000cae:	b672      	cpsid	i
 8000cb0:	e7fe      	b.n	8000cb0 <main+0x144>
 8000cb2:	2208      	movs	r2, #8
 8000cb4:	0020      	movs	r0, r4
 8000cb6:	a920      	add	r1, sp, #128	@ 0x80
 8000cb8:	f003 f9da 	bl	8004070 <HAL_TIM_PWM_ConfigChannel>
 8000cbc:	2800      	cmp	r0, #0
 8000cbe:	d001      	beq.n	8000cc4 <main+0x158>
 8000cc0:	b672      	cpsid	i
 8000cc2:	e7fe      	b.n	8000cc2 <main+0x156>
 8000cc4:	220c      	movs	r2, #12
 8000cc6:	0020      	movs	r0, r4
 8000cc8:	a920      	add	r1, sp, #128	@ 0x80
 8000cca:	f003 f9d1 	bl	8004070 <HAL_TIM_PWM_ConfigChannel>
 8000cce:	1e05      	subs	r5, r0, #0
 8000cd0:	d001      	beq.n	8000cd6 <main+0x16a>
 8000cd2:	b672      	cpsid	i
 8000cd4:	e7fe      	b.n	8000cd4 <main+0x168>
 8000cd6:	0020      	movs	r0, r4
 8000cd8:	f000 ffe6 	bl	8001ca8 <HAL_TIM_MspPostInit>
 8000cdc:	0032      	movs	r2, r6
 8000cde:	0029      	movs	r1, r5
 8000ce0:	a820      	add	r0, sp, #128	@ 0x80
 8000ce2:	f005 f928 	bl	8005f36 <memset>
 8000ce6:	2208      	movs	r2, #8
 8000ce8:	0029      	movs	r1, r5
 8000cea:	a810      	add	r0, sp, #64	@ 0x40
 8000cec:	f005 f923 	bl	8005f36 <memset>
 8000cf0:	4c74      	ldr	r4, [pc, #464]	@ (8000ec4 <main+0x358>)
 8000cf2:	4b75      	ldr	r3, [pc, #468]	@ (8000ec8 <main+0x35c>)
 8000cf4:	0020      	movs	r0, r4
 8000cf6:	6023      	str	r3, [r4, #0]
 8000cf8:	232f      	movs	r3, #47	@ 0x2f
 8000cfa:	6063      	str	r3, [r4, #4]
 8000cfc:	4b73      	ldr	r3, [pc, #460]	@ (8000ecc <main+0x360>)
 8000cfe:	60a5      	str	r5, [r4, #8]
 8000d00:	60e3      	str	r3, [r4, #12]
 8000d02:	6125      	str	r5, [r4, #16]
 8000d04:	6165      	str	r5, [r4, #20]
 8000d06:	61a5      	str	r5, [r4, #24]
 8000d08:	f003 f926 	bl	8003f58 <HAL_TIM_Base_Init>
 8000d0c:	2800      	cmp	r0, #0
 8000d0e:	d001      	beq.n	8000d14 <main+0x1a8>
 8000d10:	b672      	cpsid	i
 8000d12:	e7fe      	b.n	8000d12 <main+0x1a6>
 8000d14:	2580      	movs	r5, #128	@ 0x80
 8000d16:	0020      	movs	r0, r4
 8000d18:	016d      	lsls	r5, r5, #5
 8000d1a:	a920      	add	r1, sp, #128	@ 0x80
 8000d1c:	9520      	str	r5, [sp, #128]	@ 0x80
 8000d1e:	f003 fa13 	bl	8004148 <HAL_TIM_ConfigClockSource>
 8000d22:	2800      	cmp	r0, #0
 8000d24:	d001      	beq.n	8000d2a <main+0x1be>
 8000d26:	b672      	cpsid	i
 8000d28:	e7fe      	b.n	8000d28 <main+0x1bc>
 8000d2a:	9010      	str	r0, [sp, #64]	@ 0x40
 8000d2c:	9011      	str	r0, [sp, #68]	@ 0x44
 8000d2e:	a910      	add	r1, sp, #64	@ 0x40
 8000d30:	0020      	movs	r0, r4
 8000d32:	f003 fb55 	bl	80043e0 <HAL_TIMEx_MasterConfigSynchronization>
 8000d36:	1e06      	subs	r6, r0, #0
 8000d38:	d001      	beq.n	8000d3e <main+0x1d2>
 8000d3a:	b672      	cpsid	i
 8000d3c:	e7fe      	b.n	8000d3c <main+0x1d0>
 8000d3e:	f004 fbf9 	bl	8005534 <MX_USB_DEVICE_Init>
 8000d42:	2210      	movs	r2, #16
 8000d44:	0031      	movs	r1, r6
 8000d46:	a820      	add	r0, sp, #128	@ 0x80
 8000d48:	f005 f8f5 	bl	8005f36 <memset>
 8000d4c:	2208      	movs	r2, #8
 8000d4e:	0031      	movs	r1, r6
 8000d50:	a810      	add	r0, sp, #64	@ 0x40
 8000d52:	f005 f8f0 	bl	8005f36 <memset>
 8000d56:	4c5e      	ldr	r4, [pc, #376]	@ (8000ed0 <main+0x364>)
 8000d58:	4b5e      	ldr	r3, [pc, #376]	@ (8000ed4 <main+0x368>)
 8000d5a:	0020      	movs	r0, r4
 8000d5c:	6023      	str	r3, [r4, #0]
 8000d5e:	23ef      	movs	r3, #239	@ 0xef
 8000d60:	6066      	str	r6, [r4, #4]
 8000d62:	60a6      	str	r6, [r4, #8]
 8000d64:	60e3      	str	r3, [r4, #12]
 8000d66:	6126      	str	r6, [r4, #16]
 8000d68:	61a6      	str	r6, [r4, #24]
 8000d6a:	f003 f8f5 	bl	8003f58 <HAL_TIM_Base_Init>
 8000d6e:	2800      	cmp	r0, #0
 8000d70:	d001      	beq.n	8000d76 <main+0x20a>
 8000d72:	b672      	cpsid	i
 8000d74:	e7fe      	b.n	8000d74 <main+0x208>
 8000d76:	0020      	movs	r0, r4
 8000d78:	a920      	add	r1, sp, #128	@ 0x80
 8000d7a:	9520      	str	r5, [sp, #128]	@ 0x80
 8000d7c:	f003 f9e4 	bl	8004148 <HAL_TIM_ConfigClockSource>
 8000d80:	2800      	cmp	r0, #0
 8000d82:	d001      	beq.n	8000d88 <main+0x21c>
 8000d84:	b672      	cpsid	i
 8000d86:	e7fe      	b.n	8000d86 <main+0x21a>
 8000d88:	9010      	str	r0, [sp, #64]	@ 0x40
 8000d8a:	9011      	str	r0, [sp, #68]	@ 0x44
 8000d8c:	a910      	add	r1, sp, #64	@ 0x40
 8000d8e:	0020      	movs	r0, r4
 8000d90:	f003 fb26 	bl	80043e0 <HAL_TIMEx_MasterConfigSynchronization>
 8000d94:	1e03      	subs	r3, r0, #0
 8000d96:	d001      	beq.n	8000d9c <main+0x230>
 8000d98:	b672      	cpsid	i
 8000d9a:	e7fe      	b.n	8000d9a <main+0x22e>
 8000d9c:	484e      	ldr	r0, [pc, #312]	@ (8000ed8 <main+0x36c>)
 8000d9e:	4a4f      	ldr	r2, [pc, #316]	@ (8000edc <main+0x370>)
 8000da0:	6083      	str	r3, [r0, #8]
 8000da2:	6002      	str	r2, [r0, #0]
 8000da4:	2282      	movs	r2, #130	@ 0x82
 8000da6:	0052      	lsls	r2, r2, #1
 8000da8:	6042      	str	r2, [r0, #4]
 8000daa:	22e0      	movs	r2, #224	@ 0xe0
 8000dac:	00d2      	lsls	r2, r2, #3
 8000dae:	60c2      	str	r2, [r0, #12]
 8000db0:	2280      	movs	r2, #128	@ 0x80
 8000db2:	0092      	lsls	r2, r2, #2
 8000db4:	6182      	str	r2, [r0, #24]
 8000db6:	3ad9      	subs	r2, #217	@ 0xd9
 8000db8:	3aff      	subs	r2, #255	@ 0xff
 8000dba:	61c2      	str	r2, [r0, #28]
 8000dbc:	3a21      	subs	r2, #33	@ 0x21
 8000dbe:	6103      	str	r3, [r0, #16]
 8000dc0:	6143      	str	r3, [r0, #20]
 8000dc2:	6203      	str	r3, [r0, #32]
 8000dc4:	6243      	str	r3, [r0, #36]	@ 0x24
 8000dc6:	6283      	str	r3, [r0, #40]	@ 0x28
 8000dc8:	62c2      	str	r2, [r0, #44]	@ 0x2c
 8000dca:	6303      	str	r3, [r0, #48]	@ 0x30
 8000dcc:	6343      	str	r3, [r0, #52]	@ 0x34
 8000dce:	f002 fe13 	bl	80039f8 <HAL_SPI_Init>
 8000dd2:	2800      	cmp	r0, #0
 8000dd4:	d100      	bne.n	8000dd8 <main+0x26c>
 8000dd6:	e0d4      	b.n	8000f82 <main+0x416>
 8000dd8:	b672      	cpsid	i
 8000dda:	e7fe      	b.n	8000dda <main+0x26e>
 8000ddc:	2850      	cmp	r0, #80	@ 0x50
 8000dde:	d101      	bne.n	8000de4 <main+0x278>
 8000de0:	f000 fc7f 	bl	80016e2 <main+0xb76>
 8000de4:	d80b      	bhi.n	8000dfe <main+0x292>
 8000de6:	2830      	cmp	r0, #48	@ 0x30
 8000de8:	d100      	bne.n	8000dec <main+0x280>
 8000dea:	e302      	b.n	80013f2 <main+0x886>
 8000dec:	2840      	cmp	r0, #64	@ 0x40
 8000dee:	d100      	bne.n	8000df2 <main+0x286>
 8000df0:	e3c4      	b.n	800157c <main+0xa10>
 8000df2:	2820      	cmp	r0, #32
 8000df4:	d100      	bne.n	8000df8 <main+0x28c>
 8000df6:	e1df      	b.n	80011b8 <main+0x64c>
 8000df8:	f7ff fd7a 	bl	80008f0 <command_send_err.constprop.0>
 8000dfc:	e0bf      	b.n	8000f7e <main+0x412>
 8000dfe:	2870      	cmp	r0, #112	@ 0x70
 8000e00:	d101      	bne.n	8000e06 <main+0x29a>
 8000e02:	f000 fcf7 	bl	80017f4 <main+0xc88>
 8000e06:	2880      	cmp	r0, #128	@ 0x80
 8000e08:	d101      	bne.n	8000e0e <main+0x2a2>
 8000e0a:	f000 fe18 	bl	8001a3e <main+0xed2>
 8000e0e:	2860      	cmp	r0, #96	@ 0x60
 8000e10:	d1f2      	bne.n	8000df8 <main+0x28c>
 8000e12:	7863      	ldrb	r3, [r4, #1]
 8000e14:	2b00      	cmp	r3, #0
 8000e16:	d001      	beq.n	8000e1c <main+0x2b0>
 8000e18:	f000 fccf 	bl	80017ba <main+0xc4e>
 8000e1c:	78a0      	ldrb	r0, [r4, #2]
 8000e1e:	78e6      	ldrb	r6, [r4, #3]
 8000e20:	281f      	cmp	r0, #31
 8000e22:	d8e9      	bhi.n	8000df8 <main+0x28c>
 8000e24:	aa04      	add	r2, sp, #16
 8000e26:	8613      	strh	r3, [r2, #48]	@ 0x30
 8000e28:	a920      	add	r1, sp, #128	@ 0x80
 8000e2a:	aa10      	add	r2, sp, #64	@ 0x40
 8000e2c:	9320      	str	r3, [sp, #128]	@ 0x80
 8000e2e:	f7ff fc99 	bl	8000764 <decode_encoded_pin.part.0.constprop.0>
 8000e32:	2800      	cmp	r0, #0
 8000e34:	d0e0      	beq.n	8000df8 <main+0x28c>
 8000e36:	2290      	movs	r2, #144	@ 0x90
 8000e38:	9d20      	ldr	r5, [sp, #128]	@ 0x80
 8000e3a:	ab04      	add	r3, sp, #16
 8000e3c:	8e1c      	ldrh	r4, [r3, #48]	@ 0x30
 8000e3e:	05d2      	lsls	r2, r2, #23
 8000e40:	2302      	movs	r3, #2
 8000e42:	4295      	cmp	r5, r2
 8000e44:	d103      	bne.n	8000e4e <main+0x2e2>
 8000e46:	1ea3      	subs	r3, r4, #2
 8000e48:	1e5a      	subs	r2, r3, #1
 8000e4a:	4193      	sbcs	r3, r2
 8000e4c:	005b      	lsls	r3, r3, #1
 8000e4e:	2200      	movs	r2, #0
 8000e50:	0021      	movs	r1, r4
 8000e52:	0028      	movs	r0, r5
 8000e54:	f7ff fc24 	bl	80006a0 <configurePin>
 8000e58:	4b21      	ldr	r3, [pc, #132]	@ (8000ee0 <main+0x374>)
 8000e5a:	601d      	str	r5, [r3, #0]
 8000e5c:	4b21      	ldr	r3, [pc, #132]	@ (8000ee4 <main+0x378>)
 8000e5e:	801c      	strh	r4, [r3, #0]
 8000e60:	2e00      	cmp	r6, #0
 8000e62:	d002      	beq.n	8000e6a <main+0x2fe>
 8000e64:	0030      	movs	r0, r6
 8000e66:	f7ff fa1b 	bl	80002a0 <tim3_set_tick_us>
 8000e6a:	b672      	cpsid	i
 8000e6c:	2400      	movs	r4, #0
 8000e6e:	4b1e      	ldr	r3, [pc, #120]	@ (8000ee8 <main+0x37c>)
 8000e70:	701c      	strb	r4, [r3, #0]
 8000e72:	4b1e      	ldr	r3, [pc, #120]	@ (8000eec <main+0x380>)
 8000e74:	701c      	strb	r4, [r3, #0]
 8000e76:	4b1e      	ldr	r3, [pc, #120]	@ (8000ef0 <main+0x384>)
 8000e78:	701c      	strb	r4, [r3, #0]
 8000e7a:	4b1e      	ldr	r3, [pc, #120]	@ (8000ef4 <main+0x388>)
 8000e7c:	701c      	strb	r4, [r3, #0]
 8000e7e:	4b1e      	ldr	r3, [pc, #120]	@ (8000ef8 <main+0x38c>)
 8000e80:	601c      	str	r4, [r3, #0]
 8000e82:	4b1e      	ldr	r3, [pc, #120]	@ (8000efc <main+0x390>)
 8000e84:	701c      	strb	r4, [r3, #0]
 8000e86:	4b1e      	ldr	r3, [pc, #120]	@ (8000f00 <main+0x394>)
 8000e88:	701c      	strb	r4, [r3, #0]
 8000e8a:	4b1e      	ldr	r3, [pc, #120]	@ (8000f04 <main+0x398>)
 8000e8c:	701c      	strb	r4, [r3, #0]
 8000e8e:	b662      	cpsie	i
 8000e90:	2002      	movs	r0, #2
 8000e92:	f004 fd09 	bl	80058a8 <MIDI_SetBufferType_FS>
 8000e96:	2301      	movs	r3, #1
 8000e98:	480d      	ldr	r0, [pc, #52]	@ (8000ed0 <main+0x364>)
 8000e9a:	703b      	strb	r3, [r7, #0]
 8000e9c:	f002 ffd6 	bl	8003e4c <HAL_TIM_Base_Start_IT>
 8000ea0:	e31b      	b.n	80014da <main+0x96e>
 8000ea2:	2301      	movs	r3, #1
 8000ea4:	2102      	movs	r1, #2
 8000ea6:	a820      	add	r0, sp, #128	@ 0x80
 8000ea8:	8003      	strh	r3, [r0, #0]
 8000eaa:	f7ff fba5 	bl	80005f8 <command_send_ok>
 8000eae:	e066      	b.n	8000f7e <main+0x412>
 8000eb0:	40021000 	.word	0x40021000
 8000eb4:	48000400 	.word	0x48000400
 8000eb8:	200003ac 	.word	0x200003ac
 8000ebc:	000004ee 	.word	0x000004ee
 8000ec0:	00000277 	.word	0x00000277
 8000ec4:	200003f4 	.word	0x200003f4
 8000ec8:	40012c00 	.word	0x40012c00
 8000ecc:	0000fffe 	.word	0x0000fffe
 8000ed0:	20000364 	.word	0x20000364
 8000ed4:	40000400 	.word	0x40000400
 8000ed8:	2000043c 	.word	0x2000043c
 8000edc:	40013000 	.word	0x40013000
 8000ee0:	20000014 	.word	0x20000014
 8000ee4:	20000010 	.word	0x20000010
 8000ee8:	2000021b 	.word	0x2000021b
 8000eec:	2000021a 	.word	0x2000021a
 8000ef0:	20000219 	.word	0x20000219
 8000ef4:	20000218 	.word	0x20000218
 8000ef8:	20000214 	.word	0x20000214
 8000efc:	20000212 	.word	0x20000212
 8000f00:	20000211 	.word	0x20000211
 8000f04:	20000210 	.word	0x20000210
 8000f08:	2100      	movs	r1, #0
 8000f0a:	0008      	movs	r0, r1
 8000f0c:	f7ff fb74 	bl	80005f8 <command_send_ok>
 8000f10:	f7ff f9b8 	bl	8000284 <midi_packet_consume>
 8000f14:	200a      	movs	r0, #10
 8000f16:	f000 ff97 	bl	8001e48 <HAL_Delay>
 8000f1a:	f3bf 8f4f 	dsb	sy
 8000f1e:	4bab      	ldr	r3, [pc, #684]	@ (80011cc <main+0x660>)
 8000f20:	4aab      	ldr	r2, [pc, #684]	@ (80011d0 <main+0x664>)
 8000f22:	60da      	str	r2, [r3, #12]
 8000f24:	f3bf 8f4f 	dsb	sy
 8000f28:	46c0      	nop			@ (mov r8, r8)
 8000f2a:	e7fd      	b.n	8000f28 <main+0x3bc>
 8000f2c:	2100      	movs	r1, #0
 8000f2e:	0008      	movs	r0, r1
 8000f30:	f7ff fb62 	bl	80005f8 <command_send_ok>
 8000f34:	f7ff f9a6 	bl	8000284 <midi_packet_consume>
 8000f38:	2005      	movs	r0, #5
 8000f3a:	f000 ff85 	bl	8001e48 <HAL_Delay>
 8000f3e:	f005 f83f 	bl	8005fc0 <__emw_enter_rom_dfu_by_erasing_flash_veneer>
 8000f42:	2121      	movs	r1, #33	@ 0x21
 8000f44:	a820      	add	r0, sp, #128	@ 0x80
 8000f46:	f7ff fcf7 	bl	8000938 <get_device_name>
 8000f4a:	a820      	add	r0, sp, #128	@ 0x80
 8000f4c:	f7ff f8dc 	bl	8000108 <strlen>
 8000f50:	0001      	movs	r1, r0
 8000f52:	a820      	add	r0, sp, #128	@ 0x80
 8000f54:	e7a9      	b.n	8000eaa <main+0x33e>
 8000f56:	7866      	ldrb	r6, [r4, #1]
 8000f58:	f000 fff6 	bl	8001f48 <HAL_FLASH_Unlock>
 8000f5c:	4a9d      	ldr	r2, [pc, #628]	@ (80011d4 <main+0x668>)
 8000f5e:	2300      	movs	r3, #0
 8000f60:	9221      	str	r2, [sp, #132]	@ 0x84
 8000f62:	2201      	movs	r2, #1
 8000f64:	a910      	add	r1, sp, #64	@ 0x40
 8000f66:	a820      	add	r0, sp, #128	@ 0x80
 8000f68:	9320      	str	r3, [sp, #128]	@ 0x80
 8000f6a:	9222      	str	r2, [sp, #136]	@ 0x88
 8000f6c:	9310      	str	r3, [sp, #64]	@ 0x40
 8000f6e:	f001 f89d 	bl	80020ac <HAL_FLASHEx_Erase>
 8000f72:	2800      	cmp	r0, #0
 8000f74:	d05a      	beq.n	800102c <main+0x4c0>
 8000f76:	f7ff fcbb 	bl	80008f0 <command_send_err.constprop.0>
 8000f7a:	f000 fff9 	bl	8001f70 <HAL_FLASH_Lock>
 8000f7e:	f7ff f981 	bl	8000284 <midi_packet_consume>
 8000f82:	4f95      	ldr	r7, [pc, #596]	@ (80011d8 <main+0x66c>)
 8000f84:	783b      	ldrb	r3, [r7, #0]
 8000f86:	2b01      	cmp	r3, #1
 8000f88:	d134      	bne.n	8000ff4 <main+0x488>
 8000f8a:	4d94      	ldr	r5, [pc, #592]	@ (80011dc <main+0x670>)
 8000f8c:	782b      	ldrb	r3, [r5, #0]
 8000f8e:	2b00      	cmp	r3, #0
 8000f90:	d030      	beq.n	8000ff4 <main+0x488>
 8000f92:	2312      	movs	r3, #18
 8000f94:	4e92      	ldr	r6, [pc, #584]	@ (80011e0 <main+0x674>)
 8000f96:	2224      	movs	r2, #36	@ 0x24
 8000f98:	7834      	ldrb	r4, [r6, #0]
 8000f9a:	2100      	movs	r1, #0
 8000f9c:	435c      	muls	r4, r3
 8000f9e:	4b91      	ldr	r3, [pc, #580]	@ (80011e4 <main+0x678>)
 8000fa0:	a820      	add	r0, sp, #128	@ 0x80
 8000fa2:	18e3      	adds	r3, r4, r3
 8000fa4:	9303      	str	r3, [sp, #12]
 8000fa6:	f004 ffc6 	bl	8005f36 <memset>
 8000faa:	4c8f      	ldr	r4, [pc, #572]	@ (80011e8 <main+0x67c>)
 8000fac:	7823      	ldrb	r3, [r4, #0]
 8000fae:	2b00      	cmp	r3, #0
 8000fb0:	d004      	beq.n	8000fbc <main+0x450>
 8000fb2:	2212      	movs	r2, #18
 8000fb4:	498d      	ldr	r1, [pc, #564]	@ (80011ec <main+0x680>)
 8000fb6:	a820      	add	r0, sp, #128	@ 0x80
 8000fb8:	f004 ffea 	bl	8005f90 <memcpy>
 8000fbc:	2082      	movs	r0, #130	@ 0x82
 8000fbe:	ab04      	add	r3, sp, #16
 8000fc0:	9903      	ldr	r1, [sp, #12]
 8000fc2:	2212      	movs	r2, #18
 8000fc4:	18c0      	adds	r0, r0, r3
 8000fc6:	f004 ffe3 	bl	8005f90 <memcpy>
 8000fca:	2124      	movs	r1, #36	@ 0x24
 8000fcc:	a820      	add	r0, sp, #128	@ 0x80
 8000fce:	f004 fe29 	bl	8005c24 <MIDI_TrySendResponsePkt_FS>
 8000fd2:	2800      	cmp	r0, #0
 8000fd4:	d10e      	bne.n	8000ff4 <main+0x488>
 8000fd6:	7020      	strb	r0, [r4, #0]
 8000fd8:	b672      	cpsid	i
 8000fda:	220f      	movs	r2, #15
 8000fdc:	7833      	ldrb	r3, [r6, #0]
 8000fde:	3301      	adds	r3, #1
 8000fe0:	4013      	ands	r3, r2
 8000fe2:	7033      	strb	r3, [r6, #0]
 8000fe4:	782b      	ldrb	r3, [r5, #0]
 8000fe6:	2b00      	cmp	r3, #0
 8000fe8:	d003      	beq.n	8000ff2 <main+0x486>
 8000fea:	782b      	ldrb	r3, [r5, #0]
 8000fec:	3b01      	subs	r3, #1
 8000fee:	b2db      	uxtb	r3, r3
 8000ff0:	702b      	strb	r3, [r5, #0]
 8000ff2:	b662      	cpsie	i
 8000ff4:	4b7e      	ldr	r3, [pc, #504]	@ (80011f0 <main+0x684>)
 8000ff6:	781b      	ldrb	r3, [r3, #0]
 8000ff8:	2b00      	cmp	r3, #0
 8000ffa:	d0c2      	beq.n	8000f82 <main+0x416>
 8000ffc:	4c7d      	ldr	r4, [pc, #500]	@ (80011f4 <main+0x688>)
 8000ffe:	7820      	ldrb	r0, [r4, #0]
 8001000:	2810      	cmp	r0, #16
 8001002:	d900      	bls.n	8001006 <main+0x49a>
 8001004:	e6ea      	b.n	8000ddc <main+0x270>
 8001006:	f7ff f89b 	bl	8000140 <__gnu_thumb1_case_shi>
 800100a:	0071      	.short	0x0071
 800100c:	ff7fff4c 	.word	0xff7fff4c
 8001010:	ff9c0071 	.word	0xff9c0071
 8001014:	ff91ffa6 	.word	0xff91ffa6
 8001018:	fef7fef7 	.word	0xfef7fef7
 800101c:	fef7fef7 	.word	0xfef7fef7
 8001020:	fef7fef7 	.word	0xfef7fef7
 8001024:	fef7fef7 	.word	0xfef7fef7
 8001028:	003cfef7 	.word	0x003cfef7
 800102c:	1c35      	adds	r5, r6, #0
 800102e:	2e10      	cmp	r6, #16
 8001030:	d900      	bls.n	8001034 <main+0x4c8>
 8001032:	2510      	movs	r5, #16
 8001034:	2100      	movs	r1, #0
 8001036:	b2ed      	uxtb	r5, r5
 8001038:	428d      	cmp	r5, r1
 800103a:	d912      	bls.n	8001062 <main+0x4f6>
 800103c:	1c4b      	adds	r3, r1, #1
 800103e:	78a2      	ldrb	r2, [r4, #2]
 8001040:	1c8e      	adds	r6, r1, #2
 8001042:	429d      	cmp	r5, r3
 8001044:	d902      	bls.n	800104c <main+0x4e0>
 8001046:	78e3      	ldrb	r3, [r4, #3]
 8001048:	021b      	lsls	r3, r3, #8
 800104a:	431a      	orrs	r2, r3
 800104c:	4b61      	ldr	r3, [pc, #388]	@ (80011d4 <main+0x668>)
 800104e:	2001      	movs	r0, #1
 8001050:	18c9      	adds	r1, r1, r3
 8001052:	2300      	movs	r3, #0
 8001054:	f000 ffc0 	bl	8001fd8 <HAL_FLASH_Program>
 8001058:	3402      	adds	r4, #2
 800105a:	2800      	cmp	r0, #0
 800105c:	d00f      	beq.n	800107e <main+0x512>
 800105e:	f7ff fc47 	bl	80008f0 <command_send_err.constprop.0>
 8001062:	2001      	movs	r0, #1
 8001064:	4205      	tst	r5, r0
 8001066:	d105      	bne.n	8001074 <main+0x508>
 8001068:	4b5a      	ldr	r3, [pc, #360]	@ (80011d4 <main+0x668>)
 800106a:	2200      	movs	r2, #0
 800106c:	18e9      	adds	r1, r5, r3
 800106e:	2300      	movs	r3, #0
 8001070:	f000 ffb2 	bl	8001fd8 <HAL_FLASH_Program>
 8001074:	2100      	movs	r1, #0
 8001076:	0008      	movs	r0, r1
 8001078:	f7ff fabe 	bl	80005f8 <command_send_ok>
 800107c:	e77d      	b.n	8000f7a <main+0x40e>
 800107e:	0031      	movs	r1, r6
 8001080:	e7da      	b.n	8001038 <main+0x4cc>
 8001082:	78a0      	ldrb	r0, [r4, #2]
 8001084:	7867      	ldrb	r7, [r4, #1]
 8001086:	281f      	cmp	r0, #31
 8001088:	d900      	bls.n	800108c <main+0x520>
 800108a:	e6b5      	b.n	8000df8 <main+0x28c>
 800108c:	2500      	movs	r5, #0
 800108e:	ab04      	add	r3, sp, #16
 8001090:	819d      	strh	r5, [r3, #12]
 8001092:	aa07      	add	r2, sp, #28
 8001094:	a910      	add	r1, sp, #64	@ 0x40
 8001096:	9510      	str	r5, [sp, #64]	@ 0x40
 8001098:	f7ff fb64 	bl	8000764 <decode_encoded_pin.part.0.constprop.0>
 800109c:	42a8      	cmp	r0, r5
 800109e:	d100      	bne.n	80010a2 <main+0x536>
 80010a0:	e6aa      	b.n	8000df8 <main+0x28c>
 80010a2:	ab04      	add	r3, sp, #16
 80010a4:	899e      	ldrh	r6, [r3, #12]
 80010a6:	729d      	strb	r5, [r3, #10]
 80010a8:	230a      	movs	r3, #10
 80010aa:	aa04      	add	r2, sp, #16
 80010ac:	189b      	adds	r3, r3, r2
 80010ae:	0019      	movs	r1, r3
 80010b0:	0030      	movs	r0, r6
 80010b2:	f7ff fc03 	bl	80008bc <pin_mask_to_index.constprop.0>
 80010b6:	42a8      	cmp	r0, r5
 80010b8:	d100      	bne.n	80010bc <main+0x550>
 80010ba:	e69d      	b.n	8000df8 <main+0x28c>
 80010bc:	ab04      	add	r3, sp, #16
 80010be:	7a9b      	ldrb	r3, [r3, #10]
 80010c0:	9d10      	ldr	r5, [sp, #64]	@ 0x40
 80010c2:	0019      	movs	r1, r3
 80010c4:	0028      	movs	r0, r5
 80010c6:	9303      	str	r3, [sp, #12]
 80010c8:	f7ff fb02 	bl	80006d0 <disable_tim2_output_if_needed>
 80010cc:	2f06      	cmp	r7, #6
 80010ce:	d900      	bls.n	80010d2 <main+0x566>
 80010d0:	e692      	b.n	8000df8 <main+0x28c>
 80010d2:	0038      	movs	r0, r7
 80010d4:	f7ff f82a 	bl	800012c <__gnu_thumb1_case_uqi>
 80010d8:	291a0d04 	.word	0x291a0d04
 80010dc:	1029      	.short	0x1029
 80010de:	41          	.byte	0x41
 80010df:	00          	.byte	0x00
 80010e0:	2300      	movs	r3, #0
 80010e2:	001a      	movs	r2, r3
 80010e4:	0031      	movs	r1, r6
 80010e6:	0028      	movs	r0, r5
 80010e8:	f7ff fb0c 	bl	8000704 <gpio_set_mode>
 80010ec:	2100      	movs	r1, #0
 80010ee:	0008      	movs	r0, r1
 80010f0:	e6db      	b.n	8000eaa <main+0x33e>
 80010f2:	2300      	movs	r3, #0
 80010f4:	2201      	movs	r2, #1
 80010f6:	e7f5      	b.n	80010e4 <main+0x578>
 80010f8:	78e3      	ldrb	r3, [r4, #3]
 80010fa:	2b01      	cmp	r3, #1
 80010fc:	d004      	beq.n	8001108 <main+0x59c>
 80010fe:	2b02      	cmp	r3, #2
 8001100:	d002      	beq.n	8001108 <main+0x59c>
 8001102:	2b00      	cmp	r3, #0
 8001104:	d000      	beq.n	8001108 <main+0x59c>
 8001106:	e677      	b.n	8000df8 <main+0x28c>
 8001108:	2200      	movs	r2, #0
 800110a:	e7eb      	b.n	80010e4 <main+0x578>
 800110c:	2300      	movs	r3, #0
 800110e:	0031      	movs	r1, r6
 8001110:	001a      	movs	r2, r3
 8001112:	0028      	movs	r0, r5
 8001114:	f7ff faf6 	bl	8000704 <gpio_set_mode>
 8001118:	0031      	movs	r1, r6
 800111a:	0028      	movs	r0, r5
 800111c:	f001 f92a 	bl	8002374 <HAL_GPIO_ReadPin>
 8001120:	ab20      	add	r3, sp, #128	@ 0x80
 8001122:	7018      	strb	r0, [r3, #0]
 8001124:	2101      	movs	r1, #1
 8001126:	0018      	movs	r0, r3
 8001128:	e6bf      	b.n	8000eaa <main+0x33e>
 800112a:	1efc      	subs	r4, r7, #3
 800112c:	4263      	negs	r3, r4
 800112e:	415c      	adcs	r4, r3
 8001130:	b2e4      	uxtb	r4, r4
 8001132:	2d00      	cmp	r5, #0
 8001134:	d002      	beq.n	800113c <main+0x5d0>
 8001136:	2f03      	cmp	r7, #3
 8001138:	d10c      	bne.n	8001154 <main+0x5e8>
 800113a:	61ae      	str	r6, [r5, #24]
 800113c:	0031      	movs	r1, r6
 800113e:	0028      	movs	r0, r5
 8001140:	2300      	movs	r3, #0
 8001142:	2201      	movs	r2, #1
 8001144:	f7ff fade 	bl	8000704 <gpio_set_mode>
 8001148:	0022      	movs	r2, r4
 800114a:	0031      	movs	r1, r6
 800114c:	0028      	movs	r0, r5
 800114e:	f001 f917 	bl	8002380 <HAL_GPIO_WritePin>
 8001152:	e7e1      	b.n	8001118 <main+0x5ac>
 8001154:	0433      	lsls	r3, r6, #16
 8001156:	61ab      	str	r3, [r5, #24]
 8001158:	e7f0      	b.n	800113c <main+0x5d0>
 800115a:	0028      	movs	r0, r5
 800115c:	f7ff fa7c 	bl	8000658 <enable_gpio_clock>
 8001160:	682c      	ldr	r4, [r5, #0]
 8001162:	6869      	ldr	r1, [r5, #4]
 8001164:	68ea      	ldr	r2, [r5, #12]
 8001166:	692f      	ldr	r7, [r5, #16]
 8001168:	696b      	ldr	r3, [r5, #20]
 800116a:	469c      	mov	ip, r3
 800116c:	9b03      	ldr	r3, [sp, #12]
 800116e:	2b07      	cmp	r3, #7
 8001170:	d820      	bhi.n	80011b4 <main+0x648>
 8001172:	6a2b      	ldr	r3, [r5, #32]
 8001174:	9803      	ldr	r0, [sp, #12]
 8001176:	2503      	movs	r5, #3
 8001178:	0046      	lsls	r6, r0, #1
 800117a:	40f4      	lsrs	r4, r6
 800117c:	40f2      	lsrs	r2, r6
 800117e:	a820      	add	r0, sp, #128	@ 0x80
 8001180:	402c      	ands	r4, r5
 8001182:	7004      	strb	r4, [r0, #0]
 8001184:	9c03      	ldr	r4, [sp, #12]
 8001186:	402a      	ands	r2, r5
 8001188:	40e1      	lsrs	r1, r4
 800118a:	2401      	movs	r4, #1
 800118c:	7082      	strb	r2, [r0, #2]
 800118e:	2207      	movs	r2, #7
 8001190:	4021      	ands	r1, r4
 8001192:	7041      	strb	r1, [r0, #1]
 8001194:	9903      	ldr	r1, [sp, #12]
 8001196:	400a      	ands	r2, r1
 8001198:	0092      	lsls	r2, r2, #2
 800119a:	40d3      	lsrs	r3, r2
 800119c:	220f      	movs	r2, #15
 800119e:	4013      	ands	r3, r2
 80011a0:	70c3      	strb	r3, [r0, #3]
 80011a2:	4663      	mov	r3, ip
 80011a4:	40cf      	lsrs	r7, r1
 80011a6:	40cb      	lsrs	r3, r1
 80011a8:	4027      	ands	r7, r4
 80011aa:	4023      	ands	r3, r4
 80011ac:	2106      	movs	r1, #6
 80011ae:	7107      	strb	r7, [r0, #4]
 80011b0:	7143      	strb	r3, [r0, #5]
 80011b2:	e67a      	b.n	8000eaa <main+0x33e>
 80011b4:	6a6b      	ldr	r3, [r5, #36]	@ 0x24
 80011b6:	e7dd      	b.n	8001174 <main+0x608>
 80011b8:	7860      	ldrb	r0, [r4, #1]
 80011ba:	78a3      	ldrb	r3, [r4, #2]
 80011bc:	78e7      	ldrb	r7, [r4, #3]
 80011be:	2803      	cmp	r0, #3
 80011c0:	d900      	bls.n	80011c4 <main+0x658>
 80011c2:	e619      	b.n	8000df8 <main+0x28c>
 80011c4:	f7fe ffb2 	bl	800012c <__gnu_thumb1_case_uqi>
 80011c8:	ccc3ba18 	.word	0xccc3ba18
 80011cc:	e000ed00 	.word	0xe000ed00
 80011d0:	05fa0004 	.word	0x05fa0004
 80011d4:	08007c00 	.word	0x08007c00
 80011d8:	2000020b 	.word	0x2000020b
 80011dc:	20000219 	.word	0x20000219
 80011e0:	2000021a 	.word	0x2000021a
 80011e4:	2000022e 	.word	0x2000022e
 80011e8:	200001f8 	.word	0x200001f8
 80011ec:	200001f9 	.word	0x200001f9
 80011f0:	2000034e 	.word	0x2000034e
 80011f4:	2000034f 	.word	0x2000034f
 80011f8:	2b1f      	cmp	r3, #31
 80011fa:	d900      	bls.n	80011fe <main+0x692>
 80011fc:	e5fc      	b.n	8000df8 <main+0x28c>
 80011fe:	2600      	movs	r6, #0
 8001200:	aa04      	add	r2, sp, #16
 8001202:	8616      	strh	r6, [r2, #48]	@ 0x30
 8001204:	0018      	movs	r0, r3
 8001206:	aa10      	add	r2, sp, #64	@ 0x40
 8001208:	a920      	add	r1, sp, #128	@ 0x80
 800120a:	9620      	str	r6, [sp, #128]	@ 0x80
 800120c:	f7ff faaa 	bl	8000764 <decode_encoded_pin.part.0.constprop.0>
 8001210:	42b0      	cmp	r0, r6
 8001212:	d100      	bne.n	8001216 <main+0x6aa>
 8001214:	e5f0      	b.n	8000df8 <main+0x28c>
 8001216:	ab04      	add	r3, sp, #16
 8001218:	731e      	strb	r6, [r3, #12]
 800121a:	8e1b      	ldrh	r3, [r3, #48]	@ 0x30
 800121c:	a907      	add	r1, sp, #28
 800121e:	0018      	movs	r0, r3
 8001220:	9303      	str	r3, [sp, #12]
 8001222:	f7ff fb4b 	bl	80008bc <pin_mask_to_index.constprop.0>
 8001226:	42b0      	cmp	r0, r6
 8001228:	d100      	bne.n	800122c <main+0x6c0>
 800122a:	e5e5      	b.n	8000df8 <main+0x28c>
 800122c:	ab04      	add	r3, sp, #16
 800122e:	9d20      	ldr	r5, [sp, #128]	@ 0x80
 8001230:	7b1c      	ldrb	r4, [r3, #12]
 8001232:	0028      	movs	r0, r5
 8001234:	0021      	movs	r1, r4
 8001236:	f7ff fa4b 	bl	80006d0 <disable_tim2_output_if_needed>
 800123a:	0033      	movs	r3, r6
 800123c:	2203      	movs	r2, #3
 800123e:	0028      	movs	r0, r5
 8001240:	9903      	ldr	r1, [sp, #12]
 8001242:	f7ff fa5f 	bl	8000704 <gpio_set_mode>
 8001246:	42b5      	cmp	r5, r6
 8001248:	d100      	bne.n	800124c <main+0x6e0>
 800124a:	e5d5      	b.n	8000df8 <main+0x28c>
 800124c:	2390      	movs	r3, #144	@ 0x90
 800124e:	05db      	lsls	r3, r3, #23
 8001250:	429d      	cmp	r5, r3
 8001252:	d16a      	bne.n	800132a <main+0x7be>
 8001254:	2c07      	cmp	r4, #7
 8001256:	d900      	bls.n	800125a <main+0x6ee>
 8001258:	e5ce      	b.n	8000df8 <main+0x28c>
 800125a:	2301      	movs	r3, #1
 800125c:	40a3      	lsls	r3, r4
 800125e:	469c      	mov	ip, r3
 8001260:	1c3b      	adds	r3, r7, #0
 8001262:	2f40      	cmp	r7, #64	@ 0x40
 8001264:	d800      	bhi.n	8001268 <main+0x6fc>
 8001266:	e084      	b.n	8001372 <main+0x806>
 8001268:	2340      	movs	r3, #64	@ 0x40
 800126a:	2000      	movs	r0, #0
 800126c:	b2db      	uxtb	r3, r3
 800126e:	9303      	str	r3, [sp, #12]
 8001270:	4bb8      	ldr	r3, [pc, #736]	@ (8001554 <main+0x9e8>)
 8001272:	49b9      	ldr	r1, [pc, #740]	@ (8001558 <main+0x9ec>)
 8001274:	781c      	ldrb	r4, [r3, #0]
 8001276:	9304      	str	r3, [sp, #16]
 8001278:	4bb8      	ldr	r3, [pc, #736]	@ (800155c <main+0x9f0>)
 800127a:	4284      	cmp	r4, r0
 800127c:	d12d      	bne.n	80012da <main+0x76e>
 800127e:	2280      	movs	r2, #128	@ 0x80
 8001280:	4db7      	ldr	r5, [pc, #732]	@ (8001560 <main+0x9f4>)
 8001282:	0092      	lsls	r2, r2, #2
 8001284:	69a8      	ldr	r0, [r5, #24]
 8001286:	4302      	orrs	r2, r0
 8001288:	2001      	movs	r0, #1
 800128a:	61aa      	str	r2, [r5, #24]
 800128c:	689a      	ldr	r2, [r3, #8]
 800128e:	4202      	tst	r2, r0
 8001290:	d175      	bne.n	800137e <main+0x812>
 8001292:	2280      	movs	r2, #128	@ 0x80
 8001294:	6898      	ldr	r0, [r3, #8]
 8001296:	0612      	lsls	r2, r2, #24
 8001298:	4302      	orrs	r2, r0
 800129a:	609a      	str	r2, [r3, #8]
 800129c:	2200      	movs	r2, #0
 800129e:	920d      	str	r2, [sp, #52]	@ 0x34
 80012a0:	9a0d      	ldr	r2, [sp, #52]	@ 0x34
 80012a2:	428a      	cmp	r2, r1
 80012a4:	d97b      	bls.n	800139e <main+0x832>
 80012a6:	2000      	movs	r0, #0
 80012a8:	2480      	movs	r4, #128	@ 0x80
 80012aa:	60d8      	str	r0, [r3, #12]
 80012ac:	691a      	ldr	r2, [r3, #16]
 80012ae:	05e4      	lsls	r4, r4, #23
 80012b0:	0092      	lsls	r2, r2, #2
 80012b2:	0892      	lsrs	r2, r2, #2
 80012b4:	4314      	orrs	r4, r2
 80012b6:	2207      	movs	r2, #7
 80012b8:	611c      	str	r4, [r3, #16]
 80012ba:	615a      	str	r2, [r3, #20]
 80012bc:	681c      	ldr	r4, [r3, #0]
 80012be:	3a06      	subs	r2, #6
 80012c0:	4314      	orrs	r4, r2
 80012c2:	601c      	str	r4, [r3, #0]
 80012c4:	689c      	ldr	r4, [r3, #8]
 80012c6:	4314      	orrs	r4, r2
 80012c8:	609c      	str	r4, [r3, #8]
 80012ca:	900e      	str	r0, [sp, #56]	@ 0x38
 80012cc:	980e      	ldr	r0, [sp, #56]	@ 0x38
 80012ce:	4288      	cmp	r0, r1
 80012d0:	d802      	bhi.n	80012d8 <main+0x76c>
 80012d2:	6818      	ldr	r0, [r3, #0]
 80012d4:	4210      	tst	r0, r2
 80012d6:	d068      	beq.n	80013aa <main+0x83e>
 80012d8:	2001      	movs	r0, #1
 80012da:	2200      	movs	r2, #0
 80012dc:	2504      	movs	r5, #4
 80012de:	0014      	movs	r4, r2
 80012e0:	689e      	ldr	r6, [r3, #8]
 80012e2:	422e      	tst	r6, r5
 80012e4:	d00c      	beq.n	8001300 <main+0x794>
 80012e6:	2610      	movs	r6, #16
 80012e8:	689f      	ldr	r7, [r3, #8]
 80012ea:	433e      	orrs	r6, r7
 80012ec:	609e      	str	r6, [r3, #8]
 80012ee:	2600      	movs	r6, #0
 80012f0:	2704      	movs	r7, #4
 80012f2:	960a      	str	r6, [sp, #40]	@ 0x28
 80012f4:	9e0a      	ldr	r6, [sp, #40]	@ 0x28
 80012f6:	428e      	cmp	r6, r1
 80012f8:	d802      	bhi.n	8001300 <main+0x794>
 80012fa:	689e      	ldr	r6, [r3, #8]
 80012fc:	423e      	tst	r6, r7
 80012fe:	d157      	bne.n	80013b0 <main+0x844>
 8001300:	4666      	mov	r6, ip
 8001302:	271c      	movs	r7, #28
 8001304:	629e      	str	r6, [r3, #40]	@ 0x28
 8001306:	681e      	ldr	r6, [r3, #0]
 8001308:	433e      	orrs	r6, r7
 800130a:	601e      	str	r6, [r3, #0]
 800130c:	689e      	ldr	r6, [r3, #8]
 800130e:	432e      	orrs	r6, r5
 8001310:	609e      	str	r6, [r3, #8]
 8001312:	2600      	movs	r6, #0
 8001314:	960b      	str	r6, [sp, #44]	@ 0x2c
 8001316:	9e0b      	ldr	r6, [sp, #44]	@ 0x2c
 8001318:	428e      	cmp	r6, r1
 800131a:	d94d      	bls.n	80013b8 <main+0x84c>
 800131c:	2800      	cmp	r0, #0
 800131e:	d100      	bne.n	8001322 <main+0x7b6>
 8001320:	e56a      	b.n	8000df8 <main+0x28c>
 8001322:	2301      	movs	r3, #1
 8001324:	9a04      	ldr	r2, [sp, #16]
 8001326:	7013      	strb	r3, [r2, #0]
 8001328:	e566      	b.n	8000df8 <main+0x28c>
 800132a:	4b8e      	ldr	r3, [pc, #568]	@ (8001564 <main+0x9f8>)
 800132c:	429d      	cmp	r5, r3
 800132e:	d000      	beq.n	8001332 <main+0x7c6>
 8001330:	e562      	b.n	8000df8 <main+0x28c>
 8001332:	2c01      	cmp	r4, #1
 8001334:	d900      	bls.n	8001338 <main+0x7cc>
 8001336:	e55f      	b.n	8000df8 <main+0x28c>
 8001338:	3408      	adds	r4, #8
 800133a:	e78e      	b.n	800125a <main+0x6ee>
 800133c:	23c0      	movs	r3, #192	@ 0xc0
 800133e:	4a8a      	ldr	r2, [pc, #552]	@ (8001568 <main+0x9fc>)
 8001340:	041b      	lsls	r3, r3, #16
 8001342:	6811      	ldr	r1, [r2, #0]
 8001344:	430b      	orrs	r3, r1
 8001346:	6013      	str	r3, [r2, #0]
 8001348:	2380      	movs	r3, #128	@ 0x80
 800134a:	025b      	lsls	r3, r3, #9
 800134c:	e787      	b.n	800125e <main+0x6f2>
 800134e:	2380      	movs	r3, #128	@ 0x80
 8001350:	4a85      	ldr	r2, [pc, #532]	@ (8001568 <main+0x9fc>)
 8001352:	03db      	lsls	r3, r3, #15
 8001354:	6811      	ldr	r1, [r2, #0]
 8001356:	430b      	orrs	r3, r1
 8001358:	6013      	str	r3, [r2, #0]
 800135a:	2380      	movs	r3, #128	@ 0x80
 800135c:	029b      	lsls	r3, r3, #10
 800135e:	e77e      	b.n	800125e <main+0x6f2>
 8001360:	2380      	movs	r3, #128	@ 0x80
 8001362:	4a81      	ldr	r2, [pc, #516]	@ (8001568 <main+0x9fc>)
 8001364:	045b      	lsls	r3, r3, #17
 8001366:	6811      	ldr	r1, [r2, #0]
 8001368:	430b      	orrs	r3, r1
 800136a:	6013      	str	r3, [r2, #0]
 800136c:	2380      	movs	r3, #128	@ 0x80
 800136e:	02db      	lsls	r3, r3, #11
 8001370:	e775      	b.n	800125e <main+0x6f2>
 8001372:	b2fa      	uxtb	r2, r7
 8001374:	2a00      	cmp	r2, #0
 8001376:	d000      	beq.n	800137a <main+0x80e>
 8001378:	e777      	b.n	800126a <main+0x6fe>
 800137a:	2301      	movs	r3, #1
 800137c:	e775      	b.n	800126a <main+0x6fe>
 800137e:	2202      	movs	r2, #2
 8001380:	689d      	ldr	r5, [r3, #8]
 8001382:	432a      	orrs	r2, r5
 8001384:	609a      	str	r2, [r3, #8]
 8001386:	940c      	str	r4, [sp, #48]	@ 0x30
 8001388:	9a0c      	ldr	r2, [sp, #48]	@ 0x30
 800138a:	428a      	cmp	r2, r1
 800138c:	d881      	bhi.n	8001292 <main+0x726>
 800138e:	689a      	ldr	r2, [r3, #8]
 8001390:	4202      	tst	r2, r0
 8001392:	d100      	bne.n	8001396 <main+0x82a>
 8001394:	e77d      	b.n	8001292 <main+0x726>
 8001396:	9a0c      	ldr	r2, [sp, #48]	@ 0x30
 8001398:	3201      	adds	r2, #1
 800139a:	920c      	str	r2, [sp, #48]	@ 0x30
 800139c:	e7f4      	b.n	8001388 <main+0x81c>
 800139e:	689a      	ldr	r2, [r3, #8]
 80013a0:	2a00      	cmp	r2, #0
 80013a2:	da80      	bge.n	80012a6 <main+0x73a>
 80013a4:	9a0d      	ldr	r2, [sp, #52]	@ 0x34
 80013a6:	3201      	adds	r2, #1
 80013a8:	e779      	b.n	800129e <main+0x732>
 80013aa:	980e      	ldr	r0, [sp, #56]	@ 0x38
 80013ac:	3001      	adds	r0, #1
 80013ae:	e78c      	b.n	80012ca <main+0x75e>
 80013b0:	9e0a      	ldr	r6, [sp, #40]	@ 0x28
 80013b2:	3601      	adds	r6, #1
 80013b4:	960a      	str	r6, [sp, #40]	@ 0x28
 80013b6:	e79d      	b.n	80012f4 <main+0x788>
 80013b8:	681e      	ldr	r6, [r3, #0]
 80013ba:	422e      	tst	r6, r5
 80013bc:	d016      	beq.n	80013ec <main+0x880>
 80013be:	6c1e      	ldr	r6, [r3, #64]	@ 0x40
 80013c0:	3401      	adds	r4, #1
 80013c2:	b2b6      	uxth	r6, r6
 80013c4:	1992      	adds	r2, r2, r6
 80013c6:	9e03      	ldr	r6, [sp, #12]
 80013c8:	42a6      	cmp	r6, r4
 80013ca:	d889      	bhi.n	80012e0 <main+0x774>
 80013cc:	2800      	cmp	r0, #0
 80013ce:	d002      	beq.n	80013d6 <main+0x86a>
 80013d0:	2301      	movs	r3, #1
 80013d2:	9904      	ldr	r1, [sp, #16]
 80013d4:	700b      	strb	r3, [r1, #0]
 80013d6:	9b03      	ldr	r3, [sp, #12]
 80013d8:	ac20      	add	r4, sp, #128	@ 0x80
 80013da:	0858      	lsrs	r0, r3, #1
 80013dc:	0019      	movs	r1, r3
 80013de:	1880      	adds	r0, r0, r2
 80013e0:	f7fe feb8 	bl	8000154 <__udivsi3>
 80013e4:	2102      	movs	r1, #2
 80013e6:	8020      	strh	r0, [r4, #0]
 80013e8:	0020      	movs	r0, r4
 80013ea:	e55e      	b.n	8000eaa <main+0x33e>
 80013ec:	9e0b      	ldr	r6, [sp, #44]	@ 0x2c
 80013ee:	3601      	adds	r6, #1
 80013f0:	e790      	b.n	8001314 <main+0x7a8>
 80013f2:	485e      	ldr	r0, [pc, #376]	@ (800156c <main+0xa00>)
 80013f4:	f7fe ff78 	bl	80002e8 <emw_u32_le>
 80013f8:	79e2      	ldrb	r2, [r4, #7]
 80013fa:	79a6      	ldrb	r6, [r4, #6]
 80013fc:	7865      	ldrb	r5, [r4, #1]
 80013fe:	0212      	lsls	r2, r2, #8
 8001400:	0003      	movs	r3, r0
 8001402:	7a24      	ldrb	r4, [r4, #8]
 8001404:	4316      	orrs	r6, r2
 8001406:	2d03      	cmp	r5, #3
 8001408:	d900      	bls.n	800140c <main+0x8a0>
 800140a:	e4f5      	b.n	8000df8 <main+0x28c>
 800140c:	0028      	movs	r0, r5
 800140e:	f7fe fe8d 	bl	800012c <__gnu_thumb1_case_uqi>
 8001412:	0f02      	.short	0x0f02
 8001414:	5312      	.short	0x5312
 8001416:	2b00      	cmp	r3, #0
 8001418:	d101      	bne.n	800141e <main+0x8b2>
 800141a:	23e1      	movs	r3, #225	@ 0xe1
 800141c:	025b      	lsls	r3, r3, #9
 800141e:	4a54      	ldr	r2, [pc, #336]	@ (8001570 <main+0xa04>)
 8001420:	0018      	movs	r0, r3
 8001422:	6013      	str	r3, [r2, #0]
 8001424:	f7ff f81e 	bl	8000464 <uart1_ensure>
 8001428:	2800      	cmp	r0, #0
 800142a:	d000      	beq.n	800142e <main+0x8c2>
 800142c:	e65e      	b.n	80010ec <main+0x580>
 800142e:	e4e3      	b.n	8000df8 <main+0x28c>
 8001430:	f7fe ff7a 	bl	8000328 <uart1_deinit>
 8001434:	e65a      	b.n	80010ec <main+0x580>
 8001436:	4d4e      	ldr	r5, [pc, #312]	@ (8001570 <main+0xa04>)
 8001438:	2b00      	cmp	r3, #0
 800143a:	d000      	beq.n	800143e <main+0x8d2>
 800143c:	602b      	str	r3, [r5, #0]
 800143e:	6828      	ldr	r0, [r5, #0]
 8001440:	f7ff f810 	bl	8000464 <uart1_ensure>
 8001444:	2800      	cmp	r0, #0
 8001446:	d100      	bne.n	800144a <main+0x8de>
 8001448:	e4d6      	b.n	8000df8 <main+0x28c>
 800144a:	2e00      	cmp	r6, #0
 800144c:	d101      	bne.n	8001452 <main+0x8e6>
 800144e:	26fa      	movs	r6, #250	@ 0xfa
 8001450:	00b6      	lsls	r6, r6, #2
 8001452:	2c09      	cmp	r4, #9
 8001454:	d805      	bhi.n	8001462 <main+0x8f6>
 8001456:	2c00      	cmp	r4, #0
 8001458:	d104      	bne.n	8001464 <main+0x8f8>
 800145a:	a820      	add	r0, sp, #128	@ 0x80
 800145c:	7004      	strb	r4, [r0, #0]
 800145e:	2101      	movs	r1, #1
 8001460:	e523      	b.n	8000eaa <main+0x33e>
 8001462:	2409      	movs	r4, #9
 8001464:	6828      	ldr	r0, [r5, #0]
 8001466:	f7fe fffd 	bl	8000464 <uart1_ensure>
 800146a:	2800      	cmp	r0, #0
 800146c:	d100      	bne.n	8001470 <main+0x904>
 800146e:	e4c3      	b.n	8000df8 <main+0x28c>
 8001470:	f000 fce4 	bl	8001e3c <HAL_GetTick>
 8001474:	2500      	movs	r5, #0
 8001476:	9003      	str	r0, [sp, #12]
 8001478:	2280      	movs	r2, #128	@ 0x80
 800147a:	4f3e      	ldr	r7, [pc, #248]	@ (8001574 <main+0xa08>)
 800147c:	69fb      	ldr	r3, [r7, #28]
 800147e:	4213      	tst	r3, r2
 8001480:	d00c      	beq.n	800149c <main+0x930>
 8001482:	4b3d      	ldr	r3, [pc, #244]	@ (8001578 <main+0xa0c>)
 8001484:	5d5b      	ldrb	r3, [r3, r5]
 8001486:	3501      	adds	r5, #1
 8001488:	853b      	strh	r3, [r7, #40]	@ 0x28
 800148a:	42ac      	cmp	r4, r5
 800148c:	d8f4      	bhi.n	8001478 <main+0x90c>
 800148e:	2440      	movs	r4, #64	@ 0x40
 8001490:	69fb      	ldr	r3, [r7, #28]
 8001492:	4223      	tst	r3, r4
 8001494:	d009      	beq.n	80014aa <main+0x93e>
 8001496:	a820      	add	r0, sp, #128	@ 0x80
 8001498:	7005      	strb	r5, [r0, #0]
 800149a:	e7e0      	b.n	800145e <main+0x8f2>
 800149c:	f000 fcce 	bl	8001e3c <HAL_GetTick>
 80014a0:	9b03      	ldr	r3, [sp, #12]
 80014a2:	1ac0      	subs	r0, r0, r3
 80014a4:	4286      	cmp	r6, r0
 80014a6:	d2e7      	bcs.n	8001478 <main+0x90c>
 80014a8:	e4a6      	b.n	8000df8 <main+0x28c>
 80014aa:	f000 fcc7 	bl	8001e3c <HAL_GetTick>
 80014ae:	9b03      	ldr	r3, [sp, #12]
 80014b0:	1ac0      	subs	r0, r0, r3
 80014b2:	4286      	cmp	r6, r0
 80014b4:	d2ec      	bcs.n	8001490 <main+0x924>
 80014b6:	e49f      	b.n	8000df8 <main+0x28c>
 80014b8:	4d2d      	ldr	r5, [pc, #180]	@ (8001570 <main+0xa04>)
 80014ba:	2b00      	cmp	r3, #0
 80014bc:	d000      	beq.n	80014c0 <main+0x954>
 80014be:	602b      	str	r3, [r5, #0]
 80014c0:	6828      	ldr	r0, [r5, #0]
 80014c2:	f7fe ffcf 	bl	8000464 <uart1_ensure>
 80014c6:	2800      	cmp	r0, #0
 80014c8:	d100      	bne.n	80014cc <main+0x960>
 80014ca:	e495      	b.n	8000df8 <main+0x28c>
 80014cc:	2e00      	cmp	r6, #0
 80014ce:	d100      	bne.n	80014d2 <main+0x966>
 80014d0:	36fa      	adds	r6, #250	@ 0xfa
 80014d2:	2c10      	cmp	r4, #16
 80014d4:	d803      	bhi.n	80014de <main+0x972>
 80014d6:	2c00      	cmp	r4, #0
 80014d8:	d102      	bne.n	80014e0 <main+0x974>
 80014da:	0021      	movs	r1, r4
 80014dc:	e784      	b.n	80013e8 <main+0x87c>
 80014de:	2410      	movs	r4, #16
 80014e0:	2240      	movs	r2, #64	@ 0x40
 80014e2:	2100      	movs	r1, #0
 80014e4:	a820      	add	r0, sp, #128	@ 0x80
 80014e6:	f004 fd26 	bl	8005f36 <memset>
 80014ea:	6828      	ldr	r0, [r5, #0]
 80014ec:	f7fe ffba 	bl	8000464 <uart1_ensure>
 80014f0:	2800      	cmp	r0, #0
 80014f2:	d100      	bne.n	80014f6 <main+0x98a>
 80014f4:	e480      	b.n	8000df8 <main+0x28c>
 80014f6:	f000 fca1 	bl	8001e3c <HAL_GetTick>
 80014fa:	2500      	movs	r5, #0
 80014fc:	0007      	movs	r7, r0
 80014fe:	4b1d      	ldr	r3, [pc, #116]	@ (8001574 <main+0xa08>)
 8001500:	1c69      	adds	r1, r5, #1
 8001502:	69da      	ldr	r2, [r3, #28]
 8001504:	9103      	str	r1, [sp, #12]
 8001506:	2120      	movs	r1, #32
 8001508:	420a      	tst	r2, r1
 800150a:	d00b      	beq.n	8001524 <main+0x9b8>
 800150c:	8c9b      	ldrh	r3, [r3, #36]	@ 0x24
 800150e:	3150      	adds	r1, #80	@ 0x50
 8001510:	aa04      	add	r2, sp, #16
 8001512:	1852      	adds	r2, r2, r1
 8001514:	5553      	strb	r3, [r2, r5]
 8001516:	f000 fc91 	bl	8001e3c <HAL_GetTick>
 800151a:	0007      	movs	r7, r0
 800151c:	9d03      	ldr	r5, [sp, #12]
 800151e:	42ac      	cmp	r4, r5
 8001520:	d8ed      	bhi.n	80014fe <main+0x992>
 8001522:	e004      	b.n	800152e <main+0x9c2>
 8001524:	f000 fc8a 	bl	8001e3c <HAL_GetTick>
 8001528:	1bc0      	subs	r0, r0, r7
 800152a:	4286      	cmp	r6, r0
 800152c:	d2f7      	bcs.n	800151e <main+0x9b2>
 800152e:	ac10      	add	r4, sp, #64	@ 0x40
 8001530:	2211      	movs	r2, #17
 8001532:	2100      	movs	r1, #0
 8001534:	0020      	movs	r0, r4
 8001536:	f004 fcfe 	bl	8005f36 <memset>
 800153a:	7025      	strb	r5, [r4, #0]
 800153c:	2d00      	cmp	r5, #0
 800153e:	d006      	beq.n	800154e <main+0x9e2>
 8001540:	2031      	movs	r0, #49	@ 0x31
 8001542:	ab04      	add	r3, sp, #16
 8001544:	002a      	movs	r2, r5
 8001546:	a920      	add	r1, sp, #128	@ 0x80
 8001548:	18c0      	adds	r0, r0, r3
 800154a:	f004 fd21 	bl	8005f90 <memcpy>
 800154e:	1c69      	adds	r1, r5, #1
 8001550:	e74a      	b.n	80013e8 <main+0x87c>
 8001552:	46c0      	nop			@ (mov r8, r8)
 8001554:	200001f7 	.word	0x200001f7
 8001558:	000f423f 	.word	0x000f423f
 800155c:	40012400 	.word	0x40012400
 8001560:	40021000 	.word	0x40021000
 8001564:	48000400 	.word	0x48000400
 8001568:	40012708 	.word	0x40012708
 800156c:	20000351 	.word	0x20000351
 8001570:	20000004 	.word	0x20000004
 8001574:	40013800 	.word	0x40013800
 8001578:	20000358 	.word	0x20000358
 800157c:	48c6      	ldr	r0, [pc, #792]	@ (8001898 <main+0xd2c>)
 800157e:	f7fe feb3 	bl	80002e8 <emw_u32_le>
 8001582:	79e6      	ldrb	r6, [r4, #7]
 8001584:	79a3      	ldrb	r3, [r4, #6]
 8001586:	0236      	lsls	r6, r6, #8
 8001588:	431e      	orrs	r6, r3
 800158a:	7a23      	ldrb	r3, [r4, #8]
 800158c:	7867      	ldrb	r7, [r4, #1]
 800158e:	9304      	str	r3, [sp, #16]
 8001590:	7aa3      	ldrb	r3, [r4, #10]
 8001592:	7a65      	ldrb	r5, [r4, #9]
 8001594:	9303      	str	r3, [sp, #12]
 8001596:	2800      	cmp	r0, #0
 8001598:	d001      	beq.n	800159e <main+0xa32>
 800159a:	4bc0      	ldr	r3, [pc, #768]	@ (800189c <main+0xd30>)
 800159c:	6018      	str	r0, [r3, #0]
 800159e:	2e00      	cmp	r6, #0
 80015a0:	d100      	bne.n	80015a4 <main+0xa38>
 80015a2:	36fa      	adds	r6, #250	@ 0xfa
 80015a4:	2f00      	cmp	r7, #0
 80015a6:	d109      	bne.n	80015bc <main+0xa50>
 80015a8:	4bbc      	ldr	r3, [pc, #752]	@ (800189c <main+0xd30>)
 80015aa:	681a      	ldr	r2, [r3, #0]
 80015ac:	2a00      	cmp	r2, #0
 80015ae:	d101      	bne.n	80015b4 <main+0xa48>
 80015b0:	4abb      	ldr	r2, [pc, #748]	@ (80018a0 <main+0xd34>)
 80015b2:	601a      	str	r2, [r3, #0]
 80015b4:	6818      	ldr	r0, [r3, #0]
 80015b6:	f7fe fee9 	bl	800038c <i2c1_ensure>
 80015ba:	e735      	b.n	8001428 <main+0x8bc>
 80015bc:	2f01      	cmp	r7, #1
 80015be:	d117      	bne.n	80015f0 <main+0xa84>
 80015c0:	4bb8      	ldr	r3, [pc, #736]	@ (80018a4 <main+0xd38>)
 80015c2:	681a      	ldr	r2, [r3, #0]
 80015c4:	423a      	tst	r2, r7
 80015c6:	d002      	beq.n	80015ce <main+0xa62>
 80015c8:	681a      	ldr	r2, [r3, #0]
 80015ca:	43ba      	bics	r2, r7
 80015cc:	601a      	str	r2, [r3, #0]
 80015ce:	49b6      	ldr	r1, [pc, #728]	@ (80018a8 <main+0xd3c>)
 80015d0:	4ab6      	ldr	r2, [pc, #728]	@ (80018ac <main+0xd40>)
 80015d2:	69cb      	ldr	r3, [r1, #28]
 80015d4:	4013      	ands	r3, r2
 80015d6:	61cb      	str	r3, [r1, #28]
 80015d8:	f7fe fe92 	bl	8000300 <gpio_release_pb6_pb7>
 80015dc:	2200      	movs	r2, #0
 80015de:	4bb4      	ldr	r3, [pc, #720]	@ (80018b0 <main+0xd44>)
 80015e0:	701a      	strb	r2, [r3, #0]
 80015e2:	4bb4      	ldr	r3, [pc, #720]	@ (80018b4 <main+0xd48>)
 80015e4:	7819      	ldrb	r1, [r3, #0]
 80015e6:	2902      	cmp	r1, #2
 80015e8:	d000      	beq.n	80015ec <main+0xa80>
 80015ea:	e57f      	b.n	80010ec <main+0x580>
 80015ec:	701a      	strb	r2, [r3, #0]
 80015ee:	e57d      	b.n	80010ec <main+0x580>
 80015f0:	4baa      	ldr	r3, [pc, #680]	@ (800189c <main+0xd30>)
 80015f2:	6818      	ldr	r0, [r3, #0]
 80015f4:	9305      	str	r3, [sp, #20]
 80015f6:	f7fe fec9 	bl	800038c <i2c1_ensure>
 80015fa:	2800      	cmp	r0, #0
 80015fc:	d101      	bne.n	8001602 <main+0xa96>
 80015fe:	f7ff fbfb 	bl	8000df8 <main+0x28c>
 8001602:	247f      	movs	r4, #127	@ 0x7f
 8001604:	9b04      	ldr	r3, [sp, #16]
 8001606:	4023      	ands	r3, r4
 8001608:	001c      	movs	r4, r3
 800160a:	2f02      	cmp	r7, #2
 800160c:	d10d      	bne.n	800162a <main+0xabe>
 800160e:	2d00      	cmp	r5, #0
 8001610:	d100      	bne.n	8001614 <main+0xaa8>
 8001612:	e56b      	b.n	80010ec <main+0x580>
 8001614:	1c29      	adds	r1, r5, #0
 8001616:	2d07      	cmp	r5, #7
 8001618:	d900      	bls.n	800161c <main+0xab0>
 800161a:	2107      	movs	r1, #7
 800161c:	0033      	movs	r3, r6
 800161e:	2201      	movs	r2, #1
 8001620:	0020      	movs	r0, r4
 8001622:	b2c9      	uxtb	r1, r1
 8001624:	f7ff f8d4 	bl	80007d0 <i2c1_write_then_maybe_stop.constprop.0>
 8001628:	e6fe      	b.n	8001428 <main+0x8bc>
 800162a:	2f03      	cmp	r7, #3
 800162c:	d118      	bne.n	8001660 <main+0xaf4>
 800162e:	2d11      	cmp	r5, #17
 8001630:	d804      	bhi.n	800163c <main+0xad0>
 8001632:	2d00      	cmp	r5, #0
 8001634:	d103      	bne.n	800163e <main+0xad2>
 8001636:	0029      	movs	r1, r5
 8001638:	0028      	movs	r0, r5
 800163a:	e436      	b.n	8000eaa <main+0x33e>
 800163c:	2511      	movs	r5, #17
 800163e:	2240      	movs	r2, #64	@ 0x40
 8001640:	2100      	movs	r1, #0
 8001642:	a820      	add	r0, sp, #128	@ 0x80
 8001644:	f004 fc77 	bl	8005f36 <memset>
 8001648:	0033      	movs	r3, r6
 800164a:	002a      	movs	r2, r5
 800164c:	0020      	movs	r0, r4
 800164e:	a920      	add	r1, sp, #128	@ 0x80
 8001650:	f7ff f8fe 	bl	8000850 <i2c1_read_with_stop>
 8001654:	2800      	cmp	r0, #0
 8001656:	d101      	bne.n	800165c <main+0xaf0>
 8001658:	f7ff fbce 	bl	8000df8 <main+0x28c>
 800165c:	0029      	movs	r1, r5
 800165e:	e478      	b.n	8000f52 <main+0x3e6>
 8001660:	2f04      	cmp	r7, #4
 8001662:	d001      	beq.n	8001668 <main+0xafc>
 8001664:	f7ff fbc8 	bl	8000df8 <main+0x28c>
 8001668:	2240      	movs	r2, #64	@ 0x40
 800166a:	2100      	movs	r1, #0
 800166c:	a820      	add	r0, sp, #128	@ 0x80
 800166e:	f004 fc62 	bl	8005f36 <memset>
 8001672:	1c2b      	adds	r3, r5, #0
 8001674:	2d07      	cmp	r5, #7
 8001676:	d900      	bls.n	800167a <main+0xb0e>
 8001678:	2307      	movs	r3, #7
 800167a:	b2db      	uxtb	r3, r3
 800167c:	9304      	str	r3, [sp, #16]
 800167e:	466b      	mov	r3, sp
 8001680:	7b1f      	ldrb	r7, [r3, #12]
 8001682:	9b03      	ldr	r3, [sp, #12]
 8001684:	2b11      	cmp	r3, #17
 8001686:	d900      	bls.n	800168a <main+0xb1e>
 8001688:	2711      	movs	r7, #17
 800168a:	9b05      	ldr	r3, [sp, #20]
 800168c:	b2ff      	uxtb	r7, r7
 800168e:	6818      	ldr	r0, [r3, #0]
 8001690:	f7fe fe7c 	bl	800038c <i2c1_ensure>
 8001694:	2800      	cmp	r0, #0
 8001696:	d101      	bne.n	800169c <main+0xb30>
 8001698:	f7ff fbae 	bl	8000df8 <main+0x28c>
 800169c:	2d00      	cmp	r5, #0
 800169e:	d106      	bne.n	80016ae <main+0xb42>
 80016a0:	0033      	movs	r3, r6
 80016a2:	003a      	movs	r2, r7
 80016a4:	0020      	movs	r0, r4
 80016a6:	a920      	add	r1, sp, #128	@ 0x80
 80016a8:	f7ff f8d2 	bl	8000850 <i2c1_read_with_stop>
 80016ac:	e008      	b.n	80016c0 <main+0xb54>
 80016ae:	9b03      	ldr	r3, [sp, #12]
 80016b0:	2b00      	cmp	r3, #0
 80016b2:	d10b      	bne.n	80016cc <main+0xb60>
 80016b4:	0033      	movs	r3, r6
 80016b6:	2201      	movs	r2, #1
 80016b8:	0020      	movs	r0, r4
 80016ba:	9904      	ldr	r1, [sp, #16]
 80016bc:	f7ff f888 	bl	80007d0 <i2c1_write_then_maybe_stop.constprop.0>
 80016c0:	0039      	movs	r1, r7
 80016c2:	2800      	cmp	r0, #0
 80016c4:	d000      	beq.n	80016c8 <main+0xb5c>
 80016c6:	e444      	b.n	8000f52 <main+0x3e6>
 80016c8:	f7ff fb96 	bl	8000df8 <main+0x28c>
 80016cc:	0033      	movs	r3, r6
 80016ce:	2200      	movs	r2, #0
 80016d0:	0020      	movs	r0, r4
 80016d2:	9904      	ldr	r1, [sp, #16]
 80016d4:	f7ff f87c 	bl	80007d0 <i2c1_write_then_maybe_stop.constprop.0>
 80016d8:	2800      	cmp	r0, #0
 80016da:	d101      	bne.n	80016e0 <main+0xb74>
 80016dc:	f7ff fb8c 	bl	8000df8 <main+0x28c>
 80016e0:	e7de      	b.n	80016a0 <main+0xb34>
 80016e2:	7860      	ldrb	r0, [r4, #1]
 80016e4:	78a5      	ldrb	r5, [r4, #2]
 80016e6:	78e7      	ldrb	r7, [r4, #3]
 80016e8:	281f      	cmp	r0, #31
 80016ea:	d901      	bls.n	80016f0 <main+0xb84>
 80016ec:	f7ff fb84 	bl	8000df8 <main+0x28c>
 80016f0:	1c3c      	adds	r4, r7, #0
 80016f2:	2f0e      	cmp	r7, #14
 80016f4:	d900      	bls.n	80016f8 <main+0xb8c>
 80016f6:	240e      	movs	r4, #14
 80016f8:	2300      	movs	r3, #0
 80016fa:	aa04      	add	r2, sp, #16
 80016fc:	8153      	strh	r3, [r2, #10]
 80016fe:	9307      	str	r3, [sp, #28]
 8001700:	330a      	adds	r3, #10
 8001702:	189b      	adds	r3, r3, r2
 8001704:	001a      	movs	r2, r3
 8001706:	a907      	add	r1, sp, #28
 8001708:	b2e4      	uxtb	r4, r4
 800170a:	f7ff f82b 	bl	8000764 <decode_encoded_pin.part.0.constprop.0>
 800170e:	2800      	cmp	r0, #0
 8001710:	d101      	bne.n	8001716 <main+0xbaa>
 8001712:	f7ff fb71 	bl	8000df8 <main+0x28c>
 8001716:	2d00      	cmp	r5, #0
 8001718:	d046      	beq.n	80017a8 <main+0xc3c>
 800171a:	2d11      	cmp	r5, #17
 800171c:	d84a      	bhi.n	80017b4 <main+0xc48>
 800171e:	1c26      	adds	r6, r4, #0
 8001720:	42ac      	cmp	r4, r5
 8001722:	d200      	bcs.n	8001726 <main+0xbba>
 8001724:	1c2e      	adds	r6, r5, #0
 8001726:	b2f6      	uxtb	r6, r6
 8001728:	2d00      	cmp	r5, #0
 800172a:	d100      	bne.n	800172e <main+0xbc2>
 800172c:	e4de      	b.n	80010ec <main+0x580>
 800172e:	2240      	movs	r2, #64	@ 0x40
 8001730:	2100      	movs	r1, #0
 8001732:	a810      	add	r0, sp, #64	@ 0x40
 8001734:	f004 fbff 	bl	8005f36 <memset>
 8001738:	2f00      	cmp	r7, #0
 800173a:	d004      	beq.n	8001746 <main+0xbda>
 800173c:	0022      	movs	r2, r4
 800173e:	495e      	ldr	r1, [pc, #376]	@ (80018b8 <main+0xd4c>)
 8001740:	a810      	add	r0, sp, #64	@ 0x40
 8001742:	f004 fc25 	bl	8005f90 <memcpy>
 8001746:	2240      	movs	r2, #64	@ 0x40
 8001748:	2100      	movs	r1, #0
 800174a:	a820      	add	r0, sp, #128	@ 0x80
 800174c:	f004 fbf3 	bl	8005f36 <memset>
 8001750:	9c07      	ldr	r4, [sp, #28]
 8001752:	0020      	movs	r0, r4
 8001754:	f7fe ff80 	bl	8000658 <enable_gpio_clock>
 8001758:	ab04      	add	r3, sp, #16
 800175a:	895f      	ldrh	r7, [r3, #10]
 800175c:	2c00      	cmp	r4, #0
 800175e:	d000      	beq.n	8001762 <main+0xbf6>
 8001760:	61a7      	str	r7, [r4, #24]
 8001762:	2300      	movs	r3, #0
 8001764:	2201      	movs	r2, #1
 8001766:	0039      	movs	r1, r7
 8001768:	0020      	movs	r0, r4
 800176a:	f7fe ff99 	bl	80006a0 <configurePin>
 800176e:	2201      	movs	r2, #1
 8001770:	0039      	movs	r1, r7
 8001772:	0020      	movs	r0, r4
 8001774:	f000 fe04 	bl	8002380 <HAL_GPIO_WritePin>
 8001778:	2200      	movs	r2, #0
 800177a:	0039      	movs	r1, r7
 800177c:	0020      	movs	r0, r4
 800177e:	f000 fdff 	bl	8002380 <HAL_GPIO_WritePin>
 8001782:	2364      	movs	r3, #100	@ 0x64
 8001784:	aa20      	add	r2, sp, #128	@ 0x80
 8001786:	9300      	str	r3, [sp, #0]
 8001788:	a910      	add	r1, sp, #64	@ 0x40
 800178a:	0033      	movs	r3, r6
 800178c:	484b      	ldr	r0, [pc, #300]	@ (80018bc <main+0xd50>)
 800178e:	f002 f9ab 	bl	8003ae8 <HAL_SPI_TransmitReceive>
 8001792:	2201      	movs	r2, #1
 8001794:	0006      	movs	r6, r0
 8001796:	0039      	movs	r1, r7
 8001798:	0020      	movs	r0, r4
 800179a:	f000 fdf1 	bl	8002380 <HAL_GPIO_WritePin>
 800179e:	2e00      	cmp	r6, #0
 80017a0:	d001      	beq.n	80017a6 <main+0xc3a>
 80017a2:	f7ff fb29 	bl	8000df8 <main+0x28c>
 80017a6:	e759      	b.n	800165c <main+0xaf0>
 80017a8:	2f00      	cmp	r7, #0
 80017aa:	d100      	bne.n	80017ae <main+0xc42>
 80017ac:	e49e      	b.n	80010ec <main+0x580>
 80017ae:	0025      	movs	r5, r4
 80017b0:	0026      	movs	r6, r4
 80017b2:	e7b9      	b.n	8001728 <main+0xbbc>
 80017b4:	2511      	movs	r5, #17
 80017b6:	002e      	movs	r6, r5
 80017b8:	e7b9      	b.n	800172e <main+0xbc2>
 80017ba:	2b01      	cmp	r3, #1
 80017bc:	d001      	beq.n	80017c2 <main+0xc56>
 80017be:	f7ff fb1b 	bl	8000df8 <main+0x28c>
 80017c2:	483f      	ldr	r0, [pc, #252]	@ (80018c0 <main+0xd54>)
 80017c4:	f002 fb6c 	bl	8003ea0 <HAL_TIM_Base_Stop_IT>
 80017c8:	2000      	movs	r0, #0
 80017ca:	f004 f86d 	bl	80058a8 <MIDI_SetBufferType_FS>
 80017ce:	2000      	movs	r0, #0
 80017d0:	4b3c      	ldr	r3, [pc, #240]	@ (80018c4 <main+0xd58>)
 80017d2:	0001      	movs	r1, r0
 80017d4:	7018      	strb	r0, [r3, #0]
 80017d6:	4b3c      	ldr	r3, [pc, #240]	@ (80018c8 <main+0xd5c>)
 80017d8:	7018      	strb	r0, [r3, #0]
 80017da:	4b3c      	ldr	r3, [pc, #240]	@ (80018cc <main+0xd60>)
 80017dc:	7018      	strb	r0, [r3, #0]
 80017de:	4b3c      	ldr	r3, [pc, #240]	@ (80018d0 <main+0xd64>)
 80017e0:	7018      	strb	r0, [r3, #0]
 80017e2:	4b3c      	ldr	r3, [pc, #240]	@ (80018d4 <main+0xd68>)
 80017e4:	7018      	strb	r0, [r3, #0]
 80017e6:	4b3c      	ldr	r3, [pc, #240]	@ (80018d8 <main+0xd6c>)
 80017e8:	7018      	strb	r0, [r3, #0]
 80017ea:	4b3c      	ldr	r3, [pc, #240]	@ (80018dc <main+0xd70>)
 80017ec:	7018      	strb	r0, [r3, #0]
 80017ee:	7038      	strb	r0, [r7, #0]
 80017f0:	f7ff fb5b 	bl	8000eaa <main+0x33e>
 80017f4:	7863      	ldrb	r3, [r4, #1]
 80017f6:	2b00      	cmp	r3, #0
 80017f8:	d109      	bne.n	800180e <main+0xca2>
 80017fa:	4827      	ldr	r0, [pc, #156]	@ (8001898 <main+0xd2c>)
 80017fc:	f7fe fd74 	bl	80002e8 <emw_u32_le>
 8001800:	2800      	cmp	r0, #0
 8001802:	d101      	bne.n	8001808 <main+0xc9c>
 8001804:	f7ff faf8 	bl	8000df8 <main+0x28c>
 8001808:	f7fe ff90 	bl	800072c <tim2_set_pwm_hz>
 800180c:	e60c      	b.n	8001428 <main+0x8bc>
 800180e:	2b02      	cmp	r3, #2
 8001810:	d166      	bne.n	80018e0 <main+0xd74>
 8001812:	78a0      	ldrb	r0, [r4, #2]
 8001814:	2400      	movs	r4, #0
 8001816:	ab04      	add	r3, sp, #16
 8001818:	861c      	strh	r4, [r3, #48]	@ 0x30
 800181a:	aa10      	add	r2, sp, #64	@ 0x40
 800181c:	a920      	add	r1, sp, #128	@ 0x80
 800181e:	9420      	str	r4, [sp, #128]	@ 0x80
 8001820:	f7fe ffa0 	bl	8000764 <decode_encoded_pin.part.0.constprop.0>
 8001824:	42a0      	cmp	r0, r4
 8001826:	d101      	bne.n	800182c <main+0xcc0>
 8001828:	f7ff fae6 	bl	8000df8 <main+0x28c>
 800182c:	ab04      	add	r3, sp, #16
 800182e:	731c      	strb	r4, [r3, #12]
 8001830:	8e1c      	ldrh	r4, [r3, #48]	@ 0x30
 8001832:	a907      	add	r1, sp, #28
 8001834:	0020      	movs	r0, r4
 8001836:	f7ff f841 	bl	80008bc <pin_mask_to_index.constprop.0>
 800183a:	2800      	cmp	r0, #0
 800183c:	d101      	bne.n	8001842 <main+0xcd6>
 800183e:	f7ff fadb 	bl	8000df8 <main+0x28c>
 8001842:	2590      	movs	r5, #144	@ 0x90
 8001844:	ab04      	add	r3, sp, #16
 8001846:	7b18      	ldrb	r0, [r3, #12]
 8001848:	9b20      	ldr	r3, [sp, #128]	@ 0x80
 800184a:	05ed      	lsls	r5, r5, #23
 800184c:	42ab      	cmp	r3, r5
 800184e:	d001      	beq.n	8001854 <main+0xce8>
 8001850:	f7ff fad2 	bl	8000df8 <main+0x28c>
 8001854:	2803      	cmp	r0, #3
 8001856:	d901      	bls.n	800185c <main+0xcf0>
 8001858:	f7ff face 	bl	8000df8 <main+0x28c>
 800185c:	f7fe fc66 	bl	800012c <__gnu_thumb1_case_uqi>
 8001860:	19171502 	.word	0x19171502
 8001864:	2000      	movs	r0, #0
 8001866:	f7ff f84b 	bl	8000900 <tim2_stop_pwm_channel>
 800186a:	2090      	movs	r0, #144	@ 0x90
 800186c:	0423      	lsls	r3, r4, #16
 800186e:	2201      	movs	r2, #1
 8001870:	0021      	movs	r1, r4
 8001872:	61ab      	str	r3, [r5, #24]
 8001874:	05c0      	lsls	r0, r0, #23
 8001876:	2300      	movs	r3, #0
 8001878:	f7fe ff44 	bl	8000704 <gpio_set_mode>
 800187c:	2090      	movs	r0, #144	@ 0x90
 800187e:	2200      	movs	r2, #0
 8001880:	0021      	movs	r1, r4
 8001882:	05c0      	lsls	r0, r0, #23
 8001884:	f000 fd7c 	bl	8002380 <HAL_GPIO_WritePin>
 8001888:	e430      	b.n	80010ec <main+0x580>
 800188a:	2004      	movs	r0, #4
 800188c:	e7eb      	b.n	8001866 <main+0xcfa>
 800188e:	2008      	movs	r0, #8
 8001890:	e7e9      	b.n	8001866 <main+0xcfa>
 8001892:	200c      	movs	r0, #12
 8001894:	e7e7      	b.n	8001866 <main+0xcfa>
 8001896:	46c0      	nop			@ (mov r8, r8)
 8001898:	20000351 	.word	0x20000351
 800189c:	20000000 	.word	0x20000000
 80018a0:	000186a0 	.word	0x000186a0
 80018a4:	40005400 	.word	0x40005400
 80018a8:	40021000 	.word	0x40021000
 80018ac:	ffdfffff 	.word	0xffdfffff
 80018b0:	200001f4 	.word	0x200001f4
 80018b4:	200001f6 	.word	0x200001f6
 80018b8:	20000353 	.word	0x20000353
 80018bc:	2000043c 	.word	0x2000043c
 80018c0:	20000364 	.word	0x20000364
 80018c4:	2000021b 	.word	0x2000021b
 80018c8:	2000021a 	.word	0x2000021a
 80018cc:	20000219 	.word	0x20000219
 80018d0:	20000218 	.word	0x20000218
 80018d4:	20000212 	.word	0x20000212
 80018d8:	20000211 	.word	0x20000211
 80018dc:	20000210 	.word	0x20000210
 80018e0:	2b01      	cmp	r3, #1
 80018e2:	d001      	beq.n	80018e8 <main+0xd7c>
 80018e4:	f7ff fa88 	bl	8000df8 <main+0x28c>
 80018e8:	7925      	ldrb	r5, [r4, #4]
 80018ea:	78e3      	ldrb	r3, [r4, #3]
 80018ec:	489a      	ldr	r0, [pc, #616]	@ (8001b58 <main+0xfec>)
 80018ee:	022d      	lsls	r5, r5, #8
 80018f0:	431d      	orrs	r5, r3
 80018f2:	f7fe fcf9 	bl	80002e8 <emw_u32_le>
 80018f6:	2280      	movs	r2, #128	@ 0x80
 80018f8:	0007      	movs	r7, r0
 80018fa:	78a6      	ldrb	r6, [r4, #2]
 80018fc:	1c2b      	adds	r3, r5, #0
 80018fe:	0152      	lsls	r2, r2, #5
 8001900:	4295      	cmp	r5, r2
 8001902:	d301      	bcc.n	8001908 <main+0xd9c>
 8001904:	4b95      	ldr	r3, [pc, #596]	@ (8001b5c <main+0xff0>)
 8001906:	881b      	ldrh	r3, [r3, #0]
 8001908:	2400      	movs	r4, #0
 800190a:	b29b      	uxth	r3, r3
 800190c:	9303      	str	r3, [sp, #12]
 800190e:	ab04      	add	r3, sp, #16
 8001910:	0030      	movs	r0, r6
 8001912:	861c      	strh	r4, [r3, #48]	@ 0x30
 8001914:	aa10      	add	r2, sp, #64	@ 0x40
 8001916:	a920      	add	r1, sp, #128	@ 0x80
 8001918:	9420      	str	r4, [sp, #128]	@ 0x80
 800191a:	f7fe ff23 	bl	8000764 <decode_encoded_pin.part.0.constprop.0>
 800191e:	42a0      	cmp	r0, r4
 8001920:	d101      	bne.n	8001926 <main+0xdba>
 8001922:	f7ff fa69 	bl	8000df8 <main+0x28c>
 8001926:	ab04      	add	r3, sp, #16
 8001928:	8e1e      	ldrh	r6, [r3, #48]	@ 0x30
 800192a:	731c      	strb	r4, [r3, #12]
 800192c:	0030      	movs	r0, r6
 800192e:	a907      	add	r1, sp, #28
 8001930:	f7fe ffc4 	bl	80008bc <pin_mask_to_index.constprop.0>
 8001934:	2800      	cmp	r0, #0
 8001936:	d101      	bne.n	800193c <main+0xdd0>
 8001938:	f7ff fa5e 	bl	8000df8 <main+0x28c>
 800193c:	ab04      	add	r3, sp, #16
 800193e:	7b18      	ldrb	r0, [r3, #12]
 8001940:	2390      	movs	r3, #144	@ 0x90
 8001942:	9a20      	ldr	r2, [sp, #128]	@ 0x80
 8001944:	05db      	lsls	r3, r3, #23
 8001946:	429a      	cmp	r2, r3
 8001948:	d001      	beq.n	800194e <main+0xde2>
 800194a:	f7ff fa55 	bl	8000df8 <main+0x28c>
 800194e:	2803      	cmp	r0, #3
 8001950:	d901      	bls.n	8001956 <main+0xdea>
 8001952:	f7ff fa51 	bl	8000df8 <main+0x28c>
 8001956:	f7fe fbe9 	bl	800012c <__gnu_thumb1_case_uqi>
 800195a:	1f02      	.short	0x1f02
 800195c:	2321      	.short	0x2321
 800195e:	2400      	movs	r4, #0
 8001960:	2f00      	cmp	r7, #0
 8001962:	d006      	beq.n	8001972 <main+0xe06>
 8001964:	0038      	movs	r0, r7
 8001966:	f7fe fee1 	bl	800072c <tim2_set_pwm_hz>
 800196a:	2800      	cmp	r0, #0
 800196c:	d101      	bne.n	8001972 <main+0xe06>
 800196e:	f7ff fa43 	bl	8000df8 <main+0x28c>
 8001972:	2d00      	cmp	r5, #0
 8001974:	d116      	bne.n	80019a4 <main+0xe38>
 8001976:	0020      	movs	r0, r4
 8001978:	2490      	movs	r4, #144	@ 0x90
 800197a:	f7fe ffc1 	bl	8000900 <tim2_stop_pwm_channel>
 800197e:	05e4      	lsls	r4, r4, #23
 8001980:	0433      	lsls	r3, r6, #16
 8001982:	2201      	movs	r2, #1
 8001984:	61a3      	str	r3, [r4, #24]
 8001986:	0031      	movs	r1, r6
 8001988:	002b      	movs	r3, r5
 800198a:	0020      	movs	r0, r4
 800198c:	f7fe feba 	bl	8000704 <gpio_set_mode>
 8001990:	002a      	movs	r2, r5
 8001992:	0031      	movs	r1, r6
 8001994:	0020      	movs	r0, r4
 8001996:	e775      	b.n	8001884 <main+0xd18>
 8001998:	2404      	movs	r4, #4
 800199a:	e7e1      	b.n	8001960 <main+0xdf4>
 800199c:	2408      	movs	r4, #8
 800199e:	e7df      	b.n	8001960 <main+0xdf4>
 80019a0:	240c      	movs	r4, #12
 80019a2:	e7dd      	b.n	8001960 <main+0xdf4>
 80019a4:	4b6e      	ldr	r3, [pc, #440]	@ (8001b60 <main+0xff4>)
 80019a6:	429d      	cmp	r5, r3
 80019a8:	d90d      	bls.n	80019c6 <main+0xe5a>
 80019aa:	0020      	movs	r0, r4
 80019ac:	2490      	movs	r4, #144	@ 0x90
 80019ae:	05e4      	lsls	r4, r4, #23
 80019b0:	f7fe ffa6 	bl	8000900 <tim2_stop_pwm_channel>
 80019b4:	2201      	movs	r2, #1
 80019b6:	2300      	movs	r3, #0
 80019b8:	0031      	movs	r1, r6
 80019ba:	0020      	movs	r0, r4
 80019bc:	61a6      	str	r6, [r4, #24]
 80019be:	f7fe fea1 	bl	8000704 <gpio_set_mode>
 80019c2:	2201      	movs	r2, #1
 80019c4:	e7e5      	b.n	8001992 <main+0xe26>
 80019c6:	2090      	movs	r0, #144	@ 0x90
 80019c8:	2580      	movs	r5, #128	@ 0x80
 80019ca:	0031      	movs	r1, r6
 80019cc:	2300      	movs	r3, #0
 80019ce:	2202      	movs	r2, #2
 80019d0:	05c0      	lsls	r0, r0, #23
 80019d2:	05ed      	lsls	r5, r5, #23
 80019d4:	f7fe fe64 	bl	80006a0 <configurePin>
 80019d8:	6aee      	ldr	r6, [r5, #44]	@ 0x2c
 80019da:	9a03      	ldr	r2, [sp, #12]
 80019dc:	1c73      	adds	r3, r6, #1
 80019de:	435a      	muls	r2, r3
 80019e0:	0013      	movs	r3, r2
 80019e2:	4a60      	ldr	r2, [pc, #384]	@ (8001b64 <main+0xff8>)
 80019e4:	4960      	ldr	r1, [pc, #384]	@ (8001b68 <main+0xffc>)
 80019e6:	1898      	adds	r0, r3, r2
 80019e8:	f7fe fbb4 	bl	8000154 <__udivsi3>
 80019ec:	42b0      	cmp	r0, r6
 80019ee:	d900      	bls.n	80019f2 <main+0xe86>
 80019f0:	0030      	movs	r0, r6
 80019f2:	2c08      	cmp	r4, #8
 80019f4:	d017      	beq.n	8001a26 <main+0xeba>
 80019f6:	d818      	bhi.n	8001a2a <main+0xebe>
 80019f8:	2c00      	cmp	r4, #0
 80019fa:	d112      	bne.n	8001a22 <main+0xeb6>
 80019fc:	6368      	str	r0, [r5, #52]	@ 0x34
 80019fe:	2301      	movs	r3, #1
 8001a00:	682a      	ldr	r2, [r5, #0]
 8001a02:	431a      	orrs	r2, r3
 8001a04:	602a      	str	r2, [r5, #0]
 8001a06:	6a2a      	ldr	r2, [r5, #32]
 8001a08:	2c08      	cmp	r4, #8
 8001a0a:	d012      	beq.n	8001a32 <main+0xec6>
 8001a0c:	d814      	bhi.n	8001a38 <main+0xecc>
 8001a0e:	2c00      	cmp	r4, #0
 8001a10:	d10d      	bne.n	8001a2e <main+0xec2>
 8001a12:	4313      	orrs	r3, r2
 8001a14:	0021      	movs	r1, r4
 8001a16:	622b      	str	r3, [r5, #32]
 8001a18:	4854      	ldr	r0, [pc, #336]	@ (8001b6c <main+0x1000>)
 8001a1a:	f002 fc93 	bl	8004344 <HAL_TIM_PWM_Start>
 8001a1e:	f7ff fb65 	bl	80010ec <main+0x580>
 8001a22:	63a8      	str	r0, [r5, #56]	@ 0x38
 8001a24:	e7eb      	b.n	80019fe <main+0xe92>
 8001a26:	63e8      	str	r0, [r5, #60]	@ 0x3c
 8001a28:	e7e9      	b.n	80019fe <main+0xe92>
 8001a2a:	6428      	str	r0, [r5, #64]	@ 0x40
 8001a2c:	e7e7      	b.n	80019fe <main+0xe92>
 8001a2e:	2310      	movs	r3, #16
 8001a30:	e7ef      	b.n	8001a12 <main+0xea6>
 8001a32:	2380      	movs	r3, #128	@ 0x80
 8001a34:	005b      	lsls	r3, r3, #1
 8001a36:	e7ec      	b.n	8001a12 <main+0xea6>
 8001a38:	2380      	movs	r3, #128	@ 0x80
 8001a3a:	015b      	lsls	r3, r3, #5
 8001a3c:	e7e9      	b.n	8001a12 <main+0xea6>
 8001a3e:	7863      	ldrb	r3, [r4, #1]
 8001a40:	78a5      	ldrb	r5, [r4, #2]
 8001a42:	2b01      	cmp	r3, #1
 8001a44:	d101      	bne.n	8001a4a <main+0xede>
 8001a46:	f7ff fb51 	bl	80010ec <main+0x580>
 8001a4a:	2b00      	cmp	r3, #0
 8001a4c:	d001      	beq.n	8001a52 <main+0xee6>
 8001a4e:	f7ff f9d3 	bl	8000df8 <main+0x28c>
 8001a52:	2d03      	cmp	r5, #3
 8001a54:	d901      	bls.n	8001a5a <main+0xeee>
 8001a56:	f7ff f9cf 	bl	8000df8 <main+0x28c>
 8001a5a:	78e3      	ldrb	r3, [r4, #3]
 8001a5c:	2632      	movs	r6, #50	@ 0x32
 8001a5e:	2b00      	cmp	r3, #0
 8001a60:	d004      	beq.n	8001a6c <main+0xf00>
 8001a62:	1c1e      	adds	r6, r3, #0
 8001a64:	2b64      	cmp	r3, #100	@ 0x64
 8001a66:	d900      	bls.n	8001a6a <main+0xefe>
 8001a68:	2664      	movs	r6, #100	@ 0x64
 8001a6a:	b2f6      	uxtb	r6, r6
 8001a6c:	4840      	ldr	r0, [pc, #256]	@ (8001b70 <main+0x1004>)
 8001a6e:	f7fe fc3b 	bl	80002e8 <emw_u32_le>
 8001a72:	1e6b      	subs	r3, r5, #1
 8001a74:	b2db      	uxtb	r3, r3
 8001a76:	0007      	movs	r7, r0
 8001a78:	7a24      	ldrb	r4, [r4, #8]
 8001a7a:	2b02      	cmp	r3, #2
 8001a7c:	d85c      	bhi.n	8001b38 <main+0xfcc>
 8001a7e:	4a3d      	ldr	r2, [pc, #244]	@ (8001b74 <main+0x1008>)
 8001a80:	00ad      	lsls	r5, r5, #2
 8001a82:	5cd1      	ldrb	r1, [r2, r3]
 8001a84:	2302      	movs	r3, #2
 8001a86:	2090      	movs	r0, #144	@ 0x90
 8001a88:	001a      	movs	r2, r3
 8001a8a:	05c0      	lsls	r0, r0, #23
 8001a8c:	f7fe fe08 	bl	80006a0 <configurePin>
 8001a90:	2f00      	cmp	r7, #0
 8001a92:	d002      	beq.n	8001a9a <main+0xf2e>
 8001a94:	0038      	movs	r0, r7
 8001a96:	f7fe fe49 	bl	800072c <tim2_set_pwm_hz>
 8001a9a:	2780      	movs	r7, #128	@ 0x80
 8001a9c:	05ff      	lsls	r7, r7, #23
 8001a9e:	6af8      	ldr	r0, [r7, #44]	@ 0x2c
 8001aa0:	2164      	movs	r1, #100	@ 0x64
 8001aa2:	4370      	muls	r0, r6
 8001aa4:	f7fe fb56 	bl	8000154 <__udivsi3>
 8001aa8:	4b33      	ldr	r3, [pc, #204]	@ (8001b78 <main+0x100c>)
 8001aaa:	2d08      	cmp	r5, #8
 8001aac:	d04b      	beq.n	8001b46 <main+0xfda>
 8001aae:	d84c      	bhi.n	8001b4a <main+0xfde>
 8001ab0:	2d00      	cmp	r5, #0
 8001ab2:	d144      	bne.n	8001b3e <main+0xfd2>
 8001ab4:	6378      	str	r0, [r7, #52]	@ 0x34
 8001ab6:	601d      	str	r5, [r3, #0]
 8001ab8:	4b30      	ldr	r3, [pc, #192]	@ (8001b7c <main+0x1010>)
 8001aba:	006a      	lsls	r2, r5, #1
 8001abc:	5ad2      	ldrh	r2, [r2, r3]
 8001abe:	4b30      	ldr	r3, [pc, #192]	@ (8001b80 <main+0x1014>)
 8001ac0:	0029      	movs	r1, r5
 8001ac2:	801a      	strh	r2, [r3, #0]
 8001ac4:	2300      	movs	r3, #0
 8001ac6:	4a2f      	ldr	r2, [pc, #188]	@ (8001b84 <main+0x1018>)
 8001ac8:	4828      	ldr	r0, [pc, #160]	@ (8001b6c <main+0x1000>)
 8001aca:	7013      	strb	r3, [r2, #0]
 8001acc:	4a2e      	ldr	r2, [pc, #184]	@ (8001b88 <main+0x101c>)
 8001ace:	7013      	strb	r3, [r2, #0]
 8001ad0:	4a2e      	ldr	r2, [pc, #184]	@ (8001b8c <main+0x1020>)
 8001ad2:	7013      	strb	r3, [r2, #0]
 8001ad4:	f002 fc36 	bl	8004344 <HAL_TIM_PWM_Start>
 8001ad8:	2c00      	cmp	r4, #0
 8001ada:	d002      	beq.n	8001ae2 <main+0xf76>
 8001adc:	0020      	movs	r0, r4
 8001ade:	f7fe fbdf 	bl	80002a0 <tim3_set_tick_us>
 8001ae2:	f003 ffdf 	bl	8005aa4 <MIDI_InitRxBuffer_FS>
 8001ae6:	2001      	movs	r0, #1
 8001ae8:	f003 fede 	bl	80058a8 <MIDI_SetBufferType_FS>
 8001aec:	f000 f9a6 	bl	8001e3c <HAL_GetTick>
 8001af0:	26fa      	movs	r6, #250	@ 0xfa
 8001af2:	0004      	movs	r4, r0
 8001af4:	00f6      	lsls	r6, r6, #3
 8001af6:	f003 fee3 	bl	80058c0 <MIDI_GetRxBufferBytesAvailable_FS>
 8001afa:	28f9      	cmp	r0, #249	@ 0xf9
 8001afc:	d806      	bhi.n	8001b0c <main+0xfa0>
 8001afe:	f004 f879 	bl	8005bf4 <MIDI_PollTx_FS>
 8001b02:	f000 f99b 	bl	8001e3c <HAL_GetTick>
 8001b06:	1b00      	subs	r0, r0, r4
 8001b08:	42b0      	cmp	r0, r6
 8001b0a:	d9f4      	bls.n	8001af6 <main+0xf8a>
 8001b0c:	4e20      	ldr	r6, [pc, #128]	@ (8001b90 <main+0x1024>)
 8001b0e:	0030      	movs	r0, r6
 8001b10:	f002 f99c 	bl	8003e4c <HAL_TIM_Base_Start_IT>
 8001b14:	f003 fed4 	bl	80058c0 <MIDI_GetRxBufferBytesAvailable_FS>
 8001b18:	1e04      	subs	r4, r0, #0
 8001b1a:	d119      	bne.n	8001b50 <main+0xfe4>
 8001b1c:	0030      	movs	r0, r6
 8001b1e:	f002 f9bf 	bl	8003ea0 <HAL_TIM_Base_Stop_IT>
 8001b22:	0020      	movs	r0, r4
 8001b24:	f003 fec0 	bl	80058a8 <MIDI_SetBufferType_FS>
 8001b28:	0028      	movs	r0, r5
 8001b2a:	f7fe fd6d 	bl	8000608 <stopPWM_TIM2>
 8001b2e:	f003 ffa5 	bl	8005a7c <MIDI_FlushRxBuffer_FS>
 8001b32:	f003 ffbb 	bl	8005aac <MIDI_FreeRxBuffer_FS>
 8001b36:	e4d0      	b.n	80014da <main+0x96e>
 8001b38:	2101      	movs	r1, #1
 8001b3a:	2500      	movs	r5, #0
 8001b3c:	e7a2      	b.n	8001a84 <main+0xf18>
 8001b3e:	2204      	movs	r2, #4
 8001b40:	63b8      	str	r0, [r7, #56]	@ 0x38
 8001b42:	601a      	str	r2, [r3, #0]
 8001b44:	e7b8      	b.n	8001ab8 <main+0xf4c>
 8001b46:	63f8      	str	r0, [r7, #60]	@ 0x3c
 8001b48:	e7b5      	b.n	8001ab6 <main+0xf4a>
 8001b4a:	220c      	movs	r2, #12
 8001b4c:	6438      	str	r0, [r7, #64]	@ 0x40
 8001b4e:	e7f8      	b.n	8001b42 <main+0xfd6>
 8001b50:	f004 f850 	bl	8005bf4 <MIDI_PollTx_FS>
 8001b54:	e7de      	b.n	8001b14 <main+0xfa8>
 8001b56:	46c0      	nop			@ (mov r8, r8)
 8001b58:	20000354 	.word	0x20000354
 8001b5c:	08005fd0 	.word	0x08005fd0
 8001b60:	00000ffe 	.word	0x00000ffe
 8001b64:	000007ff 	.word	0x000007ff
 8001b68:	00000fff 	.word	0x00000fff
 8001b6c:	200003ac 	.word	0x200003ac
 8001b70:	20000353 	.word	0x20000353
 8001b74:	08005fd2 	.word	0x08005fd2
 8001b78:	2000000c 	.word	0x2000000c
 8001b7c:	08005fde 	.word	0x08005fde
 8001b80:	2000000a 	.word	0x2000000a
 8001b84:	2000020f 	.word	0x2000020f
 8001b88:	2000020e 	.word	0x2000020e
 8001b8c:	2000020d 	.word	0x2000020d
 8001b90:	20000364 	.word	0x20000364

08001b94 <Error_Handler>:
 8001b94:	b672      	cpsid	i
 8001b96:	e7fe      	b.n	8001b96 <Error_Handler+0x2>

08001b98 <HAL_MspInit>:
 8001b98:	2101      	movs	r1, #1
 8001b9a:	4b0c      	ldr	r3, [pc, #48]	@ (8001bcc <HAL_MspInit+0x34>)
 8001b9c:	b082      	sub	sp, #8
 8001b9e:	699a      	ldr	r2, [r3, #24]
 8001ba0:	430a      	orrs	r2, r1
 8001ba2:	619a      	str	r2, [r3, #24]
 8001ba4:	699a      	ldr	r2, [r3, #24]
 8001ba6:	400a      	ands	r2, r1
 8001ba8:	2180      	movs	r1, #128	@ 0x80
 8001baa:	9200      	str	r2, [sp, #0]
 8001bac:	9a00      	ldr	r2, [sp, #0]
 8001bae:	69da      	ldr	r2, [r3, #28]
 8001bb0:	0549      	lsls	r1, r1, #21
 8001bb2:	430a      	orrs	r2, r1
 8001bb4:	61da      	str	r2, [r3, #28]
 8001bb6:	69db      	ldr	r3, [r3, #28]
 8001bb8:	4a05      	ldr	r2, [pc, #20]	@ (8001bd0 <HAL_MspInit+0x38>)
 8001bba:	400b      	ands	r3, r1
 8001bbc:	9301      	str	r3, [sp, #4]
 8001bbe:	9b01      	ldr	r3, [sp, #4]
 8001bc0:	2310      	movs	r3, #16
 8001bc2:	6811      	ldr	r1, [r2, #0]
 8001bc4:	430b      	orrs	r3, r1
 8001bc6:	6013      	str	r3, [r2, #0]
 8001bc8:	b002      	add	sp, #8
 8001bca:	4770      	bx	lr
 8001bcc:	40021000 	.word	0x40021000
 8001bd0:	40010000 	.word	0x40010000

08001bd4 <HAL_SPI_MspInit>:
 8001bd4:	b510      	push	{r4, lr}
 8001bd6:	0004      	movs	r4, r0
 8001bd8:	b088      	sub	sp, #32
 8001bda:	2214      	movs	r2, #20
 8001bdc:	2100      	movs	r1, #0
 8001bde:	a803      	add	r0, sp, #12
 8001be0:	f004 f9a9 	bl	8005f36 <memset>
 8001be4:	4b11      	ldr	r3, [pc, #68]	@ (8001c2c <HAL_SPI_MspInit+0x58>)
 8001be6:	6822      	ldr	r2, [r4, #0]
 8001be8:	429a      	cmp	r2, r3
 8001bea:	d11d      	bne.n	8001c28 <HAL_SPI_MspInit+0x54>
 8001bec:	2180      	movs	r1, #128	@ 0x80
 8001bee:	4b10      	ldr	r3, [pc, #64]	@ (8001c30 <HAL_SPI_MspInit+0x5c>)
 8001bf0:	0149      	lsls	r1, r1, #5
 8001bf2:	699a      	ldr	r2, [r3, #24]
 8001bf4:	2090      	movs	r0, #144	@ 0x90
 8001bf6:	430a      	orrs	r2, r1
 8001bf8:	619a      	str	r2, [r3, #24]
 8001bfa:	699a      	ldr	r2, [r3, #24]
 8001bfc:	05c0      	lsls	r0, r0, #23
 8001bfe:	400a      	ands	r2, r1
 8001c00:	2180      	movs	r1, #128	@ 0x80
 8001c02:	9201      	str	r2, [sp, #4]
 8001c04:	9a01      	ldr	r2, [sp, #4]
 8001c06:	695a      	ldr	r2, [r3, #20]
 8001c08:	0289      	lsls	r1, r1, #10
 8001c0a:	430a      	orrs	r2, r1
 8001c0c:	615a      	str	r2, [r3, #20]
 8001c0e:	695b      	ldr	r3, [r3, #20]
 8001c10:	400b      	ands	r3, r1
 8001c12:	9302      	str	r3, [sp, #8]
 8001c14:	9b02      	ldr	r3, [sp, #8]
 8001c16:	23e0      	movs	r3, #224	@ 0xe0
 8001c18:	9303      	str	r3, [sp, #12]
 8001c1a:	3bde      	subs	r3, #222	@ 0xde
 8001c1c:	9304      	str	r3, [sp, #16]
 8001c1e:	a903      	add	r1, sp, #12
 8001c20:	3301      	adds	r3, #1
 8001c22:	9306      	str	r3, [sp, #24]
 8001c24:	f000 fa8c 	bl	8002140 <HAL_GPIO_Init>
 8001c28:	b008      	add	sp, #32
 8001c2a:	bd10      	pop	{r4, pc}
 8001c2c:	40013000 	.word	0x40013000
 8001c30:	40021000 	.word	0x40021000

08001c34 <HAL_TIM_Base_MspInit>:
 8001c34:	b51f      	push	{r0, r1, r2, r3, r4, lr}
 8001c36:	6803      	ldr	r3, [r0, #0]
 8001c38:	4a18      	ldr	r2, [pc, #96]	@ (8001c9c <HAL_TIM_Base_MspInit+0x68>)
 8001c3a:	4293      	cmp	r3, r2
 8001c3c:	d10b      	bne.n	8001c56 <HAL_TIM_Base_MspInit+0x22>
 8001c3e:	2180      	movs	r1, #128	@ 0x80
 8001c40:	4b17      	ldr	r3, [pc, #92]	@ (8001ca0 <HAL_TIM_Base_MspInit+0x6c>)
 8001c42:	0109      	lsls	r1, r1, #4
 8001c44:	699a      	ldr	r2, [r3, #24]
 8001c46:	430a      	orrs	r2, r1
 8001c48:	619a      	str	r2, [r3, #24]
 8001c4a:	699b      	ldr	r3, [r3, #24]
 8001c4c:	400b      	ands	r3, r1
 8001c4e:	9301      	str	r3, [sp, #4]
 8001c50:	9b01      	ldr	r3, [sp, #4]
 8001c52:	b005      	add	sp, #20
 8001c54:	bd00      	pop	{pc}
 8001c56:	2280      	movs	r2, #128	@ 0x80
 8001c58:	05d2      	lsls	r2, r2, #23
 8001c5a:	4293      	cmp	r3, r2
 8001c5c:	d109      	bne.n	8001c72 <HAL_TIM_Base_MspInit+0x3e>
 8001c5e:	2101      	movs	r1, #1
 8001c60:	4b0f      	ldr	r3, [pc, #60]	@ (8001ca0 <HAL_TIM_Base_MspInit+0x6c>)
 8001c62:	69da      	ldr	r2, [r3, #28]
 8001c64:	430a      	orrs	r2, r1
 8001c66:	61da      	str	r2, [r3, #28]
 8001c68:	69db      	ldr	r3, [r3, #28]
 8001c6a:	400b      	ands	r3, r1
 8001c6c:	9302      	str	r3, [sp, #8]
 8001c6e:	9b02      	ldr	r3, [sp, #8]
 8001c70:	e7ef      	b.n	8001c52 <HAL_TIM_Base_MspInit+0x1e>
 8001c72:	4a0c      	ldr	r2, [pc, #48]	@ (8001ca4 <HAL_TIM_Base_MspInit+0x70>)
 8001c74:	4293      	cmp	r3, r2
 8001c76:	d1ec      	bne.n	8001c52 <HAL_TIM_Base_MspInit+0x1e>
 8001c78:	2102      	movs	r1, #2
 8001c7a:	4b09      	ldr	r3, [pc, #36]	@ (8001ca0 <HAL_TIM_Base_MspInit+0x6c>)
 8001c7c:	2010      	movs	r0, #16
 8001c7e:	69da      	ldr	r2, [r3, #28]
 8001c80:	430a      	orrs	r2, r1
 8001c82:	61da      	str	r2, [r3, #28]
 8001c84:	2200      	movs	r2, #0
 8001c86:	69db      	ldr	r3, [r3, #28]
 8001c88:	400b      	ands	r3, r1
 8001c8a:	9303      	str	r3, [sp, #12]
 8001c8c:	0011      	movs	r1, r2
 8001c8e:	9b03      	ldr	r3, [sp, #12]
 8001c90:	f000 f8ec 	bl	8001e6c <HAL_NVIC_SetPriority>
 8001c94:	2010      	movs	r0, #16
 8001c96:	f000 f913 	bl	8001ec0 <HAL_NVIC_EnableIRQ>
 8001c9a:	e7da      	b.n	8001c52 <HAL_TIM_Base_MspInit+0x1e>
 8001c9c:	40012c00 	.word	0x40012c00
 8001ca0:	40021000 	.word	0x40021000
 8001ca4:	40000400 	.word	0x40000400

08001ca8 <HAL_TIM_MspPostInit>:
 8001ca8:	b510      	push	{r4, lr}
 8001caa:	0004      	movs	r4, r0
 8001cac:	b086      	sub	sp, #24
 8001cae:	2214      	movs	r2, #20
 8001cb0:	2100      	movs	r1, #0
 8001cb2:	a801      	add	r0, sp, #4
 8001cb4:	f004 f93f 	bl	8005f36 <memset>
 8001cb8:	2380      	movs	r3, #128	@ 0x80
 8001cba:	6822      	ldr	r2, [r4, #0]
 8001cbc:	05db      	lsls	r3, r3, #23
 8001cbe:	429a      	cmp	r2, r3
 8001cc0:	d114      	bne.n	8001cec <HAL_TIM_MspPostInit+0x44>
 8001cc2:	2180      	movs	r1, #128	@ 0x80
 8001cc4:	4b0a      	ldr	r3, [pc, #40]	@ (8001cf0 <HAL_TIM_MspPostInit+0x48>)
 8001cc6:	0289      	lsls	r1, r1, #10
 8001cc8:	695a      	ldr	r2, [r3, #20]
 8001cca:	2090      	movs	r0, #144	@ 0x90
 8001ccc:	430a      	orrs	r2, r1
 8001cce:	615a      	str	r2, [r3, #20]
 8001cd0:	695b      	ldr	r3, [r3, #20]
 8001cd2:	05c0      	lsls	r0, r0, #23
 8001cd4:	400b      	ands	r3, r1
 8001cd6:	9300      	str	r3, [sp, #0]
 8001cd8:	9b00      	ldr	r3, [sp, #0]
 8001cda:	2304      	movs	r3, #4
 8001cdc:	a901      	add	r1, sp, #4
 8001cde:	9301      	str	r3, [sp, #4]
 8001ce0:	3b02      	subs	r3, #2
 8001ce2:	9302      	str	r3, [sp, #8]
 8001ce4:	9303      	str	r3, [sp, #12]
 8001ce6:	9305      	str	r3, [sp, #20]
 8001ce8:	f000 fa2a 	bl	8002140 <HAL_GPIO_Init>
 8001cec:	b006      	add	sp, #24
 8001cee:	bd10      	pop	{r4, pc}
 8001cf0:	40021000 	.word	0x40021000

08001cf4 <NMI_Handler>:
 8001cf4:	e7fe      	b.n	8001cf4 <NMI_Handler>

08001cf6 <HardFault_Handler>:
 8001cf6:	e7fe      	b.n	8001cf6 <HardFault_Handler>

08001cf8 <SVC_Handler>:
 8001cf8:	4770      	bx	lr

08001cfa <PendSV_Handler>:
 8001cfa:	4770      	bx	lr

08001cfc <SysTick_Handler>:
 8001cfc:	b510      	push	{r4, lr}
 8001cfe:	f000 f891 	bl	8001e24 <HAL_IncTick>
 8001d02:	bd10      	pop	{r4, pc}

08001d04 <TIM3_IRQHandler>:
 8001d04:	4b05      	ldr	r3, [pc, #20]	@ (8001d1c <TIM3_IRQHandler+0x18>)
 8001d06:	b510      	push	{r4, lr}
 8001d08:	691a      	ldr	r2, [r3, #16]
 8001d0a:	07d2      	lsls	r2, r2, #31
 8001d0c:	d505      	bpl.n	8001d1a <TIM3_IRQHandler+0x16>
 8001d0e:	691a      	ldr	r2, [r3, #16]
 8001d10:	4903      	ldr	r1, [pc, #12]	@ (8001d20 <TIM3_IRQHandler+0x1c>)
 8001d12:	400a      	ands	r2, r1
 8001d14:	611a      	str	r2, [r3, #16]
 8001d16:	f7fe fe27 	bl	8000968 <EMW_TIM3_Tick_ISR>
 8001d1a:	bd10      	pop	{r4, pc}
 8001d1c:	40000400 	.word	0x40000400
 8001d20:	0000fffe 	.word	0x0000fffe

08001d24 <USB_IRQHandler>:
 8001d24:	b510      	push	{r4, lr}
 8001d26:	4802      	ldr	r0, [pc, #8]	@ (8001d30 <USB_IRQHandler+0xc>)
 8001d28:	f000 fbc2 	bl	80024b0 <HAL_PCD_IRQHandler>
 8001d2c:	bd10      	pop	{r4, pc}
 8001d2e:	46c0      	nop			@ (mov r8, r8)
 8001d30:	20000c54 	.word	0x20000c54

08001d34 <SystemInit>:
 8001d34:	4770      	bx	lr
	...

08001d38 <Reset_Handler>:
 8001d38:	4813      	ldr	r0, [pc, #76]	@ (8001d88 <LoopForever+0x2>)
 8001d3a:	4685      	mov	sp, r0
 8001d3c:	f7ff fffa 	bl	8001d34 <SystemInit>
 8001d40:	4812      	ldr	r0, [pc, #72]	@ (8001d8c <LoopForever+0x6>)
 8001d42:	6801      	ldr	r1, [r0, #0]
 8001d44:	0e09      	lsrs	r1, r1, #24
 8001d46:	4a12      	ldr	r2, [pc, #72]	@ (8001d90 <LoopForever+0xa>)
 8001d48:	4291      	cmp	r1, r2
 8001d4a:	d105      	bne.n	8001d58 <ApplicationStart>
 8001d4c:	4811      	ldr	r0, [pc, #68]	@ (8001d94 <LoopForever+0xe>)
 8001d4e:	4912      	ldr	r1, [pc, #72]	@ (8001d98 <LoopForever+0x12>)
 8001d50:	6001      	str	r1, [r0, #0]
 8001d52:	4812      	ldr	r0, [pc, #72]	@ (8001d9c <LoopForever+0x16>)
 8001d54:	4912      	ldr	r1, [pc, #72]	@ (8001da0 <LoopForever+0x1a>)
 8001d56:	6001      	str	r1, [r0, #0]

08001d58 <ApplicationStart>:
 8001d58:	4812      	ldr	r0, [pc, #72]	@ (8001da4 <LoopForever+0x1e>)
 8001d5a:	4913      	ldr	r1, [pc, #76]	@ (8001da8 <LoopForever+0x22>)
 8001d5c:	4a13      	ldr	r2, [pc, #76]	@ (8001dac <LoopForever+0x26>)
 8001d5e:	2300      	movs	r3, #0
 8001d60:	e002      	b.n	8001d68 <LoopCopyDataInit>

08001d62 <CopyDataInit>:
 8001d62:	58d4      	ldr	r4, [r2, r3]
 8001d64:	50c4      	str	r4, [r0, r3]
 8001d66:	3304      	adds	r3, #4

08001d68 <LoopCopyDataInit>:
 8001d68:	18c4      	adds	r4, r0, r3
 8001d6a:	428c      	cmp	r4, r1
 8001d6c:	d3f9      	bcc.n	8001d62 <CopyDataInit>
 8001d6e:	4a10      	ldr	r2, [pc, #64]	@ (8001db0 <LoopForever+0x2a>)
 8001d70:	4c10      	ldr	r4, [pc, #64]	@ (8001db4 <LoopForever+0x2e>)
 8001d72:	2300      	movs	r3, #0
 8001d74:	e001      	b.n	8001d7a <LoopFillZerobss>

08001d76 <FillZerobss>:
 8001d76:	6013      	str	r3, [r2, #0]
 8001d78:	3204      	adds	r2, #4

08001d7a <LoopFillZerobss>:
 8001d7a:	42a2      	cmp	r2, r4
 8001d7c:	d3fb      	bcc.n	8001d76 <FillZerobss>
 8001d7e:	f004 f8e3 	bl	8005f48 <__libc_init_array>
 8001d82:	f7fe fef3 	bl	8000b6c <main>

08001d86 <LoopForever>:
 8001d86:	e7fe      	b.n	8001d86 <LoopForever>
 8001d88:	20001800 	.word	0x20001800
 8001d8c:	00000004 	.word	0x00000004
 8001d90:	0000001f 	.word	0x0000001f
 8001d94:	40021018 	.word	0x40021018
 8001d98:	00000001 	.word	0x00000001
 8001d9c:	40010000 	.word	0x40010000
 8001da0:	00000000 	.word	0x00000000
 8001da4:	20000000 	.word	0x20000000
 8001da8:	200001d8 	.word	0x200001d8
 8001dac:	08006064 	.word	0x08006064
 8001db0:	200001d8 	.word	0x200001d8
 8001db4:	20000f48 	.word	0x20000f48

08001db8 <ADC1_IRQHandler>:
 8001db8:	e7fe      	b.n	8001db8 <ADC1_IRQHandler>
	...

08001dbc <HAL_InitTick>:
 8001dbc:	b570      	push	{r4, r5, r6, lr}
 8001dbe:	0005      	movs	r5, r0
 8001dc0:	20fa      	movs	r0, #250	@ 0xfa
 8001dc2:	4b0d      	ldr	r3, [pc, #52]	@ (8001df8 <HAL_InitTick+0x3c>)
 8001dc4:	0080      	lsls	r0, r0, #2
 8001dc6:	7819      	ldrb	r1, [r3, #0]
 8001dc8:	f7fe f9c4 	bl	8000154 <__udivsi3>
 8001dcc:	4c0b      	ldr	r4, [pc, #44]	@ (8001dfc <HAL_InitTick+0x40>)
 8001dce:	0001      	movs	r1, r0
 8001dd0:	6820      	ldr	r0, [r4, #0]
 8001dd2:	f7fe f9bf 	bl	8000154 <__udivsi3>
 8001dd6:	f000 f87f 	bl	8001ed8 <HAL_SYSTICK_Config>
 8001dda:	0004      	movs	r4, r0
 8001ddc:	2001      	movs	r0, #1
 8001dde:	2c00      	cmp	r4, #0
 8001de0:	d109      	bne.n	8001df6 <HAL_InitTick+0x3a>
 8001de2:	2d03      	cmp	r5, #3
 8001de4:	d807      	bhi.n	8001df6 <HAL_InitTick+0x3a>
 8001de6:	3802      	subs	r0, #2
 8001de8:	0022      	movs	r2, r4
 8001dea:	0029      	movs	r1, r5
 8001dec:	f000 f83e 	bl	8001e6c <HAL_NVIC_SetPriority>
 8001df0:	0020      	movs	r0, r4
 8001df2:	4b03      	ldr	r3, [pc, #12]	@ (8001e00 <HAL_InitTick+0x44>)
 8001df4:	601d      	str	r5, [r3, #0]
 8001df6:	bd70      	pop	{r4, r5, r6, pc}
 8001df8:	2000001c 	.word	0x2000001c
 8001dfc:	20000018 	.word	0x20000018
 8001e00:	20000020 	.word	0x20000020

08001e04 <HAL_Init>:
 8001e04:	2310      	movs	r3, #16
 8001e06:	4a06      	ldr	r2, [pc, #24]	@ (8001e20 <HAL_Init+0x1c>)
 8001e08:	b510      	push	{r4, lr}
 8001e0a:	6811      	ldr	r1, [r2, #0]
 8001e0c:	2003      	movs	r0, #3
 8001e0e:	430b      	orrs	r3, r1
 8001e10:	6013      	str	r3, [r2, #0]
 8001e12:	f7ff ffd3 	bl	8001dbc <HAL_InitTick>
 8001e16:	f7ff febf 	bl	8001b98 <HAL_MspInit>
 8001e1a:	2000      	movs	r0, #0
 8001e1c:	bd10      	pop	{r4, pc}
 8001e1e:	46c0      	nop			@ (mov r8, r8)
 8001e20:	40022000 	.word	0x40022000

08001e24 <HAL_IncTick>:
 8001e24:	4a03      	ldr	r2, [pc, #12]	@ (8001e34 <HAL_IncTick+0x10>)
 8001e26:	4b04      	ldr	r3, [pc, #16]	@ (8001e38 <HAL_IncTick+0x14>)
 8001e28:	6811      	ldr	r1, [r2, #0]
 8001e2a:	781b      	ldrb	r3, [r3, #0]
 8001e2c:	185b      	adds	r3, r3, r1
 8001e2e:	6013      	str	r3, [r2, #0]
 8001e30:	4770      	bx	lr
 8001e32:	46c0      	nop			@ (mov r8, r8)
 8001e34:	200004a0 	.word	0x200004a0
 8001e38:	2000001c 	.word	0x2000001c

08001e3c <HAL_GetTick>:
 8001e3c:	4b01      	ldr	r3, [pc, #4]	@ (8001e44 <HAL_GetTick+0x8>)
 8001e3e:	6818      	ldr	r0, [r3, #0]
 8001e40:	4770      	bx	lr
 8001e42:	46c0      	nop			@ (mov r8, r8)
 8001e44:	200004a0 	.word	0x200004a0

08001e48 <HAL_Delay>:
 8001e48:	b570      	push	{r4, r5, r6, lr}
 8001e4a:	0004      	movs	r4, r0
 8001e4c:	f7ff fff6 	bl	8001e3c <HAL_GetTick>
 8001e50:	0005      	movs	r5, r0
 8001e52:	1c63      	adds	r3, r4, #1
 8001e54:	d002      	beq.n	8001e5c <HAL_Delay+0x14>
 8001e56:	4b04      	ldr	r3, [pc, #16]	@ (8001e68 <HAL_Delay+0x20>)
 8001e58:	781b      	ldrb	r3, [r3, #0]
 8001e5a:	18e4      	adds	r4, r4, r3
 8001e5c:	f7ff ffee 	bl	8001e3c <HAL_GetTick>
 8001e60:	1b40      	subs	r0, r0, r5
 8001e62:	42a0      	cmp	r0, r4
 8001e64:	d3fa      	bcc.n	8001e5c <HAL_Delay+0x14>
 8001e66:	bd70      	pop	{r4, r5, r6, pc}
 8001e68:	2000001c 	.word	0x2000001c

08001e6c <HAL_NVIC_SetPriority>:
 8001e6c:	b510      	push	{r4, lr}
 8001e6e:	24ff      	movs	r4, #255	@ 0xff
 8001e70:	2203      	movs	r2, #3
 8001e72:	000b      	movs	r3, r1
 8001e74:	0021      	movs	r1, r4
 8001e76:	4002      	ands	r2, r0
 8001e78:	00d2      	lsls	r2, r2, #3
 8001e7a:	4091      	lsls	r1, r2
 8001e7c:	019b      	lsls	r3, r3, #6
 8001e7e:	4023      	ands	r3, r4
 8001e80:	43c9      	mvns	r1, r1
 8001e82:	4093      	lsls	r3, r2
 8001e84:	2800      	cmp	r0, #0
 8001e86:	db0a      	blt.n	8001e9e <HAL_NVIC_SetPriority+0x32>
 8001e88:	24c0      	movs	r4, #192	@ 0xc0
 8001e8a:	4a0b      	ldr	r2, [pc, #44]	@ (8001eb8 <HAL_NVIC_SetPriority+0x4c>)
 8001e8c:	0880      	lsrs	r0, r0, #2
 8001e8e:	0080      	lsls	r0, r0, #2
 8001e90:	1880      	adds	r0, r0, r2
 8001e92:	00a4      	lsls	r4, r4, #2
 8001e94:	5902      	ldr	r2, [r0, r4]
 8001e96:	400a      	ands	r2, r1
 8001e98:	4313      	orrs	r3, r2
 8001e9a:	5103      	str	r3, [r0, r4]
 8001e9c:	bd10      	pop	{r4, pc}
 8001e9e:	220f      	movs	r2, #15
 8001ea0:	4010      	ands	r0, r2
 8001ea2:	3808      	subs	r0, #8
 8001ea4:	4a05      	ldr	r2, [pc, #20]	@ (8001ebc <HAL_NVIC_SetPriority+0x50>)
 8001ea6:	0880      	lsrs	r0, r0, #2
 8001ea8:	0080      	lsls	r0, r0, #2
 8001eaa:	1880      	adds	r0, r0, r2
 8001eac:	69c2      	ldr	r2, [r0, #28]
 8001eae:	4011      	ands	r1, r2
 8001eb0:	4319      	orrs	r1, r3
 8001eb2:	61c1      	str	r1, [r0, #28]
 8001eb4:	e7f2      	b.n	8001e9c <HAL_NVIC_SetPriority+0x30>
 8001eb6:	46c0      	nop			@ (mov r8, r8)
 8001eb8:	e000e100 	.word	0xe000e100
 8001ebc:	e000ed00 	.word	0xe000ed00

08001ec0 <HAL_NVIC_EnableIRQ>:
 8001ec0:	2800      	cmp	r0, #0
 8001ec2:	db05      	blt.n	8001ed0 <HAL_NVIC_EnableIRQ+0x10>
 8001ec4:	231f      	movs	r3, #31
 8001ec6:	4018      	ands	r0, r3
 8001ec8:	3b1e      	subs	r3, #30
 8001eca:	4083      	lsls	r3, r0
 8001ecc:	4a01      	ldr	r2, [pc, #4]	@ (8001ed4 <HAL_NVIC_EnableIRQ+0x14>)
 8001ece:	6013      	str	r3, [r2, #0]
 8001ed0:	4770      	bx	lr
 8001ed2:	46c0      	nop			@ (mov r8, r8)
 8001ed4:	e000e100 	.word	0xe000e100

08001ed8 <HAL_SYSTICK_Config>:
 8001ed8:	2280      	movs	r2, #128	@ 0x80
 8001eda:	1e43      	subs	r3, r0, #1
 8001edc:	0452      	lsls	r2, r2, #17
 8001ede:	2001      	movs	r0, #1
 8001ee0:	4293      	cmp	r3, r2
 8001ee2:	d20d      	bcs.n	8001f00 <HAL_SYSTICK_Config+0x28>
 8001ee4:	21c0      	movs	r1, #192	@ 0xc0
 8001ee6:	4a07      	ldr	r2, [pc, #28]	@ (8001f04 <HAL_SYSTICK_Config+0x2c>)
 8001ee8:	4807      	ldr	r0, [pc, #28]	@ (8001f08 <HAL_SYSTICK_Config+0x30>)
 8001eea:	6053      	str	r3, [r2, #4]
 8001eec:	6a03      	ldr	r3, [r0, #32]
 8001eee:	0609      	lsls	r1, r1, #24
 8001ef0:	021b      	lsls	r3, r3, #8
 8001ef2:	0a1b      	lsrs	r3, r3, #8
 8001ef4:	430b      	orrs	r3, r1
 8001ef6:	6203      	str	r3, [r0, #32]
 8001ef8:	2000      	movs	r0, #0
 8001efa:	2307      	movs	r3, #7
 8001efc:	6090      	str	r0, [r2, #8]
 8001efe:	6013      	str	r3, [r2, #0]
 8001f00:	4770      	bx	lr
 8001f02:	46c0      	nop			@ (mov r8, r8)
 8001f04:	e000e010 	.word	0xe000e010
 8001f08:	e000ed00 	.word	0xe000ed00

08001f0c <FLASH_SetErrorCode>:
 8001f0c:	4a0c      	ldr	r2, [pc, #48]	@ (8001f40 <FLASH_SetErrorCode+0x34>)
 8001f0e:	2110      	movs	r1, #16
 8001f10:	68d0      	ldr	r0, [r2, #12]
 8001f12:	b530      	push	{r4, r5, lr}
 8001f14:	0003      	movs	r3, r0
 8001f16:	400b      	ands	r3, r1
 8001f18:	4208      	tst	r0, r1
 8001f1a:	d005      	beq.n	8001f28 <FLASH_SetErrorCode+0x1c>
 8001f1c:	2302      	movs	r3, #2
 8001f1e:	4809      	ldr	r0, [pc, #36]	@ (8001f44 <FLASH_SetErrorCode+0x38>)
 8001f20:	69c4      	ldr	r4, [r0, #28]
 8001f22:	4323      	orrs	r3, r4
 8001f24:	61c3      	str	r3, [r0, #28]
 8001f26:	000b      	movs	r3, r1
 8001f28:	2004      	movs	r0, #4
 8001f2a:	68d1      	ldr	r1, [r2, #12]
 8001f2c:	4201      	tst	r1, r0
 8001f2e:	d005      	beq.n	8001f3c <FLASH_SetErrorCode+0x30>
 8001f30:	2101      	movs	r1, #1
 8001f32:	4c04      	ldr	r4, [pc, #16]	@ (8001f44 <FLASH_SetErrorCode+0x38>)
 8001f34:	4303      	orrs	r3, r0
 8001f36:	69e5      	ldr	r5, [r4, #28]
 8001f38:	4329      	orrs	r1, r5
 8001f3a:	61e1      	str	r1, [r4, #28]
 8001f3c:	60d3      	str	r3, [r2, #12]
 8001f3e:	bd30      	pop	{r4, r5, pc}
 8001f40:	40022000 	.word	0x40022000
 8001f44:	200004a8 	.word	0x200004a8

08001f48 <HAL_FLASH_Unlock>:
 8001f48:	4b06      	ldr	r3, [pc, #24]	@ (8001f64 <HAL_FLASH_Unlock+0x1c>)
 8001f4a:	2000      	movs	r0, #0
 8001f4c:	691a      	ldr	r2, [r3, #16]
 8001f4e:	0612      	lsls	r2, r2, #24
 8001f50:	d506      	bpl.n	8001f60 <HAL_FLASH_Unlock+0x18>
 8001f52:	4a05      	ldr	r2, [pc, #20]	@ (8001f68 <HAL_FLASH_Unlock+0x20>)
 8001f54:	605a      	str	r2, [r3, #4]
 8001f56:	4a05      	ldr	r2, [pc, #20]	@ (8001f6c <HAL_FLASH_Unlock+0x24>)
 8001f58:	605a      	str	r2, [r3, #4]
 8001f5a:	6918      	ldr	r0, [r3, #16]
 8001f5c:	0600      	lsls	r0, r0, #24
 8001f5e:	0fc0      	lsrs	r0, r0, #31
 8001f60:	4770      	bx	lr
 8001f62:	46c0      	nop			@ (mov r8, r8)
 8001f64:	40022000 	.word	0x40022000
 8001f68:	45670123 	.word	0x45670123
 8001f6c:	cdef89ab 	.word	0xcdef89ab

08001f70 <HAL_FLASH_Lock>:
 8001f70:	2380      	movs	r3, #128	@ 0x80
 8001f72:	4a03      	ldr	r2, [pc, #12]	@ (8001f80 <HAL_FLASH_Lock+0x10>)
 8001f74:	2000      	movs	r0, #0
 8001f76:	6911      	ldr	r1, [r2, #16]
 8001f78:	430b      	orrs	r3, r1
 8001f7a:	6113      	str	r3, [r2, #16]
 8001f7c:	4770      	bx	lr
 8001f7e:	46c0      	nop			@ (mov r8, r8)
 8001f80:	40022000 	.word	0x40022000

08001f84 <FLASH_WaitForLastOperation>:
 8001f84:	b570      	push	{r4, r5, r6, lr}
 8001f86:	0004      	movs	r4, r0
 8001f88:	f7ff ff58 	bl	8001e3c <HAL_GetTick>
 8001f8c:	2601      	movs	r6, #1
 8001f8e:	0005      	movs	r5, r0
 8001f90:	4b10      	ldr	r3, [pc, #64]	@ (8001fd4 <FLASH_WaitForLastOperation+0x50>)
 8001f92:	68da      	ldr	r2, [r3, #12]
 8001f94:	4232      	tst	r2, r6
 8001f96:	d111      	bne.n	8001fbc <FLASH_WaitForLastOperation+0x38>
 8001f98:	2220      	movs	r2, #32
 8001f9a:	68d9      	ldr	r1, [r3, #12]
 8001f9c:	4211      	tst	r1, r2
 8001f9e:	d000      	beq.n	8001fa2 <FLASH_WaitForLastOperation+0x1e>
 8001fa0:	60da      	str	r2, [r3, #12]
 8001fa2:	68d9      	ldr	r1, [r3, #12]
 8001fa4:	2210      	movs	r2, #16
 8001fa6:	0008      	movs	r0, r1
 8001fa8:	4010      	ands	r0, r2
 8001faa:	4211      	tst	r1, r2
 8001fac:	d102      	bne.n	8001fb4 <FLASH_WaitForLastOperation+0x30>
 8001fae:	68db      	ldr	r3, [r3, #12]
 8001fb0:	075b      	lsls	r3, r3, #29
 8001fb2:	d508      	bpl.n	8001fc6 <FLASH_WaitForLastOperation+0x42>
 8001fb4:	f7ff ffaa 	bl	8001f0c <FLASH_SetErrorCode>
 8001fb8:	2001      	movs	r0, #1
 8001fba:	e004      	b.n	8001fc6 <FLASH_WaitForLastOperation+0x42>
 8001fbc:	1c62      	adds	r2, r4, #1
 8001fbe:	d0e8      	beq.n	8001f92 <FLASH_WaitForLastOperation+0xe>
 8001fc0:	2c00      	cmp	r4, #0
 8001fc2:	d101      	bne.n	8001fc8 <FLASH_WaitForLastOperation+0x44>
 8001fc4:	2003      	movs	r0, #3
 8001fc6:	bd70      	pop	{r4, r5, r6, pc}
 8001fc8:	f7ff ff38 	bl	8001e3c <HAL_GetTick>
 8001fcc:	1b40      	subs	r0, r0, r5
 8001fce:	42a0      	cmp	r0, r4
 8001fd0:	d9de      	bls.n	8001f90 <FLASH_WaitForLastOperation+0xc>
 8001fd2:	e7f7      	b.n	8001fc4 <FLASH_WaitForLastOperation+0x40>
 8001fd4:	40022000 	.word	0x40022000

08001fd8 <HAL_FLASH_Program>:
 8001fd8:	b5f0      	push	{r4, r5, r6, r7, lr}
 8001fda:	b085      	sub	sp, #20
 8001fdc:	9303      	str	r3, [sp, #12]
 8001fde:	4b1e      	ldr	r3, [pc, #120]	@ (8002058 <HAL_FLASH_Program+0x80>)
 8001fe0:	9100      	str	r1, [sp, #0]
 8001fe2:	9202      	str	r2, [sp, #8]
 8001fe4:	7e1a      	ldrb	r2, [r3, #24]
 8001fe6:	0004      	movs	r4, r0
 8001fe8:	2002      	movs	r0, #2
 8001fea:	2a01      	cmp	r2, #1
 8001fec:	d031      	beq.n	8002052 <HAL_FLASH_Program+0x7a>
 8001fee:	2201      	movs	r2, #1
 8001ff0:	481a      	ldr	r0, [pc, #104]	@ (800205c <HAL_FLASH_Program+0x84>)
 8001ff2:	761a      	strb	r2, [r3, #24]
 8001ff4:	f7ff ffc6 	bl	8001f84 <FLASH_WaitForLastOperation>
 8001ff8:	2800      	cmp	r0, #0
 8001ffa:	d127      	bne.n	800204c <HAL_FLASH_Program+0x74>
 8001ffc:	0026      	movs	r6, r4
 8001ffe:	2c01      	cmp	r4, #1
 8002000:	d003      	beq.n	800200a <HAL_FLASH_Program+0x32>
 8002002:	2604      	movs	r6, #4
 8002004:	2c02      	cmp	r4, #2
 8002006:	d100      	bne.n	800200a <HAL_FLASH_Program+0x32>
 8002008:	0026      	movs	r6, r4
 800200a:	2400      	movs	r4, #0
 800200c:	4b12      	ldr	r3, [pc, #72]	@ (8002058 <HAL_FLASH_Program+0x80>)
 800200e:	9301      	str	r3, [sp, #4]
 8002010:	9802      	ldr	r0, [sp, #8]
 8002012:	9903      	ldr	r1, [sp, #12]
 8002014:	0122      	lsls	r2, r4, #4
 8002016:	f7fe f929 	bl	800026c <__aeabi_llsr>
 800201a:	2200      	movs	r2, #0
 800201c:	2701      	movs	r7, #1
 800201e:	9b01      	ldr	r3, [sp, #4]
 8002020:	4d0f      	ldr	r5, [pc, #60]	@ (8002060 <HAL_FLASH_Program+0x88>)
 8002022:	61da      	str	r2, [r3, #28]
 8002024:	692b      	ldr	r3, [r5, #16]
 8002026:	9a00      	ldr	r2, [sp, #0]
 8002028:	433b      	orrs	r3, r7
 800202a:	612b      	str	r3, [r5, #16]
 800202c:	0063      	lsls	r3, r4, #1
 800202e:	189b      	adds	r3, r3, r2
 8002030:	b280      	uxth	r0, r0
 8002032:	8018      	strh	r0, [r3, #0]
 8002034:	4809      	ldr	r0, [pc, #36]	@ (800205c <HAL_FLASH_Program+0x84>)
 8002036:	f7ff ffa5 	bl	8001f84 <FLASH_WaitForLastOperation>
 800203a:	692b      	ldr	r3, [r5, #16]
 800203c:	43bb      	bics	r3, r7
 800203e:	612b      	str	r3, [r5, #16]
 8002040:	2800      	cmp	r0, #0
 8002042:	d103      	bne.n	800204c <HAL_FLASH_Program+0x74>
 8002044:	19e4      	adds	r4, r4, r7
 8002046:	b2e3      	uxtb	r3, r4
 8002048:	429e      	cmp	r6, r3
 800204a:	d8e1      	bhi.n	8002010 <HAL_FLASH_Program+0x38>
 800204c:	2200      	movs	r2, #0
 800204e:	4b02      	ldr	r3, [pc, #8]	@ (8002058 <HAL_FLASH_Program+0x80>)
 8002050:	761a      	strb	r2, [r3, #24]
 8002052:	b005      	add	sp, #20
 8002054:	bdf0      	pop	{r4, r5, r6, r7, pc}
 8002056:	46c0      	nop			@ (mov r8, r8)
 8002058:	200004a8 	.word	0x200004a8
 800205c:	0000c350 	.word	0x0000c350
 8002060:	40022000 	.word	0x40022000

08002064 <FLASH_MassErase>:
 8002064:	2200      	movs	r2, #0
 8002066:	4b06      	ldr	r3, [pc, #24]	@ (8002080 <FLASH_MassErase+0x1c>)
 8002068:	61da      	str	r2, [r3, #28]
 800206a:	4b06      	ldr	r3, [pc, #24]	@ (8002084 <FLASH_MassErase+0x20>)
 800206c:	3204      	adds	r2, #4
 800206e:	6919      	ldr	r1, [r3, #16]
 8002070:	430a      	orrs	r2, r1
 8002072:	611a      	str	r2, [r3, #16]
 8002074:	2240      	movs	r2, #64	@ 0x40
 8002076:	6919      	ldr	r1, [r3, #16]
 8002078:	430a      	orrs	r2, r1
 800207a:	611a      	str	r2, [r3, #16]
 800207c:	4770      	bx	lr
 800207e:	46c0      	nop			@ (mov r8, r8)
 8002080:	200004a8 	.word	0x200004a8
 8002084:	40022000 	.word	0x40022000

08002088 <FLASH_PageErase>:
 8002088:	2200      	movs	r2, #0
 800208a:	4b06      	ldr	r3, [pc, #24]	@ (80020a4 <FLASH_PageErase+0x1c>)
 800208c:	61da      	str	r2, [r3, #28]
 800208e:	4b06      	ldr	r3, [pc, #24]	@ (80020a8 <FLASH_PageErase+0x20>)
 8002090:	3202      	adds	r2, #2
 8002092:	6919      	ldr	r1, [r3, #16]
 8002094:	430a      	orrs	r2, r1
 8002096:	611a      	str	r2, [r3, #16]
 8002098:	2240      	movs	r2, #64	@ 0x40
 800209a:	6158      	str	r0, [r3, #20]
 800209c:	6919      	ldr	r1, [r3, #16]
 800209e:	430a      	orrs	r2, r1
 80020a0:	611a      	str	r2, [r3, #16]
 80020a2:	4770      	bx	lr
 80020a4:	200004a8 	.word	0x200004a8
 80020a8:	40022000 	.word	0x40022000

080020ac <HAL_FLASHEx_Erase>:
 80020ac:	b5f8      	push	{r3, r4, r5, r6, r7, lr}
 80020ae:	4f21      	ldr	r7, [pc, #132]	@ (8002134 <HAL_FLASHEx_Erase+0x88>)
 80020b0:	0004      	movs	r4, r0
 80020b2:	7e3b      	ldrb	r3, [r7, #24]
 80020b4:	000e      	movs	r6, r1
 80020b6:	2002      	movs	r0, #2
 80020b8:	2b01      	cmp	r3, #1
 80020ba:	d00c      	beq.n	80020d6 <HAL_FLASHEx_Erase+0x2a>
 80020bc:	2301      	movs	r3, #1
 80020be:	763b      	strb	r3, [r7, #24]
 80020c0:	6823      	ldr	r3, [r4, #0]
 80020c2:	481d      	ldr	r0, [pc, #116]	@ (8002138 <HAL_FLASHEx_Erase+0x8c>)
 80020c4:	2b01      	cmp	r3, #1
 80020c6:	d112      	bne.n	80020ee <HAL_FLASHEx_Erase+0x42>
 80020c8:	f7ff ff5c 	bl	8001f84 <FLASH_WaitForLastOperation>
 80020cc:	2800      	cmp	r0, #0
 80020ce:	d003      	beq.n	80020d8 <HAL_FLASHEx_Erase+0x2c>
 80020d0:	2001      	movs	r0, #1
 80020d2:	2300      	movs	r3, #0
 80020d4:	763b      	strb	r3, [r7, #24]
 80020d6:	bdf8      	pop	{r3, r4, r5, r6, r7, pc}
 80020d8:	f7ff ffc4 	bl	8002064 <FLASH_MassErase>
 80020dc:	4816      	ldr	r0, [pc, #88]	@ (8002138 <HAL_FLASHEx_Erase+0x8c>)
 80020de:	f7ff ff51 	bl	8001f84 <FLASH_WaitForLastOperation>
 80020e2:	2104      	movs	r1, #4
 80020e4:	4a15      	ldr	r2, [pc, #84]	@ (800213c <HAL_FLASHEx_Erase+0x90>)
 80020e6:	6913      	ldr	r3, [r2, #16]
 80020e8:	438b      	bics	r3, r1
 80020ea:	6113      	str	r3, [r2, #16]
 80020ec:	e7f1      	b.n	80020d2 <HAL_FLASHEx_Erase+0x26>
 80020ee:	f7ff ff49 	bl	8001f84 <FLASH_WaitForLastOperation>
 80020f2:	2800      	cmp	r0, #0
 80020f4:	d1ec      	bne.n	80020d0 <HAL_FLASHEx_Erase+0x24>
 80020f6:	2301      	movs	r3, #1
 80020f8:	425b      	negs	r3, r3
 80020fa:	6033      	str	r3, [r6, #0]
 80020fc:	6865      	ldr	r5, [r4, #4]
 80020fe:	3001      	adds	r0, #1
 8002100:	68a3      	ldr	r3, [r4, #8]
 8002102:	6862      	ldr	r2, [r4, #4]
 8002104:	029b      	lsls	r3, r3, #10
 8002106:	189b      	adds	r3, r3, r2
 8002108:	42ab      	cmp	r3, r5
 800210a:	d9e2      	bls.n	80020d2 <HAL_FLASHEx_Erase+0x26>
 800210c:	0028      	movs	r0, r5
 800210e:	f7ff ffbb 	bl	8002088 <FLASH_PageErase>
 8002112:	4809      	ldr	r0, [pc, #36]	@ (8002138 <HAL_FLASHEx_Erase+0x8c>)
 8002114:	f7ff ff36 	bl	8001f84 <FLASH_WaitForLastOperation>
 8002118:	2102      	movs	r1, #2
 800211a:	4a08      	ldr	r2, [pc, #32]	@ (800213c <HAL_FLASHEx_Erase+0x90>)
 800211c:	6913      	ldr	r3, [r2, #16]
 800211e:	438b      	bics	r3, r1
 8002120:	6113      	str	r3, [r2, #16]
 8002122:	2800      	cmp	r0, #0
 8002124:	d001      	beq.n	800212a <HAL_FLASHEx_Erase+0x7e>
 8002126:	6035      	str	r5, [r6, #0]
 8002128:	e7d3      	b.n	80020d2 <HAL_FLASHEx_Erase+0x26>
 800212a:	2380      	movs	r3, #128	@ 0x80
 800212c:	00db      	lsls	r3, r3, #3
 800212e:	18ed      	adds	r5, r5, r3
 8002130:	e7e6      	b.n	8002100 <HAL_FLASHEx_Erase+0x54>
 8002132:	46c0      	nop			@ (mov r8, r8)
 8002134:	200004a8 	.word	0x200004a8
 8002138:	0000c350 	.word	0x0000c350
 800213c:	40022000 	.word	0x40022000

08002140 <HAL_GPIO_Init>:
 8002140:	2300      	movs	r3, #0
 8002142:	b5f0      	push	{r4, r5, r6, r7, lr}
 8002144:	b087      	sub	sp, #28
 8002146:	680a      	ldr	r2, [r1, #0]
 8002148:	0014      	movs	r4, r2
 800214a:	40dc      	lsrs	r4, r3
 800214c:	d101      	bne.n	8002152 <HAL_GPIO_Init+0x12>
 800214e:	b007      	add	sp, #28
 8002150:	bdf0      	pop	{r4, r5, r6, r7, pc}
 8002152:	2501      	movs	r5, #1
 8002154:	0014      	movs	r4, r2
 8002156:	409d      	lsls	r5, r3
 8002158:	402c      	ands	r4, r5
 800215a:	9400      	str	r4, [sp, #0]
 800215c:	422a      	tst	r2, r5
 800215e:	d100      	bne.n	8002162 <HAL_GPIO_Init+0x22>
 8002160:	e094      	b.n	800228c <HAL_GPIO_Init+0x14c>
 8002162:	684a      	ldr	r2, [r1, #4]
 8002164:	005f      	lsls	r7, r3, #1
 8002166:	4694      	mov	ip, r2
 8002168:	2203      	movs	r2, #3
 800216a:	4664      	mov	r4, ip
 800216c:	4022      	ands	r2, r4
 800216e:	2403      	movs	r4, #3
 8002170:	40bc      	lsls	r4, r7
 8002172:	43e4      	mvns	r4, r4
 8002174:	9401      	str	r4, [sp, #4]
 8002176:	1e54      	subs	r4, r2, #1
 8002178:	2c01      	cmp	r4, #1
 800217a:	d82e      	bhi.n	80021da <HAL_GPIO_Init+0x9a>
 800217c:	6886      	ldr	r6, [r0, #8]
 800217e:	9c01      	ldr	r4, [sp, #4]
 8002180:	4026      	ands	r6, r4
 8002182:	68cc      	ldr	r4, [r1, #12]
 8002184:	40bc      	lsls	r4, r7
 8002186:	4334      	orrs	r4, r6
 8002188:	6084      	str	r4, [r0, #8]
 800218a:	6844      	ldr	r4, [r0, #4]
 800218c:	2601      	movs	r6, #1
 800218e:	43ac      	bics	r4, r5
 8002190:	0025      	movs	r5, r4
 8002192:	4664      	mov	r4, ip
 8002194:	0924      	lsrs	r4, r4, #4
 8002196:	4034      	ands	r4, r6
 8002198:	409c      	lsls	r4, r3
 800219a:	432c      	orrs	r4, r5
 800219c:	6044      	str	r4, [r0, #4]
 800219e:	68c5      	ldr	r5, [r0, #12]
 80021a0:	9c01      	ldr	r4, [sp, #4]
 80021a2:	4025      	ands	r5, r4
 80021a4:	688c      	ldr	r4, [r1, #8]
 80021a6:	40bc      	lsls	r4, r7
 80021a8:	432c      	orrs	r4, r5
 80021aa:	60c4      	str	r4, [r0, #12]
 80021ac:	2a02      	cmp	r2, #2
 80021ae:	d116      	bne.n	80021de <HAL_GPIO_Init+0x9e>
 80021b0:	2507      	movs	r5, #7
 80021b2:	260f      	movs	r6, #15
 80021b4:	401d      	ands	r5, r3
 80021b6:	00ad      	lsls	r5, r5, #2
 80021b8:	40ae      	lsls	r6, r5
 80021ba:	08dc      	lsrs	r4, r3, #3
 80021bc:	00a4      	lsls	r4, r4, #2
 80021be:	1904      	adds	r4, r0, r4
 80021c0:	9402      	str	r4, [sp, #8]
 80021c2:	6a24      	ldr	r4, [r4, #32]
 80021c4:	9603      	str	r6, [sp, #12]
 80021c6:	0026      	movs	r6, r4
 80021c8:	9c03      	ldr	r4, [sp, #12]
 80021ca:	43a6      	bics	r6, r4
 80021cc:	0034      	movs	r4, r6
 80021ce:	690e      	ldr	r6, [r1, #16]
 80021d0:	40ae      	lsls	r6, r5
 80021d2:	4326      	orrs	r6, r4
 80021d4:	9c02      	ldr	r4, [sp, #8]
 80021d6:	6226      	str	r6, [r4, #32]
 80021d8:	e001      	b.n	80021de <HAL_GPIO_Init+0x9e>
 80021da:	2a03      	cmp	r2, #3
 80021dc:	d1df      	bne.n	800219e <HAL_GPIO_Init+0x5e>
 80021de:	40ba      	lsls	r2, r7
 80021e0:	6804      	ldr	r4, [r0, #0]
 80021e2:	9d01      	ldr	r5, [sp, #4]
 80021e4:	4025      	ands	r5, r4
 80021e6:	432a      	orrs	r2, r5
 80021e8:	24c0      	movs	r4, #192	@ 0xc0
 80021ea:	6002      	str	r2, [r0, #0]
 80021ec:	4662      	mov	r2, ip
 80021ee:	02a4      	lsls	r4, r4, #10
 80021f0:	4222      	tst	r2, r4
 80021f2:	d04b      	beq.n	800228c <HAL_GPIO_Init+0x14c>
 80021f4:	2501      	movs	r5, #1
 80021f6:	4a26      	ldr	r2, [pc, #152]	@ (8002290 <HAL_GPIO_Init+0x150>)
 80021f8:	2790      	movs	r7, #144	@ 0x90
 80021fa:	6994      	ldr	r4, [r2, #24]
 80021fc:	05ff      	lsls	r7, r7, #23
 80021fe:	432c      	orrs	r4, r5
 8002200:	6194      	str	r4, [r2, #24]
 8002202:	6992      	ldr	r2, [r2, #24]
 8002204:	089c      	lsrs	r4, r3, #2
 8002206:	402a      	ands	r2, r5
 8002208:	9205      	str	r2, [sp, #20]
 800220a:	9a05      	ldr	r2, [sp, #20]
 800220c:	4a21      	ldr	r2, [pc, #132]	@ (8002294 <HAL_GPIO_Init+0x154>)
 800220e:	00a4      	lsls	r4, r4, #2
 8002210:	18a4      	adds	r4, r4, r2
 8002212:	220f      	movs	r2, #15
 8002214:	3502      	adds	r5, #2
 8002216:	401d      	ands	r5, r3
 8002218:	00ad      	lsls	r5, r5, #2
 800221a:	40aa      	lsls	r2, r5
 800221c:	68a6      	ldr	r6, [r4, #8]
 800221e:	4396      	bics	r6, r2
 8002220:	2200      	movs	r2, #0
 8002222:	42b8      	cmp	r0, r7
 8002224:	d008      	beq.n	8002238 <HAL_GPIO_Init+0xf8>
 8002226:	4f1c      	ldr	r7, [pc, #112]	@ (8002298 <HAL_GPIO_Init+0x158>)
 8002228:	3201      	adds	r2, #1
 800222a:	42b8      	cmp	r0, r7
 800222c:	d004      	beq.n	8002238 <HAL_GPIO_Init+0xf8>
 800222e:	4f1b      	ldr	r7, [pc, #108]	@ (800229c <HAL_GPIO_Init+0x15c>)
 8002230:	3204      	adds	r2, #4
 8002232:	42b8      	cmp	r0, r7
 8002234:	d100      	bne.n	8002238 <HAL_GPIO_Init+0xf8>
 8002236:	3a03      	subs	r2, #3
 8002238:	40aa      	lsls	r2, r5
 800223a:	4667      	mov	r7, ip
 800223c:	4332      	orrs	r2, r6
 800223e:	60a2      	str	r2, [r4, #8]
 8002240:	4a17      	ldr	r2, [pc, #92]	@ (80022a0 <HAL_GPIO_Init+0x160>)
 8002242:	9c00      	ldr	r4, [sp, #0]
 8002244:	6896      	ldr	r6, [r2, #8]
 8002246:	9d00      	ldr	r5, [sp, #0]
 8002248:	43e4      	mvns	r4, r4
 800224a:	4335      	orrs	r5, r6
 800224c:	02ff      	lsls	r7, r7, #11
 800224e:	d401      	bmi.n	8002254 <HAL_GPIO_Init+0x114>
 8002250:	0035      	movs	r5, r6
 8002252:	4025      	ands	r5, r4
 8002254:	4667      	mov	r7, ip
 8002256:	6095      	str	r5, [r2, #8]
 8002258:	68d6      	ldr	r6, [r2, #12]
 800225a:	9d00      	ldr	r5, [sp, #0]
 800225c:	4335      	orrs	r5, r6
 800225e:	02bf      	lsls	r7, r7, #10
 8002260:	d401      	bmi.n	8002266 <HAL_GPIO_Init+0x126>
 8002262:	0035      	movs	r5, r6
 8002264:	4025      	ands	r5, r4
 8002266:	4667      	mov	r7, ip
 8002268:	60d5      	str	r5, [r2, #12]
 800226a:	6856      	ldr	r6, [r2, #4]
 800226c:	9d00      	ldr	r5, [sp, #0]
 800226e:	4335      	orrs	r5, r6
 8002270:	03bf      	lsls	r7, r7, #14
 8002272:	d401      	bmi.n	8002278 <HAL_GPIO_Init+0x138>
 8002274:	0035      	movs	r5, r6
 8002276:	4025      	ands	r5, r4
 8002278:	4667      	mov	r7, ip
 800227a:	6055      	str	r5, [r2, #4]
 800227c:	6815      	ldr	r5, [r2, #0]
 800227e:	9e00      	ldr	r6, [sp, #0]
 8002280:	432e      	orrs	r6, r5
 8002282:	03ff      	lsls	r7, r7, #15
 8002284:	d401      	bmi.n	800228a <HAL_GPIO_Init+0x14a>
 8002286:	4025      	ands	r5, r4
 8002288:	002e      	movs	r6, r5
 800228a:	6016      	str	r6, [r2, #0]
 800228c:	3301      	adds	r3, #1
 800228e:	e75a      	b.n	8002146 <HAL_GPIO_Init+0x6>
 8002290:	40021000 	.word	0x40021000
 8002294:	40010000 	.word	0x40010000
 8002298:	48000400 	.word	0x48000400
 800229c:	48000800 	.word	0x48000800
 80022a0:	40010400 	.word	0x40010400

080022a4 <HAL_GPIO_DeInit>:
 80022a4:	b5f0      	push	{r4, r5, r6, r7, lr}
 80022a6:	2300      	movs	r3, #0
 80022a8:	000f      	movs	r7, r1
 80022aa:	b085      	sub	sp, #20
 80022ac:	003a      	movs	r2, r7
 80022ae:	40da      	lsrs	r2, r3
 80022b0:	d101      	bne.n	80022b6 <HAL_GPIO_DeInit+0x12>
 80022b2:	b005      	add	sp, #20
 80022b4:	bdf0      	pop	{r4, r5, r6, r7, pc}
 80022b6:	2201      	movs	r2, #1
 80022b8:	409a      	lsls	r2, r3
 80022ba:	0014      	movs	r4, r2
 80022bc:	9201      	str	r2, [sp, #4]
 80022be:	403c      	ands	r4, r7
 80022c0:	4217      	tst	r7, r2
 80022c2:	d04c      	beq.n	800235e <HAL_GPIO_DeInit+0xba>
 80022c4:	4927      	ldr	r1, [pc, #156]	@ (8002364 <HAL_GPIO_DeInit+0xc0>)
 80022c6:	2503      	movs	r5, #3
 80022c8:	089a      	lsrs	r2, r3, #2
 80022ca:	0092      	lsls	r2, r2, #2
 80022cc:	1852      	adds	r2, r2, r1
 80022ce:	210f      	movs	r1, #15
 80022d0:	401d      	ands	r5, r3
 80022d2:	00ad      	lsls	r5, r5, #2
 80022d4:	40a9      	lsls	r1, r5
 80022d6:	6896      	ldr	r6, [r2, #8]
 80022d8:	9102      	str	r1, [sp, #8]
 80022da:	400e      	ands	r6, r1
 80022dc:	9603      	str	r6, [sp, #12]
 80022de:	2690      	movs	r6, #144	@ 0x90
 80022e0:	2100      	movs	r1, #0
 80022e2:	05f6      	lsls	r6, r6, #23
 80022e4:	42b0      	cmp	r0, r6
 80022e6:	d00a      	beq.n	80022fe <HAL_GPIO_DeInit+0x5a>
 80022e8:	491f      	ldr	r1, [pc, #124]	@ (8002368 <HAL_GPIO_DeInit+0xc4>)
 80022ea:	468c      	mov	ip, r1
 80022ec:	2101      	movs	r1, #1
 80022ee:	4560      	cmp	r0, ip
 80022f0:	d005      	beq.n	80022fe <HAL_GPIO_DeInit+0x5a>
 80022f2:	491e      	ldr	r1, [pc, #120]	@ (800236c <HAL_GPIO_DeInit+0xc8>)
 80022f4:	468c      	mov	ip, r1
 80022f6:	2105      	movs	r1, #5
 80022f8:	4560      	cmp	r0, ip
 80022fa:	d100      	bne.n	80022fe <HAL_GPIO_DeInit+0x5a>
 80022fc:	3903      	subs	r1, #3
 80022fe:	40a9      	lsls	r1, r5
 8002300:	9d03      	ldr	r5, [sp, #12]
 8002302:	42a9      	cmp	r1, r5
 8002304:	d110      	bne.n	8002328 <HAL_GPIO_DeInit+0x84>
 8002306:	491a      	ldr	r1, [pc, #104]	@ (8002370 <HAL_GPIO_DeInit+0xcc>)
 8002308:	680d      	ldr	r5, [r1, #0]
 800230a:	43a5      	bics	r5, r4
 800230c:	600d      	str	r5, [r1, #0]
 800230e:	684d      	ldr	r5, [r1, #4]
 8002310:	43a5      	bics	r5, r4
 8002312:	604d      	str	r5, [r1, #4]
 8002314:	68cd      	ldr	r5, [r1, #12]
 8002316:	43a5      	bics	r5, r4
 8002318:	60cd      	str	r5, [r1, #12]
 800231a:	688d      	ldr	r5, [r1, #8]
 800231c:	43a5      	bics	r5, r4
 800231e:	608d      	str	r5, [r1, #8]
 8002320:	6891      	ldr	r1, [r2, #8]
 8002322:	9c02      	ldr	r4, [sp, #8]
 8002324:	43a1      	bics	r1, r4
 8002326:	6091      	str	r1, [r2, #8]
 8002328:	2403      	movs	r4, #3
 800232a:	0059      	lsls	r1, r3, #1
 800232c:	408c      	lsls	r4, r1
 800232e:	2107      	movs	r1, #7
 8002330:	260f      	movs	r6, #15
 8002332:	4019      	ands	r1, r3
 8002334:	0089      	lsls	r1, r1, #2
 8002336:	408e      	lsls	r6, r1
 8002338:	6802      	ldr	r2, [r0, #0]
 800233a:	9901      	ldr	r1, [sp, #4]
 800233c:	43a2      	bics	r2, r4
 800233e:	6002      	str	r2, [r0, #0]
 8002340:	08da      	lsrs	r2, r3, #3
 8002342:	0092      	lsls	r2, r2, #2
 8002344:	1882      	adds	r2, r0, r2
 8002346:	6a15      	ldr	r5, [r2, #32]
 8002348:	43b5      	bics	r5, r6
 800234a:	6215      	str	r5, [r2, #32]
 800234c:	68c2      	ldr	r2, [r0, #12]
 800234e:	43a2      	bics	r2, r4
 8002350:	60c2      	str	r2, [r0, #12]
 8002352:	6842      	ldr	r2, [r0, #4]
 8002354:	438a      	bics	r2, r1
 8002356:	6042      	str	r2, [r0, #4]
 8002358:	6882      	ldr	r2, [r0, #8]
 800235a:	43a2      	bics	r2, r4
 800235c:	6082      	str	r2, [r0, #8]
 800235e:	3301      	adds	r3, #1
 8002360:	e7a4      	b.n	80022ac <HAL_GPIO_DeInit+0x8>
 8002362:	46c0      	nop			@ (mov r8, r8)
 8002364:	40010000 	.word	0x40010000
 8002368:	48000400 	.word	0x48000400
 800236c:	48000800 	.word	0x48000800
 8002370:	40010400 	.word	0x40010400

08002374 <HAL_GPIO_ReadPin>:
 8002374:	6900      	ldr	r0, [r0, #16]
 8002376:	4008      	ands	r0, r1
 8002378:	1e43      	subs	r3, r0, #1
 800237a:	4198      	sbcs	r0, r3
 800237c:	b2c0      	uxtb	r0, r0
 800237e:	4770      	bx	lr

08002380 <HAL_GPIO_WritePin>:
 8002380:	2a00      	cmp	r2, #0
 8002382:	d001      	beq.n	8002388 <HAL_GPIO_WritePin+0x8>
 8002384:	6181      	str	r1, [r0, #24]
 8002386:	4770      	bx	lr
 8002388:	6281      	str	r1, [r0, #40]	@ 0x28
 800238a:	e7fc      	b.n	8002386 <HAL_GPIO_WritePin+0x6>

0800238c <HAL_PCD_Init>:
 800238c:	b5f0      	push	{r4, r5, r6, r7, lr}
 800238e:	0004      	movs	r4, r0
 8002390:	b087      	sub	sp, #28
 8002392:	2001      	movs	r0, #1
 8002394:	2c00      	cmp	r4, #0
 8002396:	d030      	beq.n	80023fa <HAL_PCD_Init+0x6e>
 8002398:	4d31      	ldr	r5, [pc, #196]	@ (8002460 <HAL_PCD_Init+0xd4>)
 800239a:	5d63      	ldrb	r3, [r4, r5]
 800239c:	b2da      	uxtb	r2, r3
 800239e:	2b00      	cmp	r3, #0
 80023a0:	d105      	bne.n	80023ae <HAL_PCD_Init+0x22>
 80023a2:	23aa      	movs	r3, #170	@ 0xaa
 80023a4:	009b      	lsls	r3, r3, #2
 80023a6:	0020      	movs	r0, r4
 80023a8:	54e2      	strb	r2, [r4, r3]
 80023aa:	f003 fca3 	bl	8005cf4 <HAL_PCD_MspInit>
 80023ae:	2303      	movs	r3, #3
 80023b0:	5563      	strb	r3, [r4, r5]
 80023b2:	6820      	ldr	r0, [r4, #0]
 80023b4:	f002 f84a 	bl	800444c <USB_DisableGlobalInt>
 80023b8:	2300      	movs	r3, #0
 80023ba:	2701      	movs	r7, #1
 80023bc:	0019      	movs	r1, r3
 80023be:	6860      	ldr	r0, [r4, #4]
 80023c0:	4283      	cmp	r3, r0
 80023c2:	d31c      	bcc.n	80023fe <HAL_PCD_Init+0x72>
 80023c4:	2200      	movs	r2, #0
 80023c6:	2628      	movs	r6, #40	@ 0x28
 80023c8:	0011      	movs	r1, r2
 80023ca:	4290      	cmp	r0, r2
 80023cc:	d82f      	bhi.n	800242e <HAL_PCD_Init+0xa2>
 80023ce:	0023      	movs	r3, r4
 80023d0:	466a      	mov	r2, sp
 80023d2:	3310      	adds	r3, #16
 80023d4:	cb43      	ldmia	r3!, {r0, r1, r6}
 80023d6:	c243      	stmia	r2!, {r0, r1, r6}
 80023d8:	cb03      	ldmia	r3!, {r0, r1}
 80023da:	c203      	stmia	r2!, {r0, r1}
 80023dc:	68a2      	ldr	r2, [r4, #8]
 80023de:	68e3      	ldr	r3, [r4, #12]
 80023e0:	6861      	ldr	r1, [r4, #4]
 80023e2:	6820      	ldr	r0, [r4, #0]
 80023e4:	f002 f83c 	bl	8004460 <USB_DevInit>
 80023e8:	2200      	movs	r2, #0
 80023ea:	1d63      	adds	r3, r4, #5
 80023ec:	77da      	strb	r2, [r3, #31]
 80023ee:	2301      	movs	r3, #1
 80023f0:	5563      	strb	r3, [r4, r5]
 80023f2:	69e3      	ldr	r3, [r4, #28]
 80023f4:	2b01      	cmp	r3, #1
 80023f6:	d02e      	beq.n	8002456 <HAL_PCD_Init+0xca>
 80023f8:	2000      	movs	r0, #0
 80023fa:	b007      	add	sp, #28
 80023fc:	bdf0      	pop	{r4, r5, r6, r7, pc}
 80023fe:	2629      	movs	r6, #41	@ 0x29
 8002400:	2228      	movs	r2, #40	@ 0x28
 8002402:	46b4      	mov	ip, r6
 8002404:	435a      	muls	r2, r3
 8002406:	18a2      	adds	r2, r4, r2
 8002408:	4494      	add	ip, r2
 800240a:	4666      	mov	r6, ip
 800240c:	7037      	strb	r7, [r6, #0]
 800240e:	2628      	movs	r6, #40	@ 0x28
 8002410:	46b4      	mov	ip, r6
 8002412:	4494      	add	ip, r2
 8002414:	4666      	mov	r6, ip
 8002416:	7033      	strb	r3, [r6, #0]
 8002418:	262b      	movs	r6, #43	@ 0x2b
 800241a:	46b4      	mov	ip, r6
 800241c:	4494      	add	ip, r2
 800241e:	4666      	mov	r6, ip
 8002420:	3301      	adds	r3, #1
 8002422:	7031      	strb	r1, [r6, #0]
 8002424:	b2db      	uxtb	r3, r3
 8002426:	6391      	str	r1, [r2, #56]	@ 0x38
 8002428:	63d1      	str	r1, [r2, #60]	@ 0x3c
 800242a:	6411      	str	r1, [r2, #64]	@ 0x40
 800242c:	e7c8      	b.n	80023c0 <HAL_PCD_Init+0x34>
 800242e:	0033      	movs	r3, r6
 8002430:	4353      	muls	r3, r2
 8002432:	18e3      	adds	r3, r4, r3
 8002434:	001f      	movs	r7, r3
 8002436:	376a      	adds	r7, #106	@ 0x6a
 8002438:	37ff      	adds	r7, #255	@ 0xff
 800243a:	7039      	strb	r1, [r7, #0]
 800243c:	3f01      	subs	r7, #1
 800243e:	703a      	strb	r2, [r7, #0]
 8002440:	70f9      	strb	r1, [r7, #3]
 8002442:	3381      	adds	r3, #129	@ 0x81
 8002444:	3f6c      	subs	r7, #108	@ 0x6c
 8002446:	67f9      	str	r1, [r7, #124]	@ 0x7c
 8002448:	33ff      	adds	r3, #255	@ 0xff
 800244a:	3780      	adds	r7, #128	@ 0x80
 800244c:	3201      	adds	r2, #1
 800244e:	6039      	str	r1, [r7, #0]
 8002450:	b2d2      	uxtb	r2, r2
 8002452:	6019      	str	r1, [r3, #0]
 8002454:	e7b9      	b.n	80023ca <HAL_PCD_Init+0x3e>
 8002456:	0020      	movs	r0, r4
 8002458:	f000 fe1e 	bl	8003098 <HAL_PCDEx_ActivateLPM>
 800245c:	e7cc      	b.n	80023f8 <HAL_PCD_Init+0x6c>
 800245e:	46c0      	nop			@ (mov r8, r8)
 8002460:	000002a9 	.word	0x000002a9

08002464 <HAL_PCD_Start>:
 8002464:	b570      	push	{r4, r5, r6, lr}
 8002466:	25aa      	movs	r5, #170	@ 0xaa
 8002468:	00ad      	lsls	r5, r5, #2
 800246a:	5d43      	ldrb	r3, [r0, r5]
 800246c:	0004      	movs	r4, r0
 800246e:	2002      	movs	r0, #2
 8002470:	2b01      	cmp	r3, #1
 8002472:	d009      	beq.n	8002488 <HAL_PCD_Start+0x24>
 8002474:	2301      	movs	r3, #1
 8002476:	5563      	strb	r3, [r4, r5]
 8002478:	6820      	ldr	r0, [r4, #0]
 800247a:	f001 ffdd 	bl	8004438 <USB_EnableGlobalInt>
 800247e:	6820      	ldr	r0, [r4, #0]
 8002480:	f002 f9ed 	bl	800485e <USB_DevConnect>
 8002484:	2000      	movs	r0, #0
 8002486:	5560      	strb	r0, [r4, r5]
 8002488:	bd70      	pop	{r4, r5, r6, pc}

0800248a <HAL_PCD_SetAddress>:
 800248a:	b570      	push	{r4, r5, r6, lr}
 800248c:	25aa      	movs	r5, #170	@ 0xaa
 800248e:	00ad      	lsls	r5, r5, #2
 8002490:	5d43      	ldrb	r3, [r0, r5]
 8002492:	0004      	movs	r4, r0
 8002494:	2002      	movs	r0, #2
 8002496:	2b01      	cmp	r3, #1
 8002498:	d008      	beq.n	80024ac <HAL_PCD_SetAddress+0x22>
 800249a:	2301      	movs	r3, #1
 800249c:	5563      	strb	r3, [r4, r5]
 800249e:	1d63      	adds	r3, r4, #5
 80024a0:	77d9      	strb	r1, [r3, #31]
 80024a2:	6820      	ldr	r0, [r4, #0]
 80024a4:	f002 f9d4 	bl	8004850 <USB_SetDevAddress>
 80024a8:	2000      	movs	r0, #0
 80024aa:	5560      	strb	r0, [r4, r5]
 80024ac:	bd70      	pop	{r4, r5, r6, pc}
	...

080024b0 <HAL_PCD_IRQHandler>:
 80024b0:	b5f0      	push	{r4, r5, r6, r7, lr}
 80024b2:	0004      	movs	r4, r0
 80024b4:	b085      	sub	sp, #20
 80024b6:	6800      	ldr	r0, [r0, #0]
 80024b8:	f002 f9d9 	bl	800486e <USB_ReadInterrupts>
 80024bc:	2380      	movs	r3, #128	@ 0x80
 80024be:	0005      	movs	r5, r0
 80024c0:	021b      	lsls	r3, r3, #8
 80024c2:	401d      	ands	r5, r3
 80024c4:	4218      	tst	r0, r3
 80024c6:	d101      	bne.n	80024cc <HAL_PCD_IRQHandler+0x1c>
 80024c8:	f000 fc2a 	bl	8002d20 <HAL_PCD_IRQHandler+0x870>
 80024cc:	6820      	ldr	r0, [r4, #0]
 80024ce:	1d82      	adds	r2, r0, #6
 80024d0:	8fd3      	ldrh	r3, [r2, #62]	@ 0x3e
 80024d2:	b21b      	sxth	r3, r3
 80024d4:	2b00      	cmp	r3, #0
 80024d6:	db01      	blt.n	80024dc <HAL_PCD_IRQHandler+0x2c>
 80024d8:	b005      	add	sp, #20
 80024da:	bdf0      	pop	{r4, r5, r6, r7, pc}
 80024dc:	210f      	movs	r1, #15
 80024de:	8fd3      	ldrh	r3, [r2, #62]	@ 0x3e
 80024e0:	4019      	ands	r1, r3
 80024e2:	9101      	str	r1, [sp, #4]
 80024e4:	210f      	movs	r1, #15
 80024e6:	b29a      	uxth	r2, r3
 80024e8:	420b      	tst	r3, r1
 80024ea:	d000      	beq.n	80024ee <HAL_PCD_IRQHandler+0x3e>
 80024ec:	e0c3      	b.n	8002676 <HAL_PCD_IRQHandler+0x1c6>
 80024ee:	2310      	movs	r3, #16
 80024f0:	0011      	movs	r1, r2
 80024f2:	4019      	ands	r1, r3
 80024f4:	421a      	tst	r2, r3
 80024f6:	d12a      	bne.n	800254e <HAL_PCD_IRQHandler+0x9e>
 80024f8:	8803      	ldrh	r3, [r0, #0]
 80024fa:	4ad2      	ldr	r2, [pc, #840]	@ (8002844 <HAL_PCD_IRQHandler+0x394>)
 80024fc:	4013      	ands	r3, r2
 80024fe:	2280      	movs	r2, #128	@ 0x80
 8002500:	0212      	lsls	r2, r2, #8
 8002502:	4313      	orrs	r3, r2
 8002504:	8003      	strh	r3, [r0, #0]
 8002506:	0003      	movs	r3, r0
 8002508:	3350      	adds	r3, #80	@ 0x50
 800250a:	881a      	ldrh	r2, [r3, #0]
 800250c:	0023      	movs	r3, r4
 800250e:	3328      	adds	r3, #40	@ 0x28
 8002510:	781b      	ldrb	r3, [r3, #0]
 8002512:	00db      	lsls	r3, r3, #3
 8002514:	18c3      	adds	r3, r0, r3
 8002516:	189b      	adds	r3, r3, r2
 8002518:	4acb      	ldr	r2, [pc, #812]	@ (8002848 <HAL_PCD_IRQHandler+0x398>)
 800251a:	0020      	movs	r0, r4
 800251c:	189b      	adds	r3, r3, r2
 800251e:	881b      	ldrh	r3, [r3, #0]
 8002520:	6be2      	ldr	r2, [r4, #60]	@ 0x3c
 8002522:	059b      	lsls	r3, r3, #22
 8002524:	0d9b      	lsrs	r3, r3, #22
 8002526:	6463      	str	r3, [r4, #68]	@ 0x44
 8002528:	18d3      	adds	r3, r2, r3
 800252a:	63e3      	str	r3, [r4, #60]	@ 0x3c
 800252c:	f003 fc14 	bl	8005d58 <HAL_PCD_DataInStageCallback>
 8002530:	1d63      	adds	r3, r4, #5
 8002532:	7fda      	ldrb	r2, [r3, #31]
 8002534:	2a00      	cmp	r2, #0
 8002536:	d0c9      	beq.n	80024cc <HAL_PCD_IRQHandler+0x1c>
 8002538:	6c20      	ldr	r0, [r4, #64]	@ 0x40
 800253a:	6822      	ldr	r2, [r4, #0]
 800253c:	2800      	cmp	r0, #0
 800253e:	d1c5      	bne.n	80024cc <HAL_PCD_IRQHandler+0x1c>
 8002540:	2580      	movs	r5, #128	@ 0x80
 8002542:	7fd9      	ldrb	r1, [r3, #31]
 8002544:	324c      	adds	r2, #76	@ 0x4c
 8002546:	4329      	orrs	r1, r5
 8002548:	8011      	strh	r1, [r2, #0]
 800254a:	77d8      	strb	r0, [r3, #31]
 800254c:	e7be      	b.n	80024cc <HAL_PCD_IRQHandler+0x1c>
 800254e:	8802      	ldrh	r2, [r0, #0]
 8002550:	2180      	movs	r1, #128	@ 0x80
 8002552:	0016      	movs	r6, r2
 8002554:	0109      	lsls	r1, r1, #4
 8002556:	b293      	uxth	r3, r2
 8002558:	400e      	ands	r6, r1
 800255a:	420a      	tst	r2, r1
 800255c:	d022      	beq.n	80025a4 <HAL_PCD_IRQHandler+0xf4>
 800255e:	0003      	movs	r3, r0
 8002560:	3350      	adds	r3, #80	@ 0x50
 8002562:	881a      	ldrh	r2, [r3, #0]
 8002564:	23b4      	movs	r3, #180	@ 0xb4
 8002566:	005b      	lsls	r3, r3, #1
 8002568:	5ce3      	ldrb	r3, [r4, r3]
 800256a:	21ac      	movs	r1, #172	@ 0xac
 800256c:	00db      	lsls	r3, r3, #3
 800256e:	18c3      	adds	r3, r0, r3
 8002570:	189b      	adds	r3, r3, r2
 8002572:	4ab6      	ldr	r2, [pc, #728]	@ (800284c <HAL_PCD_IRQHandler+0x39c>)
 8002574:	0089      	lsls	r1, r1, #2
 8002576:	189b      	adds	r3, r3, r2
 8002578:	0022      	movs	r2, r4
 800257a:	881b      	ldrh	r3, [r3, #0]
 800257c:	3269      	adds	r2, #105	@ 0x69
 800257e:	059b      	lsls	r3, r3, #22
 8002580:	0d9b      	lsrs	r3, r3, #22
 8002582:	32ff      	adds	r2, #255	@ 0xff
 8002584:	61d3      	str	r3, [r2, #28]
 8002586:	1861      	adds	r1, r4, r1
 8002588:	88d2      	ldrh	r2, [r2, #6]
 800258a:	f002 fbdd 	bl	8004d48 <USB_ReadPMA>
 800258e:	6821      	ldr	r1, [r4, #0]
 8002590:	4baf      	ldr	r3, [pc, #700]	@ (8002850 <HAL_PCD_IRQHandler+0x3a0>)
 8002592:	880a      	ldrh	r2, [r1, #0]
 8002594:	0020      	movs	r0, r4
 8002596:	401a      	ands	r2, r3
 8002598:	2380      	movs	r3, #128	@ 0x80
 800259a:	4313      	orrs	r3, r2
 800259c:	800b      	strh	r3, [r1, #0]
 800259e:	f003 fbc5 	bl	8005d2c <HAL_PCD_SetupStageCallback>
 80025a2:	e793      	b.n	80024cc <HAL_PCD_IRQHandler+0x1c>
 80025a4:	b21b      	sxth	r3, r3
 80025a6:	2b00      	cmp	r3, #0
 80025a8:	db00      	blt.n	80025ac <HAL_PCD_IRQHandler+0xfc>
 80025aa:	e78f      	b.n	80024cc <HAL_PCD_IRQHandler+0x1c>
 80025ac:	8802      	ldrh	r2, [r0, #0]
 80025ae:	4ba8      	ldr	r3, [pc, #672]	@ (8002850 <HAL_PCD_IRQHandler+0x3a0>)
 80025b0:	0025      	movs	r5, r4
 80025b2:	401a      	ands	r2, r3
 80025b4:	2380      	movs	r3, #128	@ 0x80
 80025b6:	4313      	orrs	r3, r2
 80025b8:	8003      	strh	r3, [r0, #0]
 80025ba:	0003      	movs	r3, r0
 80025bc:	3350      	adds	r3, #80	@ 0x50
 80025be:	881a      	ldrh	r2, [r3, #0]
 80025c0:	23b4      	movs	r3, #180	@ 0xb4
 80025c2:	005b      	lsls	r3, r3, #1
 80025c4:	5ce3      	ldrb	r3, [r4, r3]
 80025c6:	3569      	adds	r5, #105	@ 0x69
 80025c8:	00db      	lsls	r3, r3, #3
 80025ca:	18c3      	adds	r3, r0, r3
 80025cc:	189b      	adds	r3, r3, r2
 80025ce:	4a9f      	ldr	r2, [pc, #636]	@ (800284c <HAL_PCD_IRQHandler+0x39c>)
 80025d0:	35ff      	adds	r5, #255	@ 0xff
 80025d2:	189b      	adds	r3, r3, r2
 80025d4:	881b      	ldrh	r3, [r3, #0]
 80025d6:	059b      	lsls	r3, r3, #22
 80025d8:	0d9b      	lsrs	r3, r3, #22
 80025da:	61eb      	str	r3, [r5, #28]
 80025dc:	d00d      	beq.n	80025fa <HAL_PCD_IRQHandler+0x14a>
 80025de:	6969      	ldr	r1, [r5, #20]
 80025e0:	2900      	cmp	r1, #0
 80025e2:	d00a      	beq.n	80025fa <HAL_PCD_IRQHandler+0x14a>
 80025e4:	88ea      	ldrh	r2, [r5, #6]
 80025e6:	f002 fbaf 	bl	8004d48 <USB_ReadPMA>
 80025ea:	696b      	ldr	r3, [r5, #20]
 80025ec:	69ea      	ldr	r2, [r5, #28]
 80025ee:	0031      	movs	r1, r6
 80025f0:	189b      	adds	r3, r3, r2
 80025f2:	0020      	movs	r0, r4
 80025f4:	616b      	str	r3, [r5, #20]
 80025f6:	f003 fba2 	bl	8005d3e <HAL_PCD_DataOutStageCallback>
 80025fa:	6821      	ldr	r1, [r4, #0]
 80025fc:	880a      	ldrh	r2, [r1, #0]
 80025fe:	b293      	uxth	r3, r2
 8002600:	0512      	lsls	r2, r2, #20
 8002602:	d500      	bpl.n	8002606 <HAL_PCD_IRQHandler+0x156>
 8002604:	e762      	b.n	80024cc <HAL_PCD_IRQHandler+0x1c>
 8002606:	22c0      	movs	r2, #192	@ 0xc0
 8002608:	0192      	lsls	r2, r2, #6
 800260a:	4013      	ands	r3, r2
 800260c:	4293      	cmp	r3, r2
 800260e:	d100      	bne.n	8002612 <HAL_PCD_IRQHandler+0x162>
 8002610:	e75c      	b.n	80024cc <HAL_PCD_IRQHandler+0x1c>
 8002612:	000b      	movs	r3, r1
 8002614:	3350      	adds	r3, #80	@ 0x50
 8002616:	881a      	ldrh	r2, [r3, #0]
 8002618:	4b8c      	ldr	r3, [pc, #560]	@ (800284c <HAL_PCD_IRQHandler+0x39c>)
 800261a:	18cb      	adds	r3, r1, r3
 800261c:	189b      	adds	r3, r3, r2
 800261e:	881a      	ldrh	r2, [r3, #0]
 8002620:	0592      	lsls	r2, r2, #22
 8002622:	0d92      	lsrs	r2, r2, #22
 8002624:	801a      	strh	r2, [r3, #0]
 8002626:	692a      	ldr	r2, [r5, #16]
 8002628:	2a3e      	cmp	r2, #62	@ 0x3e
 800262a:	d90c      	bls.n	8002646 <HAL_PCD_IRQHandler+0x196>
 800262c:	251f      	movs	r5, #31
 800262e:	0950      	lsrs	r0, r2, #5
 8002630:	402a      	ands	r2, r5
 8002632:	4255      	negs	r5, r2
 8002634:	416a      	adcs	r2, r5
 8002636:	1a80      	subs	r0, r0, r2
 8002638:	881a      	ldrh	r2, [r3, #0]
 800263a:	0280      	lsls	r0, r0, #10
 800263c:	4310      	orrs	r0, r2
 800263e:	4a85      	ldr	r2, [pc, #532]	@ (8002854 <HAL_PCD_IRQHandler+0x3a4>)
 8002640:	4302      	orrs	r2, r0
 8002642:	b292      	uxth	r2, r2
 8002644:	e005      	b.n	8002652 <HAL_PCD_IRQHandler+0x1a2>
 8002646:	2a00      	cmp	r2, #0
 8002648:	d10e      	bne.n	8002668 <HAL_PCD_IRQHandler+0x1b8>
 800264a:	2080      	movs	r0, #128	@ 0x80
 800264c:	881a      	ldrh	r2, [r3, #0]
 800264e:	0200      	lsls	r0, r0, #8
 8002650:	4302      	orrs	r2, r0
 8002652:	801a      	strh	r2, [r3, #0]
 8002654:	880a      	ldrh	r2, [r1, #0]
 8002656:	4b80      	ldr	r3, [pc, #512]	@ (8002858 <HAL_PCD_IRQHandler+0x3a8>)
 8002658:	401a      	ands	r2, r3
 800265a:	23c0      	movs	r3, #192	@ 0xc0
 800265c:	019b      	lsls	r3, r3, #6
 800265e:	4053      	eors	r3, r2
 8002660:	4a7e      	ldr	r2, [pc, #504]	@ (800285c <HAL_PCD_IRQHandler+0x3ac>)
 8002662:	4313      	orrs	r3, r2
 8002664:	800b      	strh	r3, [r1, #0]
 8002666:	e731      	b.n	80024cc <HAL_PCD_IRQHandler+0x1c>
 8002668:	2501      	movs	r5, #1
 800266a:	0850      	lsrs	r0, r2, #1
 800266c:	402a      	ands	r2, r5
 800266e:	1880      	adds	r0, r0, r2
 8002670:	0280      	lsls	r0, r0, #10
 8002672:	881a      	ldrh	r2, [r3, #0]
 8002674:	e7e4      	b.n	8002640 <HAL_PCD_IRQHandler+0x190>
 8002676:	9b01      	ldr	r3, [sp, #4]
 8002678:	009f      	lsls	r7, r3, #2
 800267a:	19c2      	adds	r2, r0, r7
 800267c:	8813      	ldrh	r3, [r2, #0]
 800267e:	b299      	uxth	r1, r3
 8002680:	b21b      	sxth	r3, r3
 8002682:	9102      	str	r1, [sp, #8]
 8002684:	2b00      	cmp	r3, #0
 8002686:	db00      	blt.n	800268a <HAL_PCD_IRQHandler+0x1da>
 8002688:	e09c      	b.n	80027c4 <HAL_PCD_IRQHandler+0x314>
 800268a:	8813      	ldrh	r3, [r2, #0]
 800268c:	4970      	ldr	r1, [pc, #448]	@ (8002850 <HAL_PCD_IRQHandler+0x3a0>)
 800268e:	400b      	ands	r3, r1
 8002690:	2180      	movs	r1, #128	@ 0x80
 8002692:	430b      	orrs	r3, r1
 8002694:	8013      	strh	r3, [r2, #0]
 8002696:	2328      	movs	r3, #40	@ 0x28
 8002698:	9a01      	ldr	r2, [sp, #4]
 800269a:	4353      	muls	r3, r2
 800269c:	18e3      	adds	r3, r4, r3
 800269e:	001a      	movs	r2, r3
 80026a0:	001d      	movs	r5, r3
 80026a2:	3275      	adds	r2, #117	@ 0x75
 80026a4:	32ff      	adds	r2, #255	@ 0xff
 80026a6:	7812      	ldrb	r2, [r2, #0]
 80026a8:	3569      	adds	r5, #105	@ 0x69
 80026aa:	35ff      	adds	r5, #255	@ 0xff
 80026ac:	2a00      	cmp	r2, #0
 80026ae:	d115      	bne.n	80026dc <HAL_PCD_IRQHandler+0x22c>
 80026b0:	0002      	movs	r2, r0
 80026b2:	3250      	adds	r2, #80	@ 0x50
 80026b4:	8811      	ldrh	r1, [r2, #0]
 80026b6:	782a      	ldrb	r2, [r5, #0]
 80026b8:	00d2      	lsls	r2, r2, #3
 80026ba:	1852      	adds	r2, r2, r1
 80026bc:	4963      	ldr	r1, [pc, #396]	@ (800284c <HAL_PCD_IRQHandler+0x39c>)
 80026be:	1812      	adds	r2, r2, r0
 80026c0:	1852      	adds	r2, r2, r1
 80026c2:	8812      	ldrh	r2, [r2, #0]
 80026c4:	0592      	lsls	r2, r2, #22
 80026c6:	0d95      	lsrs	r5, r2, #22
 80026c8:	2a00      	cmp	r2, #0
 80026ca:	d059      	beq.n	8002780 <HAL_PCD_IRQHandler+0x2d0>
 80026cc:	001a      	movs	r2, r3
 80026ce:	326f      	adds	r2, #111	@ 0x6f
 80026d0:	337d      	adds	r3, #125	@ 0x7d
 80026d2:	32ff      	adds	r2, #255	@ 0xff
 80026d4:	33ff      	adds	r3, #255	@ 0xff
 80026d6:	0019      	movs	r1, r3
 80026d8:	8812      	ldrh	r2, [r2, #0]
 80026da:	e04d      	b.n	8002778 <HAL_PCD_IRQHandler+0x2c8>
 80026dc:	0019      	movs	r1, r3
 80026de:	316c      	adds	r1, #108	@ 0x6c
 80026e0:	31ff      	adds	r1, #255	@ 0xff
 80026e2:	7809      	ldrb	r1, [r1, #0]
 80026e4:	782a      	ldrb	r2, [r5, #0]
 80026e6:	2902      	cmp	r1, #2
 80026e8:	d000      	beq.n	80026ec <HAL_PCD_IRQHandler+0x23c>
 80026ea:	e0ef      	b.n	80028cc <HAL_PCD_IRQHandler+0x41c>
 80026ec:	2680      	movs	r6, #128	@ 0x80
 80026ee:	01f6      	lsls	r6, r6, #7
 80026f0:	46b4      	mov	ip, r6
 80026f2:	4665      	mov	r5, ip
 80026f4:	9e02      	ldr	r6, [sp, #8]
 80026f6:	3381      	adds	r3, #129	@ 0x81
 80026f8:	402e      	ands	r6, r5
 80026fa:	9603      	str	r6, [sp, #12]
 80026fc:	0006      	movs	r6, r0
 80026fe:	3650      	adds	r6, #80	@ 0x50
 8002700:	9600      	str	r6, [sp, #0]
 8002702:	4666      	mov	r6, ip
 8002704:	9d02      	ldr	r5, [sp, #8]
 8002706:	33ff      	adds	r3, #255	@ 0xff
 8002708:	6819      	ldr	r1, [r3, #0]
 800270a:	4235      	tst	r5, r6
 800270c:	d100      	bne.n	8002710 <HAL_PCD_IRQHandler+0x260>
 800270e:	e0ab      	b.n	8002868 <HAL_PCD_IRQHandler+0x3b8>
 8002710:	9d00      	ldr	r5, [sp, #0]
 8002712:	882e      	ldrh	r6, [r5, #0]
 8002714:	00d5      	lsls	r5, r2, #3
 8002716:	1976      	adds	r6, r6, r5
 8002718:	4d4b      	ldr	r5, [pc, #300]	@ (8002848 <HAL_PCD_IRQHandler+0x398>)
 800271a:	1836      	adds	r6, r6, r0
 800271c:	1976      	adds	r6, r6, r5
 800271e:	8835      	ldrh	r5, [r6, #0]
 8002720:	05ad      	lsls	r5, r5, #22
 8002722:	0dad      	lsrs	r5, r5, #22
 8002724:	428d      	cmp	r5, r1
 8002726:	d90d      	bls.n	8002744 <HAL_PCD_IRQHandler+0x294>
 8002728:	2100      	movs	r1, #0
 800272a:	6019      	str	r1, [r3, #0]
 800272c:	0091      	lsls	r1, r2, #2
 800272e:	1841      	adds	r1, r0, r1
 8002730:	880e      	ldrh	r6, [r1, #0]
 8002732:	4b49      	ldr	r3, [pc, #292]	@ (8002858 <HAL_PCD_IRQHandler+0x3a8>)
 8002734:	401e      	ands	r6, r3
 8002736:	2380      	movs	r3, #128	@ 0x80
 8002738:	019b      	lsls	r3, r3, #6
 800273a:	4073      	eors	r3, r6
 800273c:	4e47      	ldr	r6, [pc, #284]	@ (800285c <HAL_PCD_IRQHandler+0x3ac>)
 800273e:	4333      	orrs	r3, r6
 8002740:	800b      	strh	r3, [r1, #0]
 8002742:	e002      	b.n	800274a <HAL_PCD_IRQHandler+0x29a>
 8002744:	1b49      	subs	r1, r1, r5
 8002746:	6019      	str	r1, [r3, #0]
 8002748:	d0f0      	beq.n	800272c <HAL_PCD_IRQHandler+0x27c>
 800274a:	9b02      	ldr	r3, [sp, #8]
 800274c:	065b      	lsls	r3, r3, #25
 800274e:	d507      	bpl.n	8002760 <HAL_PCD_IRQHandler+0x2b0>
 8002750:	0092      	lsls	r2, r2, #2
 8002752:	1882      	adds	r2, r0, r2
 8002754:	8813      	ldrh	r3, [r2, #0]
 8002756:	4942      	ldr	r1, [pc, #264]	@ (8002860 <HAL_PCD_IRQHandler+0x3b0>)
 8002758:	400b      	ands	r3, r1
 800275a:	4942      	ldr	r1, [pc, #264]	@ (8002864 <HAL_PCD_IRQHandler+0x3b4>)
 800275c:	430b      	orrs	r3, r1
 800275e:	8013      	strh	r3, [r2, #0]
 8002760:	2d00      	cmp	r5, #0
 8002762:	d00d      	beq.n	8002780 <HAL_PCD_IRQHandler+0x2d0>
 8002764:	2328      	movs	r3, #40	@ 0x28
 8002766:	9a01      	ldr	r2, [sp, #4]
 8002768:	4353      	muls	r3, r2
 800276a:	18e1      	adds	r1, r4, r3
 800276c:	000a      	movs	r2, r1
 800276e:	3271      	adds	r2, #113	@ 0x71
 8002770:	32ff      	adds	r2, #255	@ 0xff
 8002772:	317d      	adds	r1, #125	@ 0x7d
 8002774:	8812      	ldrh	r2, [r2, #0]
 8002776:	31ff      	adds	r1, #255	@ 0xff
 8002778:	002b      	movs	r3, r5
 800277a:	6809      	ldr	r1, [r1, #0]
 800277c:	f002 fae4 	bl	8004d48 <USB_ReadPMA>
 8002780:	2328      	movs	r3, #40	@ 0x28
 8002782:	9901      	ldr	r1, [sp, #4]
 8002784:	4359      	muls	r1, r3
 8002786:	1862      	adds	r2, r4, r1
 8002788:	0016      	movs	r6, r2
 800278a:	3685      	adds	r6, #133	@ 0x85
 800278c:	36ff      	adds	r6, #255	@ 0xff
 800278e:	6830      	ldr	r0, [r6, #0]
 8002790:	3e08      	subs	r6, #8
 8002792:	1940      	adds	r0, r0, r5
 8002794:	60b0      	str	r0, [r6, #8]
 8002796:	6830      	ldr	r0, [r6, #0]
 8002798:	1940      	adds	r0, r0, r5
 800279a:	6030      	str	r0, [r6, #0]
 800279c:	0010      	movs	r0, r2
 800279e:	3081      	adds	r0, #129	@ 0x81
 80027a0:	30ff      	adds	r0, #255	@ 0xff
 80027a2:	6800      	ldr	r0, [r0, #0]
 80027a4:	2800      	cmp	r0, #0
 80027a6:	d004      	beq.n	80027b2 <HAL_PCD_IRQHandler+0x302>
 80027a8:	32fc      	adds	r2, #252	@ 0xfc
 80027aa:	6fd2      	ldr	r2, [r2, #124]	@ 0x7c
 80027ac:	4295      	cmp	r5, r2
 80027ae:	d300      	bcc.n	80027b2 <HAL_PCD_IRQHandler+0x302>
 80027b0:	e0b6      	b.n	8002920 <HAL_PCD_IRQHandler+0x470>
 80027b2:	9a01      	ldr	r2, [sp, #4]
 80027b4:	0020      	movs	r0, r4
 80027b6:	4353      	muls	r3, r2
 80027b8:	18e3      	adds	r3, r4, r3
 80027ba:	3369      	adds	r3, #105	@ 0x69
 80027bc:	33ff      	adds	r3, #255	@ 0xff
 80027be:	7819      	ldrb	r1, [r3, #0]
 80027c0:	f003 fabd 	bl	8005d3e <HAL_PCD_DataOutStageCallback>
 80027c4:	2280      	movs	r2, #128	@ 0x80
 80027c6:	9b02      	ldr	r3, [sp, #8]
 80027c8:	6820      	ldr	r0, [r4, #0]
 80027ca:	4213      	tst	r3, r2
 80027cc:	d100      	bne.n	80027d0 <HAL_PCD_IRQHandler+0x320>
 80027ce:	e67d      	b.n	80024cc <HAL_PCD_IRQHandler+0x1c>
 80027d0:	19c2      	adds	r2, r0, r7
 80027d2:	8813      	ldrh	r3, [r2, #0]
 80027d4:	491b      	ldr	r1, [pc, #108]	@ (8002844 <HAL_PCD_IRQHandler+0x394>)
 80027d6:	9d01      	ldr	r5, [sp, #4]
 80027d8:	400b      	ands	r3, r1
 80027da:	491e      	ldr	r1, [pc, #120]	@ (8002854 <HAL_PCD_IRQHandler+0x3a4>)
 80027dc:	430b      	orrs	r3, r1
 80027de:	b29b      	uxth	r3, r3
 80027e0:	8013      	strh	r3, [r2, #0]
 80027e2:	2328      	movs	r3, #40	@ 0x28
 80027e4:	435d      	muls	r5, r3
 80027e6:	1965      	adds	r5, r4, r5
 80027e8:	002a      	movs	r2, r5
 80027ea:	322b      	adds	r2, #43	@ 0x2b
 80027ec:	7811      	ldrb	r1, [r2, #0]
 80027ee:	18ea      	adds	r2, r5, r3
 80027f0:	2901      	cmp	r1, #1
 80027f2:	d000      	beq.n	80027f6 <HAL_PCD_IRQHandler+0x346>
 80027f4:	e0c3      	b.n	800297e <HAL_PCD_IRQHandler+0x4ce>
 80027f6:	2300      	movs	r3, #0
 80027f8:	0029      	movs	r1, r5
 80027fa:	642b      	str	r3, [r5, #64]	@ 0x40
 80027fc:	3134      	adds	r1, #52	@ 0x34
 80027fe:	7809      	ldrb	r1, [r1, #0]
 8002800:	4299      	cmp	r1, r3
 8002802:	d100      	bne.n	8002806 <HAL_PCD_IRQHandler+0x356>
 8002804:	e09f      	b.n	8002946 <HAL_PCD_IRQHandler+0x496>
 8002806:	2140      	movs	r1, #64	@ 0x40
 8002808:	9e02      	ldr	r6, [sp, #8]
 800280a:	9f02      	ldr	r7, [sp, #8]
 800280c:	400e      	ands	r6, r1
 800280e:	3529      	adds	r5, #41	@ 0x29
 8002810:	420f      	tst	r7, r1
 8002812:	d100      	bne.n	8002816 <HAL_PCD_IRQHandler+0x366>
 8002814:	e09c      	b.n	8002950 <HAL_PCD_IRQHandler+0x4a0>
 8002816:	7829      	ldrb	r1, [r5, #0]
 8002818:	4299      	cmp	r1, r3
 800281a:	d000      	beq.n	800281e <HAL_PCD_IRQHandler+0x36e>
 800281c:	e087      	b.n	800292e <HAL_PCD_IRQHandler+0x47e>
 800281e:	0003      	movs	r3, r0
 8002820:	7811      	ldrb	r1, [r2, #0]
 8002822:	3350      	adds	r3, #80	@ 0x50
 8002824:	881d      	ldrh	r5, [r3, #0]
 8002826:	4b08      	ldr	r3, [pc, #32]	@ (8002848 <HAL_PCD_IRQHandler+0x398>)
 8002828:	00c9      	lsls	r1, r1, #3
 800282a:	18c3      	adds	r3, r0, r3
 800282c:	195b      	adds	r3, r3, r5
 800282e:	18c9      	adds	r1, r1, r3
 8002830:	880b      	ldrh	r3, [r1, #0]
 8002832:	4808      	ldr	r0, [pc, #32]	@ (8002854 <HAL_PCD_IRQHandler+0x3a4>)
 8002834:	059b      	lsls	r3, r3, #22
 8002836:	0d9b      	lsrs	r3, r3, #22
 8002838:	800b      	strh	r3, [r1, #0]
 800283a:	880b      	ldrh	r3, [r1, #0]
 800283c:	4303      	orrs	r3, r0
 800283e:	b29b      	uxth	r3, r3
 8002840:	e080      	b.n	8002944 <HAL_PCD_IRQHandler+0x494>
 8002842:	46c0      	nop			@ (mov r8, r8)
 8002844:	ffff8f0f 	.word	0xffff8f0f
 8002848:	00000402 	.word	0x00000402
 800284c:	00000406 	.word	0x00000406
 8002850:	00000f8f 	.word	0x00000f8f
 8002854:	ffff8000 	.word	0xffff8000
 8002858:	ffffbf8f 	.word	0xffffbf8f
 800285c:	00008080 	.word	0x00008080
 8002860:	ffff8f8f 	.word	0xffff8f8f
 8002864:	000080c0 	.word	0x000080c0
 8002868:	9d00      	ldr	r5, [sp, #0]
 800286a:	882e      	ldrh	r6, [r5, #0]
 800286c:	00d5      	lsls	r5, r2, #3
 800286e:	1976      	adds	r6, r6, r5
 8002870:	4dc4      	ldr	r5, [pc, #784]	@ (8002b84 <HAL_PCD_IRQHandler+0x6d4>)
 8002872:	1836      	adds	r6, r6, r0
 8002874:	1976      	adds	r6, r6, r5
 8002876:	8835      	ldrh	r5, [r6, #0]
 8002878:	05ad      	lsls	r5, r5, #22
 800287a:	0dad      	lsrs	r5, r5, #22
 800287c:	428d      	cmp	r5, r1
 800287e:	d90d      	bls.n	800289c <HAL_PCD_IRQHandler+0x3ec>
 8002880:	9903      	ldr	r1, [sp, #12]
 8002882:	6019      	str	r1, [r3, #0]
 8002884:	0091      	lsls	r1, r2, #2
 8002886:	1841      	adds	r1, r0, r1
 8002888:	880e      	ldrh	r6, [r1, #0]
 800288a:	4bbf      	ldr	r3, [pc, #764]	@ (8002b88 <HAL_PCD_IRQHandler+0x6d8>)
 800288c:	401e      	ands	r6, r3
 800288e:	2380      	movs	r3, #128	@ 0x80
 8002890:	019b      	lsls	r3, r3, #6
 8002892:	4073      	eors	r3, r6
 8002894:	4ebd      	ldr	r6, [pc, #756]	@ (8002b8c <HAL_PCD_IRQHandler+0x6dc>)
 8002896:	4333      	orrs	r3, r6
 8002898:	800b      	strh	r3, [r1, #0]
 800289a:	e002      	b.n	80028a2 <HAL_PCD_IRQHandler+0x3f2>
 800289c:	1b49      	subs	r1, r1, r5
 800289e:	6019      	str	r1, [r3, #0]
 80028a0:	d0f0      	beq.n	8002884 <HAL_PCD_IRQHandler+0x3d4>
 80028a2:	9b02      	ldr	r3, [sp, #8]
 80028a4:	065b      	lsls	r3, r3, #25
 80028a6:	d407      	bmi.n	80028b8 <HAL_PCD_IRQHandler+0x408>
 80028a8:	0092      	lsls	r2, r2, #2
 80028aa:	1882      	adds	r2, r0, r2
 80028ac:	8813      	ldrh	r3, [r2, #0]
 80028ae:	49b8      	ldr	r1, [pc, #736]	@ (8002b90 <HAL_PCD_IRQHandler+0x6e0>)
 80028b0:	400b      	ands	r3, r1
 80028b2:	49b8      	ldr	r1, [pc, #736]	@ (8002b94 <HAL_PCD_IRQHandler+0x6e4>)
 80028b4:	430b      	orrs	r3, r1
 80028b6:	8013      	strh	r3, [r2, #0]
 80028b8:	2d00      	cmp	r5, #0
 80028ba:	d100      	bne.n	80028be <HAL_PCD_IRQHandler+0x40e>
 80028bc:	e760      	b.n	8002780 <HAL_PCD_IRQHandler+0x2d0>
 80028be:	2328      	movs	r3, #40	@ 0x28
 80028c0:	9a01      	ldr	r2, [sp, #4]
 80028c2:	4353      	muls	r3, r2
 80028c4:	18e1      	adds	r1, r4, r3
 80028c6:	000a      	movs	r2, r1
 80028c8:	3273      	adds	r2, #115	@ 0x73
 80028ca:	e751      	b.n	8002770 <HAL_PCD_IRQHandler+0x2c0>
 80028cc:	0092      	lsls	r2, r2, #2
 80028ce:	1882      	adds	r2, r0, r2
 80028d0:	8816      	ldrh	r6, [r2, #0]
 80028d2:	49af      	ldr	r1, [pc, #700]	@ (8002b90 <HAL_PCD_IRQHandler+0x6e0>)
 80028d4:	4031      	ands	r1, r6
 80028d6:	4eaf      	ldr	r6, [pc, #700]	@ (8002b94 <HAL_PCD_IRQHandler+0x6e4>)
 80028d8:	4331      	orrs	r1, r6
 80028da:	8011      	strh	r1, [r2, #0]
 80028dc:	782a      	ldrb	r2, [r5, #0]
 80028de:	0091      	lsls	r1, r2, #2
 80028e0:	1841      	adds	r1, r0, r1
 80028e2:	880d      	ldrh	r5, [r1, #0]
 80028e4:	0001      	movs	r1, r0
 80028e6:	3150      	adds	r1, #80	@ 0x50
 80028e8:	8809      	ldrh	r1, [r1, #0]
 80028ea:	00d2      	lsls	r2, r2, #3
 80028ec:	1852      	adds	r2, r2, r1
 80028ee:	1812      	adds	r2, r2, r0
 80028f0:	046d      	lsls	r5, r5, #17
 80028f2:	d50a      	bpl.n	800290a <HAL_PCD_IRQHandler+0x45a>
 80028f4:	49a8      	ldr	r1, [pc, #672]	@ (8002b98 <HAL_PCD_IRQHandler+0x6e8>)
 80028f6:	1852      	adds	r2, r2, r1
 80028f8:	8812      	ldrh	r2, [r2, #0]
 80028fa:	0592      	lsls	r2, r2, #22
 80028fc:	0d95      	lsrs	r5, r2, #22
 80028fe:	2a00      	cmp	r2, #0
 8002900:	d100      	bne.n	8002904 <HAL_PCD_IRQHandler+0x454>
 8002902:	e73d      	b.n	8002780 <HAL_PCD_IRQHandler+0x2d0>
 8002904:	001a      	movs	r2, r3
 8002906:	3271      	adds	r2, #113	@ 0x71
 8002908:	e6e2      	b.n	80026d0 <HAL_PCD_IRQHandler+0x220>
 800290a:	499e      	ldr	r1, [pc, #632]	@ (8002b84 <HAL_PCD_IRQHandler+0x6d4>)
 800290c:	1852      	adds	r2, r2, r1
 800290e:	8812      	ldrh	r2, [r2, #0]
 8002910:	0592      	lsls	r2, r2, #22
 8002912:	0d95      	lsrs	r5, r2, #22
 8002914:	2a00      	cmp	r2, #0
 8002916:	d100      	bne.n	800291a <HAL_PCD_IRQHandler+0x46a>
 8002918:	e732      	b.n	8002780 <HAL_PCD_IRQHandler+0x2d0>
 800291a:	001a      	movs	r2, r3
 800291c:	3273      	adds	r2, #115	@ 0x73
 800291e:	e6d7      	b.n	80026d0 <HAL_PCD_IRQHandler+0x220>
 8002920:	3169      	adds	r1, #105	@ 0x69
 8002922:	31ff      	adds	r1, #255	@ 0xff
 8002924:	6820      	ldr	r0, [r4, #0]
 8002926:	1861      	adds	r1, r4, r1
 8002928:	f001 ffba 	bl	80048a0 <USB_EPStartXfer>
 800292c:	e74a      	b.n	80027c4 <HAL_PCD_IRQHandler+0x314>
 800292e:	2901      	cmp	r1, #1
 8002930:	d109      	bne.n	8002946 <HAL_PCD_IRQHandler+0x496>
 8002932:	0001      	movs	r1, r0
 8002934:	4e98      	ldr	r6, [pc, #608]	@ (8002b98 <HAL_PCD_IRQHandler+0x6e8>)
 8002936:	3150      	adds	r1, #80	@ 0x50
 8002938:	880d      	ldrh	r5, [r1, #0]
 800293a:	7811      	ldrb	r1, [r2, #0]
 800293c:	1980      	adds	r0, r0, r6
 800293e:	00c9      	lsls	r1, r1, #3
 8002940:	1940      	adds	r0, r0, r5
 8002942:	1809      	adds	r1, r1, r0
 8002944:	800b      	strh	r3, [r1, #0]
 8002946:	7811      	ldrb	r1, [r2, #0]
 8002948:	0020      	movs	r0, r4
 800294a:	f003 fa05 	bl	8005d58 <HAL_PCD_DataInStageCallback>
 800294e:	e5bd      	b.n	80024cc <HAL_PCD_IRQHandler+0x1c>
 8002950:	782b      	ldrb	r3, [r5, #0]
 8002952:	2b00      	cmp	r3, #0
 8002954:	d106      	bne.n	8002964 <HAL_PCD_IRQHandler+0x4b4>
 8002956:	0003      	movs	r3, r0
 8002958:	7811      	ldrb	r1, [r2, #0]
 800295a:	3350      	adds	r3, #80	@ 0x50
 800295c:	881d      	ldrh	r5, [r3, #0]
 800295e:	00c9      	lsls	r1, r1, #3
 8002960:	4b88      	ldr	r3, [pc, #544]	@ (8002b84 <HAL_PCD_IRQHandler+0x6d4>)
 8002962:	e762      	b.n	800282a <HAL_PCD_IRQHandler+0x37a>
 8002964:	2b01      	cmp	r3, #1
 8002966:	d1ee      	bne.n	8002946 <HAL_PCD_IRQHandler+0x496>
 8002968:	0003      	movs	r3, r0
 800296a:	4d86      	ldr	r5, [pc, #536]	@ (8002b84 <HAL_PCD_IRQHandler+0x6d4>)
 800296c:	3350      	adds	r3, #80	@ 0x50
 800296e:	8819      	ldrh	r1, [r3, #0]
 8002970:	7813      	ldrb	r3, [r2, #0]
 8002972:	1940      	adds	r0, r0, r5
 8002974:	00db      	lsls	r3, r3, #3
 8002976:	1840      	adds	r0, r0, r1
 8002978:	181b      	adds	r3, r3, r0
 800297a:	801e      	strh	r6, [r3, #0]
 800297c:	e7e3      	b.n	8002946 <HAL_PCD_IRQHandler+0x496>
 800297e:	7812      	ldrb	r2, [r2, #0]
 8002980:	9f02      	ldr	r7, [sp, #8]
 8002982:	9203      	str	r2, [sp, #12]
 8002984:	00d2      	lsls	r2, r2, #3
 8002986:	9200      	str	r2, [sp, #0]
 8002988:	2280      	movs	r2, #128	@ 0x80
 800298a:	9902      	ldr	r1, [sp, #8]
 800298c:	0052      	lsls	r2, r2, #1
 800298e:	6c2e      	ldr	r6, [r5, #64]	@ 0x40
 8002990:	4017      	ands	r7, r2
 8002992:	4211      	tst	r1, r2
 8002994:	d11e      	bne.n	80029d4 <HAL_PCD_IRQHandler+0x524>
 8002996:	0002      	movs	r2, r0
 8002998:	3250      	adds	r2, #80	@ 0x50
 800299a:	9900      	ldr	r1, [sp, #0]
 800299c:	8812      	ldrh	r2, [r2, #0]
 800299e:	1852      	adds	r2, r2, r1
 80029a0:	497d      	ldr	r1, [pc, #500]	@ (8002b98 <HAL_PCD_IRQHandler+0x6e8>)
 80029a2:	1812      	adds	r2, r2, r0
 80029a4:	1852      	adds	r2, r2, r1
 80029a6:	8812      	ldrh	r2, [r2, #0]
 80029a8:	0592      	lsls	r2, r2, #22
 80029aa:	0d92      	lsrs	r2, r2, #22
 80029ac:	42b2      	cmp	r2, r6
 80029ae:	d302      	bcc.n	80029b6 <HAL_PCD_IRQHandler+0x506>
 80029b0:	9903      	ldr	r1, [sp, #12]
 80029b2:	642f      	str	r7, [r5, #64]	@ 0x40
 80029b4:	e7c8      	b.n	8002948 <HAL_PCD_IRQHandler+0x498>
 80029b6:	6be9      	ldr	r1, [r5, #60]	@ 0x3c
 80029b8:	1ab6      	subs	r6, r6, r2
 80029ba:	1889      	adds	r1, r1, r2
 80029bc:	63e9      	str	r1, [r5, #60]	@ 0x3c
 80029be:	6c69      	ldr	r1, [r5, #68]	@ 0x44
 80029c0:	642e      	str	r6, [r5, #64]	@ 0x40
 80029c2:	188a      	adds	r2, r1, r2
 80029c4:	646a      	str	r2, [r5, #68]	@ 0x44
 80029c6:	9a01      	ldr	r2, [sp, #4]
 80029c8:	3201      	adds	r2, #1
 80029ca:	4353      	muls	r3, r2
 80029cc:	18e1      	adds	r1, r4, r3
 80029ce:	f001 ff67 	bl	80048a0 <USB_EPStartXfer>
 80029d2:	e57b      	b.n	80024cc <HAL_PCD_IRQHandler+0x1c>
 80029d4:	2240      	movs	r2, #64	@ 0x40
 80029d6:	0003      	movs	r3, r0
 80029d8:	9f02      	ldr	r7, [sp, #8]
 80029da:	9902      	ldr	r1, [sp, #8]
 80029dc:	4017      	ands	r7, r2
 80029de:	3350      	adds	r3, #80	@ 0x50
 80029e0:	4211      	tst	r1, r2
 80029e2:	d100      	bne.n	80029e6 <HAL_PCD_IRQHandler+0x536>
 80029e4:	e0de      	b.n	8002ba4 <HAL_PCD_IRQHandler+0x6f4>
 80029e6:	496c      	ldr	r1, [pc, #432]	@ (8002b98 <HAL_PCD_IRQHandler+0x6e8>)
 80029e8:	881a      	ldrh	r2, [r3, #0]
 80029ea:	1847      	adds	r7, r0, r1
 80029ec:	9900      	ldr	r1, [sp, #0]
 80029ee:	18ba      	adds	r2, r7, r2
 80029f0:	5a52      	ldrh	r2, [r2, r1]
 80029f2:	0592      	lsls	r2, r2, #22
 80029f4:	0d92      	lsrs	r2, r2, #22
 80029f6:	4694      	mov	ip, r2
 80029f8:	2200      	movs	r2, #0
 80029fa:	45b4      	cmp	ip, r6
 80029fc:	d201      	bcs.n	8002a02 <HAL_PCD_IRQHandler+0x552>
 80029fe:	4662      	mov	r2, ip
 8002a00:	1ab2      	subs	r2, r6, r2
 8002a02:	2628      	movs	r6, #40	@ 0x28
 8002a04:	9901      	ldr	r1, [sp, #4]
 8002a06:	434e      	muls	r6, r1
 8002a08:	19a6      	adds	r6, r4, r6
 8002a0a:	6432      	str	r2, [r6, #64]	@ 0x40
 8002a0c:	2680      	movs	r6, #128	@ 0x80
 8002a0e:	9902      	ldr	r1, [sp, #8]
 8002a10:	01f6      	lsls	r6, r6, #7
 8002a12:	4031      	ands	r1, r6
 8002a14:	000e      	movs	r6, r1
 8002a16:	2a00      	cmp	r2, #0
 8002a18:	d14a      	bne.n	8002ab0 <HAL_PCD_IRQHandler+0x600>
 8002a1a:	2129      	movs	r1, #41	@ 0x29
 8002a1c:	468c      	mov	ip, r1
 8002a1e:	44ac      	add	ip, r5
 8002a20:	4661      	mov	r1, ip
 8002a22:	7809      	ldrb	r1, [r1, #0]
 8002a24:	2900      	cmp	r1, #0
 8002a26:	d12e      	bne.n	8002a86 <HAL_PCD_IRQHandler+0x5d6>
 8002a28:	881a      	ldrh	r2, [r3, #0]
 8002a2a:	9900      	ldr	r1, [sp, #0]
 8002a2c:	18ba      	adds	r2, r7, r2
 8002a2e:	1852      	adds	r2, r2, r1
 8002a30:	8817      	ldrh	r7, [r2, #0]
 8002a32:	495a      	ldr	r1, [pc, #360]	@ (8002b9c <HAL_PCD_IRQHandler+0x6ec>)
 8002a34:	05bf      	lsls	r7, r7, #22
 8002a36:	0dbf      	lsrs	r7, r7, #22
 8002a38:	8017      	strh	r7, [r2, #0]
 8002a3a:	8817      	ldrh	r7, [r2, #0]
 8002a3c:	430f      	orrs	r7, r1
 8002a3e:	b2bf      	uxth	r7, r7
 8002a40:	8017      	strh	r7, [r2, #0]
 8002a42:	4a50      	ldr	r2, [pc, #320]	@ (8002b84 <HAL_PCD_IRQHandler+0x6d4>)
 8002a44:	881b      	ldrh	r3, [r3, #0]
 8002a46:	1880      	adds	r0, r0, r2
 8002a48:	18c0      	adds	r0, r0, r3
 8002a4a:	9b00      	ldr	r3, [sp, #0]
 8002a4c:	18c0      	adds	r0, r0, r3
 8002a4e:	8803      	ldrh	r3, [r0, #0]
 8002a50:	059b      	lsls	r3, r3, #22
 8002a52:	0d9b      	lsrs	r3, r3, #22
 8002a54:	8003      	strh	r3, [r0, #0]
 8002a56:	8803      	ldrh	r3, [r0, #0]
 8002a58:	430b      	orrs	r3, r1
 8002a5a:	b29b      	uxth	r3, r3
 8002a5c:	8003      	strh	r3, [r0, #0]
 8002a5e:	0020      	movs	r0, r4
 8002a60:	9903      	ldr	r1, [sp, #12]
 8002a62:	f003 f979 	bl	8005d58 <HAL_PCD_DataInStageCallback>
 8002a66:	2e00      	cmp	r6, #0
 8002a68:	d100      	bne.n	8002a6c <HAL_PCD_IRQHandler+0x5bc>
 8002a6a:	e0da      	b.n	8002c22 <HAL_PCD_IRQHandler+0x772>
 8002a6c:	002b      	movs	r3, r5
 8002a6e:	3328      	adds	r3, #40	@ 0x28
 8002a70:	781b      	ldrb	r3, [r3, #0]
 8002a72:	6822      	ldr	r2, [r4, #0]
 8002a74:	009b      	lsls	r3, r3, #2
 8002a76:	18d2      	adds	r2, r2, r3
 8002a78:	8813      	ldrh	r3, [r2, #0]
 8002a7a:	4945      	ldr	r1, [pc, #276]	@ (8002b90 <HAL_PCD_IRQHandler+0x6e0>)
 8002a7c:	400b      	ands	r3, r1
 8002a7e:	4948      	ldr	r1, [pc, #288]	@ (8002ba0 <HAL_PCD_IRQHandler+0x6f0>)
 8002a80:	430b      	orrs	r3, r1
 8002a82:	8013      	strh	r3, [r2, #0]
 8002a84:	e0cd      	b.n	8002c22 <HAL_PCD_IRQHandler+0x772>
 8002a86:	000b      	movs	r3, r1
 8002a88:	2901      	cmp	r1, #1
 8002a8a:	d1e8      	bne.n	8002a5e <HAL_PCD_IRQHandler+0x5ae>
 8002a8c:	334f      	adds	r3, #79	@ 0x4f
 8002a8e:	469c      	mov	ip, r3
 8002a90:	4484      	add	ip, r0
 8002a92:	4663      	mov	r3, ip
 8002a94:	881b      	ldrh	r3, [r3, #0]
 8002a96:	9900      	ldr	r1, [sp, #0]
 8002a98:	18fb      	adds	r3, r7, r3
 8002a9a:	185b      	adds	r3, r3, r1
 8002a9c:	801a      	strh	r2, [r3, #0]
 8002a9e:	4663      	mov	r3, ip
 8002aa0:	4938      	ldr	r1, [pc, #224]	@ (8002b84 <HAL_PCD_IRQHandler+0x6d4>)
 8002aa2:	881b      	ldrh	r3, [r3, #0]
 8002aa4:	1840      	adds	r0, r0, r1
 8002aa6:	18c0      	adds	r0, r0, r3
 8002aa8:	9b00      	ldr	r3, [sp, #0]
 8002aaa:	18c0      	adds	r0, r0, r3
 8002aac:	8002      	strh	r2, [r0, #0]
 8002aae:	e7d6      	b.n	8002a5e <HAL_PCD_IRQHandler+0x5ae>
 8002ab0:	2900      	cmp	r1, #0
 8002ab2:	d008      	beq.n	8002ac6 <HAL_PCD_IRQHandler+0x616>
 8002ab4:	9b03      	ldr	r3, [sp, #12]
 8002ab6:	0099      	lsls	r1, r3, #2
 8002ab8:	1841      	adds	r1, r0, r1
 8002aba:	880a      	ldrh	r2, [r1, #0]
 8002abc:	4b34      	ldr	r3, [pc, #208]	@ (8002b90 <HAL_PCD_IRQHandler+0x6e0>)
 8002abe:	4013      	ands	r3, r2
 8002ac0:	4a37      	ldr	r2, [pc, #220]	@ (8002ba0 <HAL_PCD_IRQHandler+0x6f0>)
 8002ac2:	4313      	orrs	r3, r2
 8002ac4:	800b      	strh	r3, [r1, #0]
 8002ac6:	2328      	movs	r3, #40	@ 0x28
 8002ac8:	9a01      	ldr	r2, [sp, #4]
 8002aca:	4353      	muls	r3, r2
 8002acc:	18e3      	adds	r3, r4, r3
 8002ace:	001e      	movs	r6, r3
 8002ad0:	364c      	adds	r6, #76	@ 0x4c
 8002ad2:	7832      	ldrb	r2, [r6, #0]
 8002ad4:	2a01      	cmp	r2, #1
 8002ad6:	d000      	beq.n	8002ada <HAL_PCD_IRQHandler+0x62a>
 8002ad8:	e0a3      	b.n	8002c22 <HAL_PCD_IRQHandler+0x772>
 8002ada:	6bda      	ldr	r2, [r3, #60]	@ 0x3c
 8002adc:	6c99      	ldr	r1, [r3, #72]	@ 0x48
 8002ade:	4462      	add	r2, ip
 8002ae0:	9202      	str	r2, [sp, #8]
 8002ae2:	63da      	str	r2, [r3, #60]	@ 0x3c
 8002ae4:	6c5a      	ldr	r2, [r3, #68]	@ 0x44
 8002ae6:	4462      	add	r2, ip
 8002ae8:	645a      	str	r2, [r3, #68]	@ 0x44
 8002aea:	6b9a      	ldr	r2, [r3, #56]	@ 0x38
 8002aec:	4291      	cmp	r1, r2
 8002aee:	d329      	bcc.n	8002b44 <HAL_PCD_IRQHandler+0x694>
 8002af0:	1a89      	subs	r1, r1, r2
 8002af2:	6499      	str	r1, [r3, #72]	@ 0x48
 8002af4:	002b      	movs	r3, r5
 8002af6:	3329      	adds	r3, #41	@ 0x29
 8002af8:	7819      	ldrb	r1, [r3, #0]
 8002afa:	b293      	uxth	r3, r2
 8002afc:	2900      	cmp	r1, #0
 8002afe:	d136      	bne.n	8002b6e <HAL_PCD_IRQHandler+0x6be>
 8002b00:	0001      	movs	r1, r0
 8002b02:	3150      	adds	r1, #80	@ 0x50
 8002b04:	8809      	ldrh	r1, [r1, #0]
 8002b06:	9e00      	ldr	r6, [sp, #0]
 8002b08:	1879      	adds	r1, r7, r1
 8002b0a:	1989      	adds	r1, r1, r6
 8002b0c:	880e      	ldrh	r6, [r1, #0]
 8002b0e:	05b6      	lsls	r6, r6, #22
 8002b10:	0db6      	lsrs	r6, r6, #22
 8002b12:	800e      	strh	r6, [r1, #0]
 8002b14:	2a3e      	cmp	r2, #62	@ 0x3e
 8002b16:	d91f      	bls.n	8002b58 <HAL_PCD_IRQHandler+0x6a8>
 8002b18:	271f      	movs	r7, #31
 8002b1a:	0956      	lsrs	r6, r2, #5
 8002b1c:	403a      	ands	r2, r7
 8002b1e:	4257      	negs	r7, r2
 8002b20:	417a      	adcs	r2, r7
 8002b22:	1ab6      	subs	r6, r6, r2
 8002b24:	880a      	ldrh	r2, [r1, #0]
 8002b26:	02b6      	lsls	r6, r6, #10
 8002b28:	4332      	orrs	r2, r6
 8002b2a:	4e1c      	ldr	r6, [pc, #112]	@ (8002b9c <HAL_PCD_IRQHandler+0x6ec>)
 8002b2c:	4332      	orrs	r2, r6
 8002b2e:	b292      	uxth	r2, r2
 8002b30:	800a      	strh	r2, [r1, #0]
 8002b32:	2228      	movs	r2, #40	@ 0x28
 8002b34:	9901      	ldr	r1, [sp, #4]
 8002b36:	434a      	muls	r2, r1
 8002b38:	18a2      	adds	r2, r4, r2
 8002b3a:	8e12      	ldrh	r2, [r2, #48]	@ 0x30
 8002b3c:	9902      	ldr	r1, [sp, #8]
 8002b3e:	f001 fe9a 	bl	8004876 <USB_WritePMA>
 8002b42:	e06e      	b.n	8002c22 <HAL_PCD_IRQHandler+0x772>
 8002b44:	2900      	cmp	r1, #0
 8002b46:	d102      	bne.n	8002b4e <HAL_PCD_IRQHandler+0x69e>
 8002b48:	4662      	mov	r2, ip
 8002b4a:	7031      	strb	r1, [r6, #0]
 8002b4c:	e7d2      	b.n	8002af4 <HAL_PCD_IRQHandler+0x644>
 8002b4e:	2200      	movs	r2, #0
 8002b50:	7032      	strb	r2, [r6, #0]
 8002b52:	649a      	str	r2, [r3, #72]	@ 0x48
 8002b54:	000a      	movs	r2, r1
 8002b56:	e7cd      	b.n	8002af4 <HAL_PCD_IRQHandler+0x644>
 8002b58:	2a00      	cmp	r2, #0
 8002b5a:	d101      	bne.n	8002b60 <HAL_PCD_IRQHandler+0x6b0>
 8002b5c:	880a      	ldrh	r2, [r1, #0]
 8002b5e:	e7e4      	b.n	8002b2a <HAL_PCD_IRQHandler+0x67a>
 8002b60:	2701      	movs	r7, #1
 8002b62:	0856      	lsrs	r6, r2, #1
 8002b64:	403a      	ands	r2, r7
 8002b66:	18b6      	adds	r6, r6, r2
 8002b68:	02b6      	lsls	r6, r6, #10
 8002b6a:	880a      	ldrh	r2, [r1, #0]
 8002b6c:	e7de      	b.n	8002b2c <HAL_PCD_IRQHandler+0x67c>
 8002b6e:	2901      	cmp	r1, #1
 8002b70:	d1df      	bne.n	8002b32 <HAL_PCD_IRQHandler+0x682>
 8002b72:	0002      	movs	r2, r0
 8002b74:	3250      	adds	r2, #80	@ 0x50
 8002b76:	8812      	ldrh	r2, [r2, #0]
 8002b78:	18bf      	adds	r7, r7, r2
 8002b7a:	9a00      	ldr	r2, [sp, #0]
 8002b7c:	18bf      	adds	r7, r7, r2
 8002b7e:	803b      	strh	r3, [r7, #0]
 8002b80:	e7d7      	b.n	8002b32 <HAL_PCD_IRQHandler+0x682>
 8002b82:	46c0      	nop			@ (mov r8, r8)
 8002b84:	00000406 	.word	0x00000406
 8002b88:	ffffbf8f 	.word	0xffffbf8f
 8002b8c:	00008080 	.word	0x00008080
 8002b90:	ffff8f8f 	.word	0xffff8f8f
 8002b94:	000080c0 	.word	0x000080c0
 8002b98:	00000402 	.word	0x00000402
 8002b9c:	ffff8000 	.word	0xffff8000
 8002ba0:	0000c080 	.word	0x0000c080
 8002ba4:	49a8      	ldr	r1, [pc, #672]	@ (8002e48 <HAL_PCD_IRQHandler+0x998>)
 8002ba6:	881a      	ldrh	r2, [r3, #0]
 8002ba8:	468c      	mov	ip, r1
 8002baa:	9900      	ldr	r1, [sp, #0]
 8002bac:	4484      	add	ip, r0
 8002bae:	4462      	add	r2, ip
 8002bb0:	5a52      	ldrh	r2, [r2, r1]
 8002bb2:	0592      	lsls	r2, r2, #22
 8002bb4:	0d92      	lsrs	r2, r2, #22
 8002bb6:	42b2      	cmp	r2, r6
 8002bb8:	d800      	bhi.n	8002bbc <HAL_PCD_IRQHandler+0x70c>
 8002bba:	1ab7      	subs	r7, r6, r2
 8002bbc:	2628      	movs	r6, #40	@ 0x28
 8002bbe:	9901      	ldr	r1, [sp, #4]
 8002bc0:	434e      	muls	r6, r1
 8002bc2:	19a6      	adds	r6, r4, r6
 8002bc4:	6437      	str	r7, [r6, #64]	@ 0x40
 8002bc6:	2680      	movs	r6, #128	@ 0x80
 8002bc8:	9902      	ldr	r1, [sp, #8]
 8002bca:	01f6      	lsls	r6, r6, #7
 8002bcc:	4031      	ands	r1, r6
 8002bce:	000e      	movs	r6, r1
 8002bd0:	2f00      	cmp	r7, #0
 8002bd2:	d140      	bne.n	8002c56 <HAL_PCD_IRQHandler+0x7a6>
 8002bd4:	002a      	movs	r2, r5
 8002bd6:	3229      	adds	r2, #41	@ 0x29
 8002bd8:	7812      	ldrb	r2, [r2, #0]
 8002bda:	2a00      	cmp	r2, #0
 8002bdc:	d12b      	bne.n	8002c36 <HAL_PCD_IRQHandler+0x786>
 8002bde:	499b      	ldr	r1, [pc, #620]	@ (8002e4c <HAL_PCD_IRQHandler+0x99c>)
 8002be0:	881a      	ldrh	r2, [r3, #0]
 8002be2:	1840      	adds	r0, r0, r1
 8002be4:	1880      	adds	r0, r0, r2
 8002be6:	9a00      	ldr	r2, [sp, #0]
 8002be8:	4999      	ldr	r1, [pc, #612]	@ (8002e50 <HAL_PCD_IRQHandler+0x9a0>)
 8002bea:	1880      	adds	r0, r0, r2
 8002bec:	8802      	ldrh	r2, [r0, #0]
 8002bee:	0592      	lsls	r2, r2, #22
 8002bf0:	0d92      	lsrs	r2, r2, #22
 8002bf2:	8002      	strh	r2, [r0, #0]
 8002bf4:	8802      	ldrh	r2, [r0, #0]
 8002bf6:	430a      	orrs	r2, r1
 8002bf8:	b292      	uxth	r2, r2
 8002bfa:	8002      	strh	r2, [r0, #0]
 8002bfc:	881b      	ldrh	r3, [r3, #0]
 8002bfe:	9a00      	ldr	r2, [sp, #0]
 8002c00:	4463      	add	r3, ip
 8002c02:	189b      	adds	r3, r3, r2
 8002c04:	881a      	ldrh	r2, [r3, #0]
 8002c06:	0592      	lsls	r2, r2, #22
 8002c08:	0d92      	lsrs	r2, r2, #22
 8002c0a:	801a      	strh	r2, [r3, #0]
 8002c0c:	881a      	ldrh	r2, [r3, #0]
 8002c0e:	430a      	orrs	r2, r1
 8002c10:	b292      	uxth	r2, r2
 8002c12:	801a      	strh	r2, [r3, #0]
 8002c14:	0020      	movs	r0, r4
 8002c16:	9903      	ldr	r1, [sp, #12]
 8002c18:	f003 f89e 	bl	8005d58 <HAL_PCD_DataInStageCallback>
 8002c1c:	2e00      	cmp	r6, #0
 8002c1e:	d100      	bne.n	8002c22 <HAL_PCD_IRQHandler+0x772>
 8002c20:	e724      	b.n	8002a6c <HAL_PCD_IRQHandler+0x5bc>
 8002c22:	3528      	adds	r5, #40	@ 0x28
 8002c24:	782b      	ldrb	r3, [r5, #0]
 8002c26:	6821      	ldr	r1, [r4, #0]
 8002c28:	009b      	lsls	r3, r3, #2
 8002c2a:	18c9      	adds	r1, r1, r3
 8002c2c:	880a      	ldrh	r2, [r1, #0]
 8002c2e:	4b89      	ldr	r3, [pc, #548]	@ (8002e54 <HAL_PCD_IRQHandler+0x9a4>)
 8002c30:	401a      	ands	r2, r3
 8002c32:	2330      	movs	r3, #48	@ 0x30
 8002c34:	e513      	b.n	800265e <HAL_PCD_IRQHandler+0x1ae>
 8002c36:	2a01      	cmp	r2, #1
 8002c38:	d1ec      	bne.n	8002c14 <HAL_PCD_IRQHandler+0x764>
 8002c3a:	0003      	movs	r3, r0
 8002c3c:	4983      	ldr	r1, [pc, #524]	@ (8002e4c <HAL_PCD_IRQHandler+0x99c>)
 8002c3e:	3350      	adds	r3, #80	@ 0x50
 8002c40:	881a      	ldrh	r2, [r3, #0]
 8002c42:	1840      	adds	r0, r0, r1
 8002c44:	1880      	adds	r0, r0, r2
 8002c46:	9a00      	ldr	r2, [sp, #0]
 8002c48:	1880      	adds	r0, r0, r2
 8002c4a:	8007      	strh	r7, [r0, #0]
 8002c4c:	881b      	ldrh	r3, [r3, #0]
 8002c4e:	4463      	add	r3, ip
 8002c50:	189b      	adds	r3, r3, r2
 8002c52:	801f      	strh	r7, [r3, #0]
 8002c54:	e7de      	b.n	8002c14 <HAL_PCD_IRQHandler+0x764>
 8002c56:	2900      	cmp	r1, #0
 8002c58:	d108      	bne.n	8002c6c <HAL_PCD_IRQHandler+0x7bc>
 8002c5a:	9b03      	ldr	r3, [sp, #12]
 8002c5c:	0099      	lsls	r1, r3, #2
 8002c5e:	1841      	adds	r1, r0, r1
 8002c60:	880e      	ldrh	r6, [r1, #0]
 8002c62:	4b7d      	ldr	r3, [pc, #500]	@ (8002e58 <HAL_PCD_IRQHandler+0x9a8>)
 8002c64:	4033      	ands	r3, r6
 8002c66:	4e7d      	ldr	r6, [pc, #500]	@ (8002e5c <HAL_PCD_IRQHandler+0x9ac>)
 8002c68:	4333      	orrs	r3, r6
 8002c6a:	800b      	strh	r3, [r1, #0]
 8002c6c:	2328      	movs	r3, #40	@ 0x28
 8002c6e:	9901      	ldr	r1, [sp, #4]
 8002c70:	434b      	muls	r3, r1
 8002c72:	18e3      	adds	r3, r4, r3
 8002c74:	001f      	movs	r7, r3
 8002c76:	374c      	adds	r7, #76	@ 0x4c
 8002c78:	7839      	ldrb	r1, [r7, #0]
 8002c7a:	2901      	cmp	r1, #1
 8002c7c:	d1d1      	bne.n	8002c22 <HAL_PCD_IRQHandler+0x772>
 8002c7e:	6bd9      	ldr	r1, [r3, #60]	@ 0x3c
 8002c80:	6c9e      	ldr	r6, [r3, #72]	@ 0x48
 8002c82:	1889      	adds	r1, r1, r2
 8002c84:	9102      	str	r1, [sp, #8]
 8002c86:	63d9      	str	r1, [r3, #60]	@ 0x3c
 8002c88:	6c59      	ldr	r1, [r3, #68]	@ 0x44
 8002c8a:	1889      	adds	r1, r1, r2
 8002c8c:	6459      	str	r1, [r3, #68]	@ 0x44
 8002c8e:	6b99      	ldr	r1, [r3, #56]	@ 0x38
 8002c90:	428e      	cmp	r6, r1
 8002c92:	d326      	bcc.n	8002ce2 <HAL_PCD_IRQHandler+0x832>
 8002c94:	1a76      	subs	r6, r6, r1
 8002c96:	649e      	str	r6, [r3, #72]	@ 0x48
 8002c98:	002b      	movs	r3, r5
 8002c9a:	3329      	adds	r3, #41	@ 0x29
 8002c9c:	781a      	ldrb	r2, [r3, #0]
 8002c9e:	b28b      	uxth	r3, r1
 8002ca0:	2a00      	cmp	r2, #0
 8002ca2:	d133      	bne.n	8002d0c <HAL_PCD_IRQHandler+0x85c>
 8002ca4:	0002      	movs	r2, r0
 8002ca6:	3250      	adds	r2, #80	@ 0x50
 8002ca8:	8812      	ldrh	r2, [r2, #0]
 8002caa:	9e00      	ldr	r6, [sp, #0]
 8002cac:	4462      	add	r2, ip
 8002cae:	1992      	adds	r2, r2, r6
 8002cb0:	8816      	ldrh	r6, [r2, #0]
 8002cb2:	05b6      	lsls	r6, r6, #22
 8002cb4:	0db6      	lsrs	r6, r6, #22
 8002cb6:	8016      	strh	r6, [r2, #0]
 8002cb8:	293e      	cmp	r1, #62	@ 0x3e
 8002cba:	d91c      	bls.n	8002cf6 <HAL_PCD_IRQHandler+0x846>
 8002cbc:	271f      	movs	r7, #31
 8002cbe:	094e      	lsrs	r6, r1, #5
 8002cc0:	4039      	ands	r1, r7
 8002cc2:	424f      	negs	r7, r1
 8002cc4:	4179      	adcs	r1, r7
 8002cc6:	1a76      	subs	r6, r6, r1
 8002cc8:	8811      	ldrh	r1, [r2, #0]
 8002cca:	02b6      	lsls	r6, r6, #10
 8002ccc:	4331      	orrs	r1, r6
 8002cce:	4e60      	ldr	r6, [pc, #384]	@ (8002e50 <HAL_PCD_IRQHandler+0x9a0>)
 8002cd0:	4331      	orrs	r1, r6
 8002cd2:	b289      	uxth	r1, r1
 8002cd4:	8011      	strh	r1, [r2, #0]
 8002cd6:	2228      	movs	r2, #40	@ 0x28
 8002cd8:	9901      	ldr	r1, [sp, #4]
 8002cda:	434a      	muls	r2, r1
 8002cdc:	18a2      	adds	r2, r4, r2
 8002cde:	8e52      	ldrh	r2, [r2, #50]	@ 0x32
 8002ce0:	e72c      	b.n	8002b3c <HAL_PCD_IRQHandler+0x68c>
 8002ce2:	2e00      	cmp	r6, #0
 8002ce4:	d102      	bne.n	8002cec <HAL_PCD_IRQHandler+0x83c>
 8002ce6:	0011      	movs	r1, r2
 8002ce8:	703e      	strb	r6, [r7, #0]
 8002cea:	e7d5      	b.n	8002c98 <HAL_PCD_IRQHandler+0x7e8>
 8002cec:	2200      	movs	r2, #0
 8002cee:	0031      	movs	r1, r6
 8002cf0:	649a      	str	r2, [r3, #72]	@ 0x48
 8002cf2:	703a      	strb	r2, [r7, #0]
 8002cf4:	e7d0      	b.n	8002c98 <HAL_PCD_IRQHandler+0x7e8>
 8002cf6:	2900      	cmp	r1, #0
 8002cf8:	d101      	bne.n	8002cfe <HAL_PCD_IRQHandler+0x84e>
 8002cfa:	8811      	ldrh	r1, [r2, #0]
 8002cfc:	e7e7      	b.n	8002cce <HAL_PCD_IRQHandler+0x81e>
 8002cfe:	2701      	movs	r7, #1
 8002d00:	084e      	lsrs	r6, r1, #1
 8002d02:	4039      	ands	r1, r7
 8002d04:	1876      	adds	r6, r6, r1
 8002d06:	02b6      	lsls	r6, r6, #10
 8002d08:	8811      	ldrh	r1, [r2, #0]
 8002d0a:	e7e1      	b.n	8002cd0 <HAL_PCD_IRQHandler+0x820>
 8002d0c:	2a01      	cmp	r2, #1
 8002d0e:	d1e2      	bne.n	8002cd6 <HAL_PCD_IRQHandler+0x826>
 8002d10:	0002      	movs	r2, r0
 8002d12:	3250      	adds	r2, #80	@ 0x50
 8002d14:	8812      	ldrh	r2, [r2, #0]
 8002d16:	9900      	ldr	r1, [sp, #0]
 8002d18:	4462      	add	r2, ip
 8002d1a:	1852      	adds	r2, r2, r1
 8002d1c:	8013      	strh	r3, [r2, #0]
 8002d1e:	e7da      	b.n	8002cd6 <HAL_PCD_IRQHandler+0x826>
 8002d20:	0543      	lsls	r3, r0, #21
 8002d22:	d50e      	bpl.n	8002d42 <HAL_PCD_IRQHandler+0x892>
 8002d24:	6823      	ldr	r3, [r4, #0]
 8002d26:	494e      	ldr	r1, [pc, #312]	@ (8002e60 <HAL_PCD_IRQHandler+0x9b0>)
 8002d28:	3306      	adds	r3, #6
 8002d2a:	8fda      	ldrh	r2, [r3, #62]	@ 0x3e
 8002d2c:	0020      	movs	r0, r4
 8002d2e:	400a      	ands	r2, r1
 8002d30:	87da      	strh	r2, [r3, #62]	@ 0x3e
 8002d32:	f003 f823 	bl	8005d7c <HAL_PCD_ResetCallback>
 8002d36:	0029      	movs	r1, r5
 8002d38:	0020      	movs	r0, r4
 8002d3a:	f7ff fba6 	bl	800248a <HAL_PCD_SetAddress>
 8002d3e:	f7ff fbcb 	bl	80024d8 <HAL_PCD_IRQHandler+0x28>
 8002d42:	0443      	lsls	r3, r0, #17
 8002d44:	d507      	bpl.n	8002d56 <HAL_PCD_IRQHandler+0x8a6>
 8002d46:	6823      	ldr	r3, [r4, #0]
 8002d48:	4946      	ldr	r1, [pc, #280]	@ (8002e64 <HAL_PCD_IRQHandler+0x9b4>)
 8002d4a:	3306      	adds	r3, #6
 8002d4c:	8fda      	ldrh	r2, [r3, #62]	@ 0x3e
 8002d4e:	400a      	ands	r2, r1
 8002d50:	87da      	strh	r2, [r3, #62]	@ 0x3e
 8002d52:	f7ff fbc1 	bl	80024d8 <HAL_PCD_IRQHandler+0x28>
 8002d56:	2380      	movs	r3, #128	@ 0x80
 8002d58:	0001      	movs	r1, r0
 8002d5a:	019b      	lsls	r3, r3, #6
 8002d5c:	4019      	ands	r1, r3
 8002d5e:	4218      	tst	r0, r3
 8002d60:	d004      	beq.n	8002d6c <HAL_PCD_IRQHandler+0x8bc>
 8002d62:	6823      	ldr	r3, [r4, #0]
 8002d64:	4940      	ldr	r1, [pc, #256]	@ (8002e68 <HAL_PCD_IRQHandler+0x9b8>)
 8002d66:	3306      	adds	r3, #6
 8002d68:	8fda      	ldrh	r2, [r3, #62]	@ 0x3e
 8002d6a:	e7f0      	b.n	8002d4e <HAL_PCD_IRQHandler+0x89e>
 8002d6c:	04c3      	lsls	r3, r0, #19
 8002d6e:	d51a      	bpl.n	8002da6 <HAL_PCD_IRQHandler+0x8f6>
 8002d70:	2004      	movs	r0, #4
 8002d72:	6823      	ldr	r3, [r4, #0]
 8002d74:	3302      	adds	r3, #2
 8002d76:	8fda      	ldrh	r2, [r3, #62]	@ 0x3e
 8002d78:	4382      	bics	r2, r0
 8002d7a:	87da      	strh	r2, [r3, #62]	@ 0x3e
 8002d7c:	8fda      	ldrh	r2, [r3, #62]	@ 0x3e
 8002d7e:	1800      	adds	r0, r0, r0
 8002d80:	4382      	bics	r2, r0
 8002d82:	87da      	strh	r2, [r3, #62]	@ 0x3e
 8002d84:	23b8      	movs	r3, #184	@ 0xb8
 8002d86:	009b      	lsls	r3, r3, #2
 8002d88:	5ce2      	ldrb	r2, [r4, r3]
 8002d8a:	2a01      	cmp	r2, #1
 8002d8c:	d103      	bne.n	8002d96 <HAL_PCD_IRQHandler+0x8e6>
 8002d8e:	0020      	movs	r0, r4
 8002d90:	54e1      	strb	r1, [r4, r3]
 8002d92:	f000 f995 	bl	80030c0 <HAL_PCDEx_LPM_Callback>
 8002d96:	0020      	movs	r0, r4
 8002d98:	f003 f814 	bl	8005dc4 <HAL_PCD_ResumeCallback>
 8002d9c:	6823      	ldr	r3, [r4, #0]
 8002d9e:	4933      	ldr	r1, [pc, #204]	@ (8002e6c <HAL_PCD_IRQHandler+0x9bc>)
 8002da0:	3306      	adds	r3, #6
 8002da2:	8fda      	ldrh	r2, [r3, #62]	@ 0x3e
 8002da4:	e7d3      	b.n	8002d4e <HAL_PCD_IRQHandler+0x89e>
 8002da6:	0503      	lsls	r3, r0, #20
 8002da8:	d513      	bpl.n	8002dd2 <HAL_PCD_IRQHandler+0x922>
 8002daa:	2108      	movs	r1, #8
 8002dac:	6823      	ldr	r3, [r4, #0]
 8002dae:	1c9a      	adds	r2, r3, #2
 8002db0:	8fd0      	ldrh	r0, [r2, #62]	@ 0x3e
 8002db2:	3306      	adds	r3, #6
 8002db4:	4301      	orrs	r1, r0
 8002db6:	87d1      	strh	r1, [r2, #62]	@ 0x3e
 8002db8:	8fd9      	ldrh	r1, [r3, #62]	@ 0x3e
 8002dba:	482d      	ldr	r0, [pc, #180]	@ (8002e70 <HAL_PCD_IRQHandler+0x9c0>)
 8002dbc:	4001      	ands	r1, r0
 8002dbe:	87d9      	strh	r1, [r3, #62]	@ 0x3e
 8002dc0:	2304      	movs	r3, #4
 8002dc2:	8fd1      	ldrh	r1, [r2, #62]	@ 0x3e
 8002dc4:	430b      	orrs	r3, r1
 8002dc6:	87d3      	strh	r3, [r2, #62]	@ 0x3e
 8002dc8:	0020      	movs	r0, r4
 8002dca:	f002 ffe9 	bl	8005da0 <HAL_PCD_SuspendCallback>
 8002dce:	f7ff fb83 	bl	80024d8 <HAL_PCD_IRQHandler+0x28>
 8002dd2:	2580      	movs	r5, #128	@ 0x80
 8002dd4:	4228      	tst	r0, r5
 8002dd6:	d021      	beq.n	8002e1c <HAL_PCD_IRQHandler+0x96c>
 8002dd8:	20b8      	movs	r0, #184	@ 0xb8
 8002dda:	6823      	ldr	r3, [r4, #0]
 8002ddc:	0080      	lsls	r0, r0, #2
 8002dde:	1d99      	adds	r1, r3, #6
 8002de0:	8fca      	ldrh	r2, [r1, #62]	@ 0x3e
 8002de2:	43aa      	bics	r2, r5
 8002de4:	87ca      	strh	r2, [r1, #62]	@ 0x3e
 8002de6:	5c22      	ldrb	r2, [r4, r0]
 8002de8:	2a00      	cmp	r2, #0
 8002dea:	d1ed      	bne.n	8002dc8 <HAL_PCD_IRQHandler+0x918>
 8002dec:	1c99      	adds	r1, r3, #2
 8002dee:	8fcd      	ldrh	r5, [r1, #62]	@ 0x3e
 8002df0:	3204      	adds	r2, #4
 8002df2:	432a      	orrs	r2, r5
 8002df4:	87ca      	strh	r2, [r1, #62]	@ 0x3e
 8002df6:	2208      	movs	r2, #8
 8002df8:	8fcd      	ldrh	r5, [r1, #62]	@ 0x3e
 8002dfa:	3354      	adds	r3, #84	@ 0x54
 8002dfc:	432a      	orrs	r2, r5
 8002dfe:	87ca      	strh	r2, [r1, #62]	@ 0x3e
 8002e00:	2101      	movs	r1, #1
 8002e02:	223c      	movs	r2, #60	@ 0x3c
 8002e04:	5421      	strb	r1, [r4, r0]
 8002e06:	881b      	ldrh	r3, [r3, #0]
 8002e08:	0020      	movs	r0, r4
 8002e0a:	089b      	lsrs	r3, r3, #2
 8002e0c:	4013      	ands	r3, r2
 8002e0e:	22b9      	movs	r2, #185	@ 0xb9
 8002e10:	0092      	lsls	r2, r2, #2
 8002e12:	50a3      	str	r3, [r4, r2]
 8002e14:	f000 f954 	bl	80030c0 <HAL_PCDEx_LPM_Callback>
 8002e18:	f7ff fb5e 	bl	80024d8 <HAL_PCD_IRQHandler+0x28>
 8002e1c:	0583      	lsls	r3, r0, #22
 8002e1e:	d50a      	bpl.n	8002e36 <HAL_PCD_IRQHandler+0x986>
 8002e20:	6823      	ldr	r3, [r4, #0]
 8002e22:	4914      	ldr	r1, [pc, #80]	@ (8002e74 <HAL_PCD_IRQHandler+0x9c4>)
 8002e24:	3306      	adds	r3, #6
 8002e26:	8fda      	ldrh	r2, [r3, #62]	@ 0x3e
 8002e28:	0020      	movs	r0, r4
 8002e2a:	400a      	ands	r2, r1
 8002e2c:	87da      	strh	r2, [r3, #62]	@ 0x3e
 8002e2e:	f002 ff9e 	bl	8005d6e <HAL_PCD_SOFCallback>
 8002e32:	f7ff fb51 	bl	80024d8 <HAL_PCD_IRQHandler+0x28>
 8002e36:	05c0      	lsls	r0, r0, #23
 8002e38:	d401      	bmi.n	8002e3e <HAL_PCD_IRQHandler+0x98e>
 8002e3a:	f7ff fb4d 	bl	80024d8 <HAL_PCD_IRQHandler+0x28>
 8002e3e:	6823      	ldr	r3, [r4, #0]
 8002e40:	490d      	ldr	r1, [pc, #52]	@ (8002e78 <HAL_PCD_IRQHandler+0x9c8>)
 8002e42:	3306      	adds	r3, #6
 8002e44:	8fda      	ldrh	r2, [r3, #62]	@ 0x3e
 8002e46:	e782      	b.n	8002d4e <HAL_PCD_IRQHandler+0x89e>
 8002e48:	00000406 	.word	0x00000406
 8002e4c:	00000402 	.word	0x00000402
 8002e50:	ffff8000 	.word	0xffff8000
 8002e54:	ffff8fbf 	.word	0xffff8fbf
 8002e58:	ffff8f8f 	.word	0xffff8f8f
 8002e5c:	0000c080 	.word	0x0000c080
 8002e60:	fffffbff 	.word	0xfffffbff
 8002e64:	ffffbfff 	.word	0xffffbfff
 8002e68:	ffffdfff 	.word	0xffffdfff
 8002e6c:	ffffefff 	.word	0xffffefff
 8002e70:	fffff7ff 	.word	0xfffff7ff
 8002e74:	fffffdff 	.word	0xfffffdff
 8002e78:	fffffeff 	.word	0xfffffeff

08002e7c <HAL_PCD_EP_Open>:
 8002e7c:	b570      	push	{r4, r5, r6, lr}
 8002e7e:	0005      	movs	r5, r0
 8002e80:	2007      	movs	r0, #7
 8002e82:	4008      	ands	r0, r1
 8002e84:	b249      	sxtb	r1, r1
 8002e86:	2428      	movs	r4, #40	@ 0x28
 8002e88:	2900      	cmp	r1, #0
 8002e8a:	da19      	bge.n	8002ec0 <HAL_PCD_EP_Open+0x44>
 8002e8c:	1c41      	adds	r1, r0, #1
 8002e8e:	4361      	muls	r1, r4
 8002e90:	3c27      	subs	r4, #39	@ 0x27
 8002e92:	1869      	adds	r1, r5, r1
 8002e94:	704c      	strb	r4, [r1, #1]
 8002e96:	7008      	strb	r0, [r1, #0]
 8002e98:	610a      	str	r2, [r1, #16]
 8002e9a:	70cb      	strb	r3, [r1, #3]
 8002e9c:	2b02      	cmp	r3, #2
 8002e9e:	d101      	bne.n	8002ea4 <HAL_PCD_EP_Open+0x28>
 8002ea0:	2300      	movs	r3, #0
 8002ea2:	710b      	strb	r3, [r1, #4]
 8002ea4:	24aa      	movs	r4, #170	@ 0xaa
 8002ea6:	00a4      	lsls	r4, r4, #2
 8002ea8:	5d2b      	ldrb	r3, [r5, r4]
 8002eaa:	2002      	movs	r0, #2
 8002eac:	2b01      	cmp	r3, #1
 8002eae:	d006      	beq.n	8002ebe <HAL_PCD_EP_Open+0x42>
 8002eb0:	2301      	movs	r3, #1
 8002eb2:	552b      	strb	r3, [r5, r4]
 8002eb4:	6828      	ldr	r0, [r5, #0]
 8002eb6:	f001 fae7 	bl	8004488 <USB_ActivateEndpoint>
 8002eba:	2000      	movs	r0, #0
 8002ebc:	5528      	strb	r0, [r5, r4]
 8002ebe:	bd70      	pop	{r4, r5, r6, pc}
 8002ec0:	4344      	muls	r4, r0
 8002ec2:	0021      	movs	r1, r4
 8002ec4:	2600      	movs	r6, #0
 8002ec6:	192c      	adds	r4, r5, r4
 8002ec8:	3169      	adds	r1, #105	@ 0x69
 8002eca:	346a      	adds	r4, #106	@ 0x6a
 8002ecc:	31ff      	adds	r1, #255	@ 0xff
 8002ece:	34ff      	adds	r4, #255	@ 0xff
 8002ed0:	1869      	adds	r1, r5, r1
 8002ed2:	7026      	strb	r6, [r4, #0]
 8002ed4:	e7df      	b.n	8002e96 <HAL_PCD_EP_Open+0x1a>

08002ed6 <HAL_PCD_EP_Close>:
 8002ed6:	2207      	movs	r2, #7
 8002ed8:	400a      	ands	r2, r1
 8002eda:	b249      	sxtb	r1, r1
 8002edc:	b570      	push	{r4, r5, r6, lr}
 8002ede:	2328      	movs	r3, #40	@ 0x28
 8002ee0:	0004      	movs	r4, r0
 8002ee2:	2900      	cmp	r1, #0
 8002ee4:	da13      	bge.n	8002f0e <HAL_PCD_EP_Close+0x38>
 8002ee6:	1c51      	adds	r1, r2, #1
 8002ee8:	4359      	muls	r1, r3
 8002eea:	3b27      	subs	r3, #39	@ 0x27
 8002eec:	1841      	adds	r1, r0, r1
 8002eee:	704b      	strb	r3, [r1, #1]
 8002ef0:	25aa      	movs	r5, #170	@ 0xaa
 8002ef2:	700a      	strb	r2, [r1, #0]
 8002ef4:	00ad      	lsls	r5, r5, #2
 8002ef6:	5d63      	ldrb	r3, [r4, r5]
 8002ef8:	2002      	movs	r0, #2
 8002efa:	2b01      	cmp	r3, #1
 8002efc:	d006      	beq.n	8002f0c <HAL_PCD_EP_Close+0x36>
 8002efe:	2301      	movs	r3, #1
 8002f00:	5563      	strb	r3, [r4, r5]
 8002f02:	6820      	ldr	r0, [r4, #0]
 8002f04:	f001 fbce 	bl	80046a4 <USB_DeactivateEndpoint>
 8002f08:	2000      	movs	r0, #0
 8002f0a:	5560      	strb	r0, [r4, r5]
 8002f0c:	bd70      	pop	{r4, r5, r6, pc}
 8002f0e:	4353      	muls	r3, r2
 8002f10:	0019      	movs	r1, r3
 8002f12:	3169      	adds	r1, #105	@ 0x69
 8002f14:	31ff      	adds	r1, #255	@ 0xff
 8002f16:	18c3      	adds	r3, r0, r3
 8002f18:	1841      	adds	r1, r0, r1
 8002f1a:	2000      	movs	r0, #0
 8002f1c:	336a      	adds	r3, #106	@ 0x6a
 8002f1e:	33ff      	adds	r3, #255	@ 0xff
 8002f20:	7018      	strb	r0, [r3, #0]
 8002f22:	e7e5      	b.n	8002ef0 <HAL_PCD_EP_Close+0x1a>

08002f24 <HAL_PCD_EP_Receive>:
 8002f24:	b570      	push	{r4, r5, r6, lr}
 8002f26:	2407      	movs	r4, #7
 8002f28:	4021      	ands	r1, r4
 8002f2a:	3421      	adds	r4, #33	@ 0x21
 8002f2c:	434c      	muls	r4, r1
 8002f2e:	1905      	adds	r5, r0, r4
 8002f30:	002e      	movs	r6, r5
 8002f32:	367d      	adds	r6, #125	@ 0x7d
 8002f34:	36ff      	adds	r6, #255	@ 0xff
 8002f36:	6032      	str	r2, [r6, #0]
 8002f38:	002a      	movs	r2, r5
 8002f3a:	3281      	adds	r2, #129	@ 0x81
 8002f3c:	32ff      	adds	r2, #255	@ 0xff
 8002f3e:	6013      	str	r3, [r2, #0]
 8002f40:	002b      	movs	r3, r5
 8002f42:	2600      	movs	r6, #0
 8002f44:	3385      	adds	r3, #133	@ 0x85
 8002f46:	33ff      	adds	r3, #255	@ 0xff
 8002f48:	3569      	adds	r5, #105	@ 0x69
 8002f4a:	3469      	adds	r4, #105	@ 0x69
 8002f4c:	601e      	str	r6, [r3, #0]
 8002f4e:	35ff      	adds	r5, #255	@ 0xff
 8002f50:	3b1b      	subs	r3, #27
 8002f52:	34ff      	adds	r4, #255	@ 0xff
 8002f54:	701e      	strb	r6, [r3, #0]
 8002f56:	7029      	strb	r1, [r5, #0]
 8002f58:	1901      	adds	r1, r0, r4
 8002f5a:	6800      	ldr	r0, [r0, #0]
 8002f5c:	f001 fca0 	bl	80048a0 <USB_EPStartXfer>
 8002f60:	0030      	movs	r0, r6
 8002f62:	bd70      	pop	{r4, r5, r6, pc}

08002f64 <HAL_PCD_EP_GetRxCount>:
 8002f64:	2307      	movs	r3, #7
 8002f66:	400b      	ands	r3, r1
 8002f68:	2128      	movs	r1, #40	@ 0x28
 8002f6a:	4359      	muls	r1, r3
 8002f6c:	1840      	adds	r0, r0, r1
 8002f6e:	3085      	adds	r0, #133	@ 0x85
 8002f70:	30ff      	adds	r0, #255	@ 0xff
 8002f72:	6800      	ldr	r0, [r0, #0]
 8002f74:	4770      	bx	lr

08002f76 <HAL_PCD_EP_Transmit>:
 8002f76:	b570      	push	{r4, r5, r6, lr}
 8002f78:	2628      	movs	r6, #40	@ 0x28
 8002f7a:	2407      	movs	r4, #7
 8002f7c:	4021      	ands	r1, r4
 8002f7e:	0034      	movs	r4, r6
 8002f80:	434c      	muls	r4, r1
 8002f82:	1904      	adds	r4, r0, r4
 8002f84:	0025      	movs	r5, r4
 8002f86:	63e2      	str	r2, [r4, #60]	@ 0x3c
 8002f88:	2201      	movs	r2, #1
 8002f8a:	354c      	adds	r5, #76	@ 0x4c
 8002f8c:	6423      	str	r3, [r4, #64]	@ 0x40
 8002f8e:	702a      	strb	r2, [r5, #0]
 8002f90:	64a3      	str	r3, [r4, #72]	@ 0x48
 8002f92:	0023      	movs	r3, r4
 8002f94:	2500      	movs	r5, #0
 8002f96:	3329      	adds	r3, #41	@ 0x29
 8002f98:	6465      	str	r5, [r4, #68]	@ 0x44
 8002f9a:	701a      	strb	r2, [r3, #0]
 8002f9c:	188b      	adds	r3, r1, r2
 8002f9e:	4373      	muls	r3, r6
 8002fa0:	19a4      	adds	r4, r4, r6
 8002fa2:	7021      	strb	r1, [r4, #0]
 8002fa4:	18c1      	adds	r1, r0, r3
 8002fa6:	6800      	ldr	r0, [r0, #0]
 8002fa8:	f001 fc7a 	bl	80048a0 <USB_EPStartXfer>
 8002fac:	0028      	movs	r0, r5
 8002fae:	bd70      	pop	{r4, r5, r6, pc}

08002fb0 <HAL_PCD_EP_SetStall>:
 8002fb0:	2207      	movs	r2, #7
 8002fb2:	6843      	ldr	r3, [r0, #4]
 8002fb4:	b570      	push	{r4, r5, r6, lr}
 8002fb6:	400a      	ands	r2, r1
 8002fb8:	0004      	movs	r4, r0
 8002fba:	2001      	movs	r0, #1
 8002fbc:	429a      	cmp	r2, r3
 8002fbe:	d817      	bhi.n	8002ff0 <HAL_PCD_EP_SetStall+0x40>
 8002fc0:	b248      	sxtb	r0, r1
 8002fc2:	2328      	movs	r3, #40	@ 0x28
 8002fc4:	2800      	cmp	r0, #0
 8002fc6:	da14      	bge.n	8002ff2 <HAL_PCD_EP_SetStall+0x42>
 8002fc8:	1c51      	adds	r1, r2, #1
 8002fca:	4359      	muls	r1, r3
 8002fcc:	3b27      	subs	r3, #39	@ 0x27
 8002fce:	1861      	adds	r1, r4, r1
 8002fd0:	704b      	strb	r3, [r1, #1]
 8002fd2:	2301      	movs	r3, #1
 8002fd4:	25aa      	movs	r5, #170	@ 0xaa
 8002fd6:	708b      	strb	r3, [r1, #2]
 8002fd8:	700a      	strb	r2, [r1, #0]
 8002fda:	00ad      	lsls	r5, r5, #2
 8002fdc:	5d62      	ldrb	r2, [r4, r5]
 8002fde:	2002      	movs	r0, #2
 8002fe0:	429a      	cmp	r2, r3
 8002fe2:	d005      	beq.n	8002ff0 <HAL_PCD_EP_SetStall+0x40>
 8002fe4:	5563      	strb	r3, [r4, r5]
 8002fe6:	6820      	ldr	r0, [r4, #0]
 8002fe8:	f001 fbd6 	bl	8004798 <USB_EPSetStall>
 8002fec:	2000      	movs	r0, #0
 8002fee:	5560      	strb	r0, [r4, r5]
 8002ff0:	bd70      	pop	{r4, r5, r6, pc}
 8002ff2:	434b      	muls	r3, r1
 8002ff4:	0019      	movs	r1, r3
 8002ff6:	2000      	movs	r0, #0
 8002ff8:	18e3      	adds	r3, r4, r3
 8002ffa:	3169      	adds	r1, #105	@ 0x69
 8002ffc:	336a      	adds	r3, #106	@ 0x6a
 8002ffe:	31ff      	adds	r1, #255	@ 0xff
 8003000:	33ff      	adds	r3, #255	@ 0xff
 8003002:	1861      	adds	r1, r4, r1
 8003004:	7018      	strb	r0, [r3, #0]
 8003006:	e7e4      	b.n	8002fd2 <HAL_PCD_EP_SetStall+0x22>

08003008 <HAL_PCD_EP_ClrStall>:
 8003008:	230f      	movs	r3, #15
 800300a:	6842      	ldr	r2, [r0, #4]
 800300c:	b570      	push	{r4, r5, r6, lr}
 800300e:	400b      	ands	r3, r1
 8003010:	0004      	movs	r4, r0
 8003012:	2001      	movs	r0, #1
 8003014:	4293      	cmp	r3, r2
 8003016:	d819      	bhi.n	800304c <HAL_PCD_EP_ClrStall+0x44>
 8003018:	2207      	movs	r2, #7
 800301a:	400a      	ands	r2, r1
 800301c:	b249      	sxtb	r1, r1
 800301e:	2328      	movs	r3, #40	@ 0x28
 8003020:	2900      	cmp	r1, #0
 8003022:	da14      	bge.n	800304e <HAL_PCD_EP_ClrStall+0x46>
 8003024:	1811      	adds	r1, r2, r0
 8003026:	4359      	muls	r1, r3
 8003028:	1861      	adds	r1, r4, r1
 800302a:	7048      	strb	r0, [r1, #1]
 800302c:	2500      	movs	r5, #0
 800302e:	26aa      	movs	r6, #170	@ 0xaa
 8003030:	708d      	strb	r5, [r1, #2]
 8003032:	700a      	strb	r2, [r1, #0]
 8003034:	00b6      	lsls	r6, r6, #2
 8003036:	5da3      	ldrb	r3, [r4, r6]
 8003038:	2002      	movs	r0, #2
 800303a:	2b01      	cmp	r3, #1
 800303c:	d006      	beq.n	800304c <HAL_PCD_EP_ClrStall+0x44>
 800303e:	2301      	movs	r3, #1
 8003040:	55a3      	strb	r3, [r4, r6]
 8003042:	6820      	ldr	r0, [r4, #0]
 8003044:	f001 fbca 	bl	80047dc <USB_EPClearStall>
 8003048:	0028      	movs	r0, r5
 800304a:	55a5      	strb	r5, [r4, r6]
 800304c:	bd70      	pop	{r4, r5, r6, pc}
 800304e:	4353      	muls	r3, r2
 8003050:	0019      	movs	r1, r3
 8003052:	2000      	movs	r0, #0
 8003054:	18e3      	adds	r3, r4, r3
 8003056:	3169      	adds	r1, #105	@ 0x69
 8003058:	336a      	adds	r3, #106	@ 0x6a
 800305a:	31ff      	adds	r1, #255	@ 0xff
 800305c:	33ff      	adds	r3, #255	@ 0xff
 800305e:	1861      	adds	r1, r4, r1
 8003060:	7018      	strb	r0, [r3, #0]
 8003062:	e7e3      	b.n	800302c <HAL_PCD_EP_ClrStall+0x24>

08003064 <HAL_PCDEx_PMAConfig>:
 8003064:	b510      	push	{r4, lr}
 8003066:	000c      	movs	r4, r1
 8003068:	0621      	lsls	r1, r4, #24
 800306a:	d50c      	bpl.n	8003086 <HAL_PCDEx_PMAConfig+0x22>
 800306c:	2107      	movs	r1, #7
 800306e:	4021      	ands	r1, r4
 8003070:	2428      	movs	r4, #40	@ 0x28
 8003072:	3101      	adds	r1, #1
 8003074:	4361      	muls	r1, r4
 8003076:	1840      	adds	r0, r0, r1
 8003078:	b299      	uxth	r1, r3
 800307a:	2a00      	cmp	r2, #0
 800307c:	d108      	bne.n	8003090 <HAL_PCDEx_PMAConfig+0x2c>
 800307e:	7302      	strb	r2, [r0, #12]
 8003080:	80c1      	strh	r1, [r0, #6]
 8003082:	2000      	movs	r0, #0
 8003084:	bd10      	pop	{r4, pc}
 8003086:	2128      	movs	r1, #40	@ 0x28
 8003088:	4361      	muls	r1, r4
 800308a:	3169      	adds	r1, #105	@ 0x69
 800308c:	31ff      	adds	r1, #255	@ 0xff
 800308e:	e7f2      	b.n	8003076 <HAL_PCDEx_PMAConfig+0x12>
 8003090:	2201      	movs	r2, #1
 8003092:	6083      	str	r3, [r0, #8]
 8003094:	7302      	strb	r2, [r0, #12]
 8003096:	e7f4      	b.n	8003082 <HAL_PCDEx_PMAConfig+0x1e>

08003098 <HAL_PCDEx_ActivateLPM>:
 8003098:	6803      	ldr	r3, [r0, #0]
 800309a:	0002      	movs	r2, r0
 800309c:	20ba      	movs	r0, #186	@ 0xba
 800309e:	2101      	movs	r1, #1
 80030a0:	b510      	push	{r4, lr}
 80030a2:	0080      	lsls	r0, r0, #2
 80030a4:	24b8      	movs	r4, #184	@ 0xb8
 80030a6:	5011      	str	r1, [r2, r0]
 80030a8:	2000      	movs	r0, #0
 80030aa:	00a4      	lsls	r4, r4, #2
 80030ac:	5510      	strb	r0, [r2, r4]
 80030ae:	3354      	adds	r3, #84	@ 0x54
 80030b0:	881a      	ldrh	r2, [r3, #0]
 80030b2:	4311      	orrs	r1, r2
 80030b4:	2202      	movs	r2, #2
 80030b6:	8019      	strh	r1, [r3, #0]
 80030b8:	8819      	ldrh	r1, [r3, #0]
 80030ba:	430a      	orrs	r2, r1
 80030bc:	801a      	strh	r2, [r3, #0]
 80030be:	bd10      	pop	{r4, pc}

080030c0 <HAL_PCDEx_LPM_Callback>:
 80030c0:	4770      	bx	lr
	...

080030c4 <HAL_RCC_OscConfig>:
 80030c4:	b5f0      	push	{r4, r5, r6, r7, lr}
 80030c6:	0004      	movs	r4, r0
 80030c8:	b085      	sub	sp, #20
 80030ca:	2800      	cmp	r0, #0
 80030cc:	d102      	bne.n	80030d4 <HAL_RCC_OscConfig+0x10>
 80030ce:	2001      	movs	r0, #1
 80030d0:	b005      	add	sp, #20
 80030d2:	bdf0      	pop	{r4, r5, r6, r7, pc}
 80030d4:	6803      	ldr	r3, [r0, #0]
 80030d6:	07db      	lsls	r3, r3, #31
 80030d8:	d433      	bmi.n	8003142 <HAL_RCC_OscConfig+0x7e>
 80030da:	6823      	ldr	r3, [r4, #0]
 80030dc:	079b      	lsls	r3, r3, #30
 80030de:	d500      	bpl.n	80030e2 <HAL_RCC_OscConfig+0x1e>
 80030e0:	e087      	b.n	80031f2 <HAL_RCC_OscConfig+0x12e>
 80030e2:	6823      	ldr	r3, [r4, #0]
 80030e4:	071b      	lsls	r3, r3, #28
 80030e6:	d500      	bpl.n	80030ea <HAL_RCC_OscConfig+0x26>
 80030e8:	e0c8      	b.n	800327c <HAL_RCC_OscConfig+0x1b8>
 80030ea:	6823      	ldr	r3, [r4, #0]
 80030ec:	075b      	lsls	r3, r3, #29
 80030ee:	d500      	bpl.n	80030f2 <HAL_RCC_OscConfig+0x2e>
 80030f0:	e0eb      	b.n	80032ca <HAL_RCC_OscConfig+0x206>
 80030f2:	6823      	ldr	r3, [r4, #0]
 80030f4:	06db      	lsls	r3, r3, #27
 80030f6:	d51a      	bpl.n	800312e <HAL_RCC_OscConfig+0x6a>
 80030f8:	6962      	ldr	r2, [r4, #20]
 80030fa:	2304      	movs	r3, #4
 80030fc:	4db9      	ldr	r5, [pc, #740]	@ (80033e4 <HAL_RCC_OscConfig+0x320>)
 80030fe:	2a01      	cmp	r2, #1
 8003100:	d000      	beq.n	8003104 <HAL_RCC_OscConfig+0x40>
 8003102:	e154      	b.n	80033ae <HAL_RCC_OscConfig+0x2ea>
 8003104:	6b69      	ldr	r1, [r5, #52]	@ 0x34
 8003106:	2702      	movs	r7, #2
 8003108:	430b      	orrs	r3, r1
 800310a:	636b      	str	r3, [r5, #52]	@ 0x34
 800310c:	6b6b      	ldr	r3, [r5, #52]	@ 0x34
 800310e:	431a      	orrs	r2, r3
 8003110:	636a      	str	r2, [r5, #52]	@ 0x34
 8003112:	f7fe fe93 	bl	8001e3c <HAL_GetTick>
 8003116:	0006      	movs	r6, r0
 8003118:	6b6b      	ldr	r3, [r5, #52]	@ 0x34
 800311a:	423b      	tst	r3, r7
 800311c:	d100      	bne.n	8003120 <HAL_RCC_OscConfig+0x5c>
 800311e:	e13f      	b.n	80033a0 <HAL_RCC_OscConfig+0x2dc>
 8003120:	21f8      	movs	r1, #248	@ 0xf8
 8003122:	6b6a      	ldr	r2, [r5, #52]	@ 0x34
 8003124:	69a3      	ldr	r3, [r4, #24]
 8003126:	438a      	bics	r2, r1
 8003128:	00db      	lsls	r3, r3, #3
 800312a:	4313      	orrs	r3, r2
 800312c:	636b      	str	r3, [r5, #52]	@ 0x34
 800312e:	6823      	ldr	r3, [r4, #0]
 8003130:	069b      	lsls	r3, r3, #26
 8003132:	d500      	bpl.n	8003136 <HAL_RCC_OscConfig+0x72>
 8003134:	e162      	b.n	80033fc <HAL_RCC_OscConfig+0x338>
 8003136:	6a63      	ldr	r3, [r4, #36]	@ 0x24
 8003138:	2b00      	cmp	r3, #0
 800313a:	d000      	beq.n	800313e <HAL_RCC_OscConfig+0x7a>
 800313c:	e1a1      	b.n	8003482 <HAL_RCC_OscConfig+0x3be>
 800313e:	2000      	movs	r0, #0
 8003140:	e7c6      	b.n	80030d0 <HAL_RCC_OscConfig+0xc>
 8003142:	220c      	movs	r2, #12
 8003144:	4da7      	ldr	r5, [pc, #668]	@ (80033e4 <HAL_RCC_OscConfig+0x320>)
 8003146:	686b      	ldr	r3, [r5, #4]
 8003148:	4013      	ands	r3, r2
 800314a:	2b04      	cmp	r3, #4
 800314c:	d00b      	beq.n	8003166 <HAL_RCC_OscConfig+0xa2>
 800314e:	686b      	ldr	r3, [r5, #4]
 8003150:	4013      	ands	r3, r2
 8003152:	2b08      	cmp	r3, #8
 8003154:	d10e      	bne.n	8003174 <HAL_RCC_OscConfig+0xb0>
 8003156:	22c0      	movs	r2, #192	@ 0xc0
 8003158:	686b      	ldr	r3, [r5, #4]
 800315a:	0252      	lsls	r2, r2, #9
 800315c:	4013      	ands	r3, r2
 800315e:	2280      	movs	r2, #128	@ 0x80
 8003160:	0252      	lsls	r2, r2, #9
 8003162:	4293      	cmp	r3, r2
 8003164:	d106      	bne.n	8003174 <HAL_RCC_OscConfig+0xb0>
 8003166:	682b      	ldr	r3, [r5, #0]
 8003168:	039b      	lsls	r3, r3, #14
 800316a:	d5b6      	bpl.n	80030da <HAL_RCC_OscConfig+0x16>
 800316c:	6863      	ldr	r3, [r4, #4]
 800316e:	2b00      	cmp	r3, #0
 8003170:	d1b3      	bne.n	80030da <HAL_RCC_OscConfig+0x16>
 8003172:	e7ac      	b.n	80030ce <HAL_RCC_OscConfig+0xa>
 8003174:	6863      	ldr	r3, [r4, #4]
 8003176:	2b01      	cmp	r3, #1
 8003178:	d113      	bne.n	80031a2 <HAL_RCC_OscConfig+0xde>
 800317a:	2380      	movs	r3, #128	@ 0x80
 800317c:	682a      	ldr	r2, [r5, #0]
 800317e:	025b      	lsls	r3, r3, #9
 8003180:	4313      	orrs	r3, r2
 8003182:	602b      	str	r3, [r5, #0]
 8003184:	f7fe fe5a 	bl	8001e3c <HAL_GetTick>
 8003188:	2780      	movs	r7, #128	@ 0x80
 800318a:	0006      	movs	r6, r0
 800318c:	02bf      	lsls	r7, r7, #10
 800318e:	682b      	ldr	r3, [r5, #0]
 8003190:	423b      	tst	r3, r7
 8003192:	d1a2      	bne.n	80030da <HAL_RCC_OscConfig+0x16>
 8003194:	f7fe fe52 	bl	8001e3c <HAL_GetTick>
 8003198:	1b80      	subs	r0, r0, r6
 800319a:	2864      	cmp	r0, #100	@ 0x64
 800319c:	d9f7      	bls.n	800318e <HAL_RCC_OscConfig+0xca>
 800319e:	2003      	movs	r0, #3
 80031a0:	e796      	b.n	80030d0 <HAL_RCC_OscConfig+0xc>
 80031a2:	2b00      	cmp	r3, #0
 80031a4:	d115      	bne.n	80031d2 <HAL_RCC_OscConfig+0x10e>
 80031a6:	682b      	ldr	r3, [r5, #0]
 80031a8:	4a8f      	ldr	r2, [pc, #572]	@ (80033e8 <HAL_RCC_OscConfig+0x324>)
 80031aa:	2780      	movs	r7, #128	@ 0x80
 80031ac:	4013      	ands	r3, r2
 80031ae:	602b      	str	r3, [r5, #0]
 80031b0:	682b      	ldr	r3, [r5, #0]
 80031b2:	4a8e      	ldr	r2, [pc, #568]	@ (80033ec <HAL_RCC_OscConfig+0x328>)
 80031b4:	02bf      	lsls	r7, r7, #10
 80031b6:	4013      	ands	r3, r2
 80031b8:	602b      	str	r3, [r5, #0]
 80031ba:	f7fe fe3f 	bl	8001e3c <HAL_GetTick>
 80031be:	0006      	movs	r6, r0
 80031c0:	682b      	ldr	r3, [r5, #0]
 80031c2:	423b      	tst	r3, r7
 80031c4:	d089      	beq.n	80030da <HAL_RCC_OscConfig+0x16>
 80031c6:	f7fe fe39 	bl	8001e3c <HAL_GetTick>
 80031ca:	1b80      	subs	r0, r0, r6
 80031cc:	2864      	cmp	r0, #100	@ 0x64
 80031ce:	d9f7      	bls.n	80031c0 <HAL_RCC_OscConfig+0xfc>
 80031d0:	e7e5      	b.n	800319e <HAL_RCC_OscConfig+0xda>
 80031d2:	2b05      	cmp	r3, #5
 80031d4:	d105      	bne.n	80031e2 <HAL_RCC_OscConfig+0x11e>
 80031d6:	2380      	movs	r3, #128	@ 0x80
 80031d8:	682a      	ldr	r2, [r5, #0]
 80031da:	02db      	lsls	r3, r3, #11
 80031dc:	4313      	orrs	r3, r2
 80031de:	602b      	str	r3, [r5, #0]
 80031e0:	e7cb      	b.n	800317a <HAL_RCC_OscConfig+0xb6>
 80031e2:	682b      	ldr	r3, [r5, #0]
 80031e4:	4a80      	ldr	r2, [pc, #512]	@ (80033e8 <HAL_RCC_OscConfig+0x324>)
 80031e6:	4013      	ands	r3, r2
 80031e8:	602b      	str	r3, [r5, #0]
 80031ea:	682b      	ldr	r3, [r5, #0]
 80031ec:	4a7f      	ldr	r2, [pc, #508]	@ (80033ec <HAL_RCC_OscConfig+0x328>)
 80031ee:	4013      	ands	r3, r2
 80031f0:	e7c7      	b.n	8003182 <HAL_RCC_OscConfig+0xbe>
 80031f2:	220c      	movs	r2, #12
 80031f4:	4d7b      	ldr	r5, [pc, #492]	@ (80033e4 <HAL_RCC_OscConfig+0x320>)
 80031f6:	686b      	ldr	r3, [r5, #4]
 80031f8:	4213      	tst	r3, r2
 80031fa:	d00b      	beq.n	8003214 <HAL_RCC_OscConfig+0x150>
 80031fc:	686b      	ldr	r3, [r5, #4]
 80031fe:	4013      	ands	r3, r2
 8003200:	2b08      	cmp	r3, #8
 8003202:	d116      	bne.n	8003232 <HAL_RCC_OscConfig+0x16e>
 8003204:	22c0      	movs	r2, #192	@ 0xc0
 8003206:	686b      	ldr	r3, [r5, #4]
 8003208:	0252      	lsls	r2, r2, #9
 800320a:	4013      	ands	r3, r2
 800320c:	2280      	movs	r2, #128	@ 0x80
 800320e:	0212      	lsls	r2, r2, #8
 8003210:	4293      	cmp	r3, r2
 8003212:	d10e      	bne.n	8003232 <HAL_RCC_OscConfig+0x16e>
 8003214:	682b      	ldr	r3, [r5, #0]
 8003216:	079b      	lsls	r3, r3, #30
 8003218:	d503      	bpl.n	8003222 <HAL_RCC_OscConfig+0x15e>
 800321a:	68e3      	ldr	r3, [r4, #12]
 800321c:	2b01      	cmp	r3, #1
 800321e:	d000      	beq.n	8003222 <HAL_RCC_OscConfig+0x15e>
 8003220:	e755      	b.n	80030ce <HAL_RCC_OscConfig+0xa>
 8003222:	21f8      	movs	r1, #248	@ 0xf8
 8003224:	682a      	ldr	r2, [r5, #0]
 8003226:	6923      	ldr	r3, [r4, #16]
 8003228:	438a      	bics	r2, r1
 800322a:	00db      	lsls	r3, r3, #3
 800322c:	4313      	orrs	r3, r2
 800322e:	602b      	str	r3, [r5, #0]
 8003230:	e757      	b.n	80030e2 <HAL_RCC_OscConfig+0x1e>
 8003232:	68e2      	ldr	r2, [r4, #12]
 8003234:	2301      	movs	r3, #1
 8003236:	2a00      	cmp	r2, #0
 8003238:	d00f      	beq.n	800325a <HAL_RCC_OscConfig+0x196>
 800323a:	682a      	ldr	r2, [r5, #0]
 800323c:	2702      	movs	r7, #2
 800323e:	4313      	orrs	r3, r2
 8003240:	602b      	str	r3, [r5, #0]
 8003242:	f7fe fdfb 	bl	8001e3c <HAL_GetTick>
 8003246:	0006      	movs	r6, r0
 8003248:	682b      	ldr	r3, [r5, #0]
 800324a:	423b      	tst	r3, r7
 800324c:	d1e9      	bne.n	8003222 <HAL_RCC_OscConfig+0x15e>
 800324e:	f7fe fdf5 	bl	8001e3c <HAL_GetTick>
 8003252:	1b80      	subs	r0, r0, r6
 8003254:	2802      	cmp	r0, #2
 8003256:	d9f7      	bls.n	8003248 <HAL_RCC_OscConfig+0x184>
 8003258:	e7a1      	b.n	800319e <HAL_RCC_OscConfig+0xda>
 800325a:	682a      	ldr	r2, [r5, #0]
 800325c:	2702      	movs	r7, #2
 800325e:	439a      	bics	r2, r3
 8003260:	602a      	str	r2, [r5, #0]
 8003262:	f7fe fdeb 	bl	8001e3c <HAL_GetTick>
 8003266:	0006      	movs	r6, r0
 8003268:	682b      	ldr	r3, [r5, #0]
 800326a:	423b      	tst	r3, r7
 800326c:	d100      	bne.n	8003270 <HAL_RCC_OscConfig+0x1ac>
 800326e:	e738      	b.n	80030e2 <HAL_RCC_OscConfig+0x1e>
 8003270:	f7fe fde4 	bl	8001e3c <HAL_GetTick>
 8003274:	1b80      	subs	r0, r0, r6
 8003276:	2802      	cmp	r0, #2
 8003278:	d9f6      	bls.n	8003268 <HAL_RCC_OscConfig+0x1a4>
 800327a:	e790      	b.n	800319e <HAL_RCC_OscConfig+0xda>
 800327c:	69e2      	ldr	r2, [r4, #28]
 800327e:	2301      	movs	r3, #1
 8003280:	4d58      	ldr	r5, [pc, #352]	@ (80033e4 <HAL_RCC_OscConfig+0x320>)
 8003282:	2a00      	cmp	r2, #0
 8003284:	d010      	beq.n	80032a8 <HAL_RCC_OscConfig+0x1e4>
 8003286:	6a6a      	ldr	r2, [r5, #36]	@ 0x24
 8003288:	2702      	movs	r7, #2
 800328a:	4313      	orrs	r3, r2
 800328c:	626b      	str	r3, [r5, #36]	@ 0x24
 800328e:	f7fe fdd5 	bl	8001e3c <HAL_GetTick>
 8003292:	0006      	movs	r6, r0
 8003294:	6a6b      	ldr	r3, [r5, #36]	@ 0x24
 8003296:	423b      	tst	r3, r7
 8003298:	d000      	beq.n	800329c <HAL_RCC_OscConfig+0x1d8>
 800329a:	e726      	b.n	80030ea <HAL_RCC_OscConfig+0x26>
 800329c:	f7fe fdce 	bl	8001e3c <HAL_GetTick>
 80032a0:	1b80      	subs	r0, r0, r6
 80032a2:	2802      	cmp	r0, #2
 80032a4:	d9f6      	bls.n	8003294 <HAL_RCC_OscConfig+0x1d0>
 80032a6:	e77a      	b.n	800319e <HAL_RCC_OscConfig+0xda>
 80032a8:	6a6a      	ldr	r2, [r5, #36]	@ 0x24
 80032aa:	2702      	movs	r7, #2
 80032ac:	439a      	bics	r2, r3
 80032ae:	626a      	str	r2, [r5, #36]	@ 0x24
 80032b0:	f7fe fdc4 	bl	8001e3c <HAL_GetTick>
 80032b4:	0006      	movs	r6, r0
 80032b6:	6a6b      	ldr	r3, [r5, #36]	@ 0x24
 80032b8:	423b      	tst	r3, r7
 80032ba:	d100      	bne.n	80032be <HAL_RCC_OscConfig+0x1fa>
 80032bc:	e715      	b.n	80030ea <HAL_RCC_OscConfig+0x26>
 80032be:	f7fe fdbd 	bl	8001e3c <HAL_GetTick>
 80032c2:	1b80      	subs	r0, r0, r6
 80032c4:	2802      	cmp	r0, #2
 80032c6:	d9f6      	bls.n	80032b6 <HAL_RCC_OscConfig+0x1f2>
 80032c8:	e769      	b.n	800319e <HAL_RCC_OscConfig+0xda>
 80032ca:	2280      	movs	r2, #128	@ 0x80
 80032cc:	2100      	movs	r1, #0
 80032ce:	4d45      	ldr	r5, [pc, #276]	@ (80033e4 <HAL_RCC_OscConfig+0x320>)
 80032d0:	0552      	lsls	r2, r2, #21
 80032d2:	69eb      	ldr	r3, [r5, #28]
 80032d4:	9100      	str	r1, [sp, #0]
 80032d6:	4213      	tst	r3, r2
 80032d8:	d108      	bne.n	80032ec <HAL_RCC_OscConfig+0x228>
 80032da:	69eb      	ldr	r3, [r5, #28]
 80032dc:	4313      	orrs	r3, r2
 80032de:	61eb      	str	r3, [r5, #28]
 80032e0:	69eb      	ldr	r3, [r5, #28]
 80032e2:	4013      	ands	r3, r2
 80032e4:	9303      	str	r3, [sp, #12]
 80032e6:	9b03      	ldr	r3, [sp, #12]
 80032e8:	2301      	movs	r3, #1
 80032ea:	9300      	str	r3, [sp, #0]
 80032ec:	2780      	movs	r7, #128	@ 0x80
 80032ee:	4e40      	ldr	r6, [pc, #256]	@ (80033f0 <HAL_RCC_OscConfig+0x32c>)
 80032f0:	007f      	lsls	r7, r7, #1
 80032f2:	6833      	ldr	r3, [r6, #0]
 80032f4:	423b      	tst	r3, r7
 80032f6:	d015      	beq.n	8003324 <HAL_RCC_OscConfig+0x260>
 80032f8:	68a3      	ldr	r3, [r4, #8]
 80032fa:	2b01      	cmp	r3, #1
 80032fc:	d122      	bne.n	8003344 <HAL_RCC_OscConfig+0x280>
 80032fe:	6a2a      	ldr	r2, [r5, #32]
 8003300:	4313      	orrs	r3, r2
 8003302:	622b      	str	r3, [r5, #32]
 8003304:	f7fe fd9a 	bl	8001e3c <HAL_GetTick>
 8003308:	2702      	movs	r7, #2
 800330a:	0006      	movs	r6, r0
 800330c:	6a2b      	ldr	r3, [r5, #32]
 800330e:	423b      	tst	r3, r7
 8003310:	d03f      	beq.n	8003392 <HAL_RCC_OscConfig+0x2ce>
 8003312:	9b00      	ldr	r3, [sp, #0]
 8003314:	2b01      	cmp	r3, #1
 8003316:	d000      	beq.n	800331a <HAL_RCC_OscConfig+0x256>
 8003318:	e6eb      	b.n	80030f2 <HAL_RCC_OscConfig+0x2e>
 800331a:	69eb      	ldr	r3, [r5, #28]
 800331c:	4a35      	ldr	r2, [pc, #212]	@ (80033f4 <HAL_RCC_OscConfig+0x330>)
 800331e:	4013      	ands	r3, r2
 8003320:	61eb      	str	r3, [r5, #28]
 8003322:	e6e6      	b.n	80030f2 <HAL_RCC_OscConfig+0x2e>
 8003324:	6833      	ldr	r3, [r6, #0]
 8003326:	433b      	orrs	r3, r7
 8003328:	6033      	str	r3, [r6, #0]
 800332a:	f7fe fd87 	bl	8001e3c <HAL_GetTick>
 800332e:	9001      	str	r0, [sp, #4]
 8003330:	6833      	ldr	r3, [r6, #0]
 8003332:	423b      	tst	r3, r7
 8003334:	d1e0      	bne.n	80032f8 <HAL_RCC_OscConfig+0x234>
 8003336:	f7fe fd81 	bl	8001e3c <HAL_GetTick>
 800333a:	9b01      	ldr	r3, [sp, #4]
 800333c:	1ac0      	subs	r0, r0, r3
 800333e:	2864      	cmp	r0, #100	@ 0x64
 8003340:	d9f6      	bls.n	8003330 <HAL_RCC_OscConfig+0x26c>
 8003342:	e72c      	b.n	800319e <HAL_RCC_OscConfig+0xda>
 8003344:	2201      	movs	r2, #1
 8003346:	2b00      	cmp	r3, #0
 8003348:	d114      	bne.n	8003374 <HAL_RCC_OscConfig+0x2b0>
 800334a:	6a2b      	ldr	r3, [r5, #32]
 800334c:	2702      	movs	r7, #2
 800334e:	4393      	bics	r3, r2
 8003350:	622b      	str	r3, [r5, #32]
 8003352:	6a2b      	ldr	r3, [r5, #32]
 8003354:	3203      	adds	r2, #3
 8003356:	4393      	bics	r3, r2
 8003358:	622b      	str	r3, [r5, #32]
 800335a:	f7fe fd6f 	bl	8001e3c <HAL_GetTick>
 800335e:	0006      	movs	r6, r0
 8003360:	6a2b      	ldr	r3, [r5, #32]
 8003362:	423b      	tst	r3, r7
 8003364:	d0d5      	beq.n	8003312 <HAL_RCC_OscConfig+0x24e>
 8003366:	f7fe fd69 	bl	8001e3c <HAL_GetTick>
 800336a:	4b23      	ldr	r3, [pc, #140]	@ (80033f8 <HAL_RCC_OscConfig+0x334>)
 800336c:	1b80      	subs	r0, r0, r6
 800336e:	4298      	cmp	r0, r3
 8003370:	d9f6      	bls.n	8003360 <HAL_RCC_OscConfig+0x29c>
 8003372:	e714      	b.n	800319e <HAL_RCC_OscConfig+0xda>
 8003374:	2b05      	cmp	r3, #5
 8003376:	d105      	bne.n	8003384 <HAL_RCC_OscConfig+0x2c0>
 8003378:	6a29      	ldr	r1, [r5, #32]
 800337a:	3b01      	subs	r3, #1
 800337c:	430b      	orrs	r3, r1
 800337e:	622b      	str	r3, [r5, #32]
 8003380:	6a2b      	ldr	r3, [r5, #32]
 8003382:	e7bd      	b.n	8003300 <HAL_RCC_OscConfig+0x23c>
 8003384:	6a2b      	ldr	r3, [r5, #32]
 8003386:	4393      	bics	r3, r2
 8003388:	2204      	movs	r2, #4
 800338a:	622b      	str	r3, [r5, #32]
 800338c:	6a2b      	ldr	r3, [r5, #32]
 800338e:	4393      	bics	r3, r2
 8003390:	e7b7      	b.n	8003302 <HAL_RCC_OscConfig+0x23e>
 8003392:	f7fe fd53 	bl	8001e3c <HAL_GetTick>
 8003396:	4b18      	ldr	r3, [pc, #96]	@ (80033f8 <HAL_RCC_OscConfig+0x334>)
 8003398:	1b80      	subs	r0, r0, r6
 800339a:	4298      	cmp	r0, r3
 800339c:	d9b6      	bls.n	800330c <HAL_RCC_OscConfig+0x248>
 800339e:	e6fe      	b.n	800319e <HAL_RCC_OscConfig+0xda>
 80033a0:	f7fe fd4c 	bl	8001e3c <HAL_GetTick>
 80033a4:	1b80      	subs	r0, r0, r6
 80033a6:	2802      	cmp	r0, #2
 80033a8:	d800      	bhi.n	80033ac <HAL_RCC_OscConfig+0x2e8>
 80033aa:	e6b5      	b.n	8003118 <HAL_RCC_OscConfig+0x54>
 80033ac:	e6f7      	b.n	800319e <HAL_RCC_OscConfig+0xda>
 80033ae:	3205      	adds	r2, #5
 80033b0:	d103      	bne.n	80033ba <HAL_RCC_OscConfig+0x2f6>
 80033b2:	6b6a      	ldr	r2, [r5, #52]	@ 0x34
 80033b4:	439a      	bics	r2, r3
 80033b6:	636a      	str	r2, [r5, #52]	@ 0x34
 80033b8:	e6b2      	b.n	8003120 <HAL_RCC_OscConfig+0x5c>
 80033ba:	6b6a      	ldr	r2, [r5, #52]	@ 0x34
 80033bc:	2702      	movs	r7, #2
 80033be:	4313      	orrs	r3, r2
 80033c0:	2201      	movs	r2, #1
 80033c2:	636b      	str	r3, [r5, #52]	@ 0x34
 80033c4:	6b6b      	ldr	r3, [r5, #52]	@ 0x34
 80033c6:	4393      	bics	r3, r2
 80033c8:	636b      	str	r3, [r5, #52]	@ 0x34
 80033ca:	f7fe fd37 	bl	8001e3c <HAL_GetTick>
 80033ce:	0006      	movs	r6, r0
 80033d0:	6b6b      	ldr	r3, [r5, #52]	@ 0x34
 80033d2:	423b      	tst	r3, r7
 80033d4:	d100      	bne.n	80033d8 <HAL_RCC_OscConfig+0x314>
 80033d6:	e6aa      	b.n	800312e <HAL_RCC_OscConfig+0x6a>
 80033d8:	f7fe fd30 	bl	8001e3c <HAL_GetTick>
 80033dc:	1b80      	subs	r0, r0, r6
 80033de:	2802      	cmp	r0, #2
 80033e0:	d9f6      	bls.n	80033d0 <HAL_RCC_OscConfig+0x30c>
 80033e2:	e6dc      	b.n	800319e <HAL_RCC_OscConfig+0xda>
 80033e4:	40021000 	.word	0x40021000
 80033e8:	fffeffff 	.word	0xfffeffff
 80033ec:	fffbffff 	.word	0xfffbffff
 80033f0:	40007000 	.word	0x40007000
 80033f4:	efffffff 	.word	0xefffffff
 80033f8:	00001388 	.word	0x00001388
 80033fc:	220c      	movs	r2, #12
 80033fe:	4d55      	ldr	r5, [pc, #340]	@ (8003554 <HAL_RCC_OscConfig+0x490>)
 8003400:	686b      	ldr	r3, [r5, #4]
 8003402:	4013      	ands	r3, r2
 8003404:	4293      	cmp	r3, r2
 8003406:	d009      	beq.n	800341c <HAL_RCC_OscConfig+0x358>
 8003408:	686b      	ldr	r3, [r5, #4]
 800340a:	4013      	ands	r3, r2
 800340c:	2b08      	cmp	r3, #8
 800340e:	d10e      	bne.n	800342e <HAL_RCC_OscConfig+0x36a>
 8003410:	22c0      	movs	r2, #192	@ 0xc0
 8003412:	686b      	ldr	r3, [r5, #4]
 8003414:	0252      	lsls	r2, r2, #9
 8003416:	4013      	ands	r3, r2
 8003418:	4293      	cmp	r3, r2
 800341a:	d108      	bne.n	800342e <HAL_RCC_OscConfig+0x36a>
 800341c:	6b6b      	ldr	r3, [r5, #52]	@ 0x34
 800341e:	039b      	lsls	r3, r3, #14
 8003420:	d400      	bmi.n	8003424 <HAL_RCC_OscConfig+0x360>
 8003422:	e688      	b.n	8003136 <HAL_RCC_OscConfig+0x72>
 8003424:	6a23      	ldr	r3, [r4, #32]
 8003426:	2b01      	cmp	r3, #1
 8003428:	d000      	beq.n	800342c <HAL_RCC_OscConfig+0x368>
 800342a:	e650      	b.n	80030ce <HAL_RCC_OscConfig+0xa>
 800342c:	e683      	b.n	8003136 <HAL_RCC_OscConfig+0x72>
 800342e:	6a23      	ldr	r3, [r4, #32]
 8003430:	2b00      	cmp	r3, #0
 8003432:	d013      	beq.n	800345c <HAL_RCC_OscConfig+0x398>
 8003434:	2380      	movs	r3, #128	@ 0x80
 8003436:	6b6a      	ldr	r2, [r5, #52]	@ 0x34
 8003438:	025b      	lsls	r3, r3, #9
 800343a:	4313      	orrs	r3, r2
 800343c:	636b      	str	r3, [r5, #52]	@ 0x34
 800343e:	f7fe fcfd 	bl	8001e3c <HAL_GetTick>
 8003442:	2780      	movs	r7, #128	@ 0x80
 8003444:	0006      	movs	r6, r0
 8003446:	02bf      	lsls	r7, r7, #10
 8003448:	6b6b      	ldr	r3, [r5, #52]	@ 0x34
 800344a:	423b      	tst	r3, r7
 800344c:	d000      	beq.n	8003450 <HAL_RCC_OscConfig+0x38c>
 800344e:	e672      	b.n	8003136 <HAL_RCC_OscConfig+0x72>
 8003450:	f7fe fcf4 	bl	8001e3c <HAL_GetTick>
 8003454:	1b80      	subs	r0, r0, r6
 8003456:	2802      	cmp	r0, #2
 8003458:	d9f6      	bls.n	8003448 <HAL_RCC_OscConfig+0x384>
 800345a:	e6a0      	b.n	800319e <HAL_RCC_OscConfig+0xda>
 800345c:	6b6b      	ldr	r3, [r5, #52]	@ 0x34
 800345e:	4a3e      	ldr	r2, [pc, #248]	@ (8003558 <HAL_RCC_OscConfig+0x494>)
 8003460:	2780      	movs	r7, #128	@ 0x80
 8003462:	4013      	ands	r3, r2
 8003464:	636b      	str	r3, [r5, #52]	@ 0x34
 8003466:	f7fe fce9 	bl	8001e3c <HAL_GetTick>
 800346a:	0006      	movs	r6, r0
 800346c:	02bf      	lsls	r7, r7, #10
 800346e:	6b6b      	ldr	r3, [r5, #52]	@ 0x34
 8003470:	423b      	tst	r3, r7
 8003472:	d100      	bne.n	8003476 <HAL_RCC_OscConfig+0x3b2>
 8003474:	e65f      	b.n	8003136 <HAL_RCC_OscConfig+0x72>
 8003476:	f7fe fce1 	bl	8001e3c <HAL_GetTick>
 800347a:	1b80      	subs	r0, r0, r6
 800347c:	2802      	cmp	r0, #2
 800347e:	d9f6      	bls.n	800346e <HAL_RCC_OscConfig+0x3aa>
 8003480:	e68d      	b.n	800319e <HAL_RCC_OscConfig+0xda>
 8003482:	210c      	movs	r1, #12
 8003484:	4d33      	ldr	r5, [pc, #204]	@ (8003554 <HAL_RCC_OscConfig+0x490>)
 8003486:	686a      	ldr	r2, [r5, #4]
 8003488:	400a      	ands	r2, r1
 800348a:	2a08      	cmp	r2, #8
 800348c:	d047      	beq.n	800351e <HAL_RCC_OscConfig+0x45a>
 800348e:	4a33      	ldr	r2, [pc, #204]	@ (800355c <HAL_RCC_OscConfig+0x498>)
 8003490:	2b02      	cmp	r3, #2
 8003492:	d132      	bne.n	80034fa <HAL_RCC_OscConfig+0x436>
 8003494:	682b      	ldr	r3, [r5, #0]
 8003496:	2780      	movs	r7, #128	@ 0x80
 8003498:	4013      	ands	r3, r2
 800349a:	602b      	str	r3, [r5, #0]
 800349c:	f7fe fcce 	bl	8001e3c <HAL_GetTick>
 80034a0:	0006      	movs	r6, r0
 80034a2:	04bf      	lsls	r7, r7, #18
 80034a4:	682b      	ldr	r3, [r5, #0]
 80034a6:	423b      	tst	r3, r7
 80034a8:	d121      	bne.n	80034ee <HAL_RCC_OscConfig+0x42a>
 80034aa:	220f      	movs	r2, #15
 80034ac:	6aeb      	ldr	r3, [r5, #44]	@ 0x2c
 80034ae:	2680      	movs	r6, #128	@ 0x80
 80034b0:	4393      	bics	r3, r2
 80034b2:	6b22      	ldr	r2, [r4, #48]	@ 0x30
 80034b4:	04b6      	lsls	r6, r6, #18
 80034b6:	4313      	orrs	r3, r2
 80034b8:	62eb      	str	r3, [r5, #44]	@ 0x2c
 80034ba:	6aa1      	ldr	r1, [r4, #40]	@ 0x28
 80034bc:	6ae3      	ldr	r3, [r4, #44]	@ 0x2c
 80034be:	686a      	ldr	r2, [r5, #4]
 80034c0:	430b      	orrs	r3, r1
 80034c2:	4927      	ldr	r1, [pc, #156]	@ (8003560 <HAL_RCC_OscConfig+0x49c>)
 80034c4:	400a      	ands	r2, r1
 80034c6:	4313      	orrs	r3, r2
 80034c8:	606b      	str	r3, [r5, #4]
 80034ca:	2380      	movs	r3, #128	@ 0x80
 80034cc:	682a      	ldr	r2, [r5, #0]
 80034ce:	045b      	lsls	r3, r3, #17
 80034d0:	4313      	orrs	r3, r2
 80034d2:	602b      	str	r3, [r5, #0]
 80034d4:	f7fe fcb2 	bl	8001e3c <HAL_GetTick>
 80034d8:	0004      	movs	r4, r0
 80034da:	682b      	ldr	r3, [r5, #0]
 80034dc:	4233      	tst	r3, r6
 80034de:	d000      	beq.n	80034e2 <HAL_RCC_OscConfig+0x41e>
 80034e0:	e62d      	b.n	800313e <HAL_RCC_OscConfig+0x7a>
 80034e2:	f7fe fcab 	bl	8001e3c <HAL_GetTick>
 80034e6:	1b00      	subs	r0, r0, r4
 80034e8:	2802      	cmp	r0, #2
 80034ea:	d9f6      	bls.n	80034da <HAL_RCC_OscConfig+0x416>
 80034ec:	e657      	b.n	800319e <HAL_RCC_OscConfig+0xda>
 80034ee:	f7fe fca5 	bl	8001e3c <HAL_GetTick>
 80034f2:	1b80      	subs	r0, r0, r6
 80034f4:	2802      	cmp	r0, #2
 80034f6:	d9d5      	bls.n	80034a4 <HAL_RCC_OscConfig+0x3e0>
 80034f8:	e651      	b.n	800319e <HAL_RCC_OscConfig+0xda>
 80034fa:	682b      	ldr	r3, [r5, #0]
 80034fc:	2680      	movs	r6, #128	@ 0x80
 80034fe:	4013      	ands	r3, r2
 8003500:	602b      	str	r3, [r5, #0]
 8003502:	f7fe fc9b 	bl	8001e3c <HAL_GetTick>
 8003506:	0004      	movs	r4, r0
 8003508:	04b6      	lsls	r6, r6, #18
 800350a:	682b      	ldr	r3, [r5, #0]
 800350c:	4233      	tst	r3, r6
 800350e:	d100      	bne.n	8003512 <HAL_RCC_OscConfig+0x44e>
 8003510:	e615      	b.n	800313e <HAL_RCC_OscConfig+0x7a>
 8003512:	f7fe fc93 	bl	8001e3c <HAL_GetTick>
 8003516:	1b00      	subs	r0, r0, r4
 8003518:	2802      	cmp	r0, #2
 800351a:	d9f6      	bls.n	800350a <HAL_RCC_OscConfig+0x446>
 800351c:	e63f      	b.n	800319e <HAL_RCC_OscConfig+0xda>
 800351e:	2b01      	cmp	r3, #1
 8003520:	d100      	bne.n	8003524 <HAL_RCC_OscConfig+0x460>
 8003522:	e5d4      	b.n	80030ce <HAL_RCC_OscConfig+0xa>
 8003524:	22c0      	movs	r2, #192	@ 0xc0
 8003526:	6868      	ldr	r0, [r5, #4]
 8003528:	6aa1      	ldr	r1, [r4, #40]	@ 0x28
 800352a:	0252      	lsls	r2, r2, #9
 800352c:	6aeb      	ldr	r3, [r5, #44]	@ 0x2c
 800352e:	4002      	ands	r2, r0
 8003530:	428a      	cmp	r2, r1
 8003532:	d000      	beq.n	8003536 <HAL_RCC_OscConfig+0x472>
 8003534:	e5cb      	b.n	80030ce <HAL_RCC_OscConfig+0xa>
 8003536:	220f      	movs	r2, #15
 8003538:	4013      	ands	r3, r2
 800353a:	6b22      	ldr	r2, [r4, #48]	@ 0x30
 800353c:	4293      	cmp	r3, r2
 800353e:	d000      	beq.n	8003542 <HAL_RCC_OscConfig+0x47e>
 8003540:	e5c5      	b.n	80030ce <HAL_RCC_OscConfig+0xa>
 8003542:	23f0      	movs	r3, #240	@ 0xf0
 8003544:	039b      	lsls	r3, r3, #14
 8003546:	4018      	ands	r0, r3
 8003548:	6ae3      	ldr	r3, [r4, #44]	@ 0x2c
 800354a:	1ac0      	subs	r0, r0, r3
 800354c:	1e43      	subs	r3, r0, #1
 800354e:	4198      	sbcs	r0, r3
 8003550:	b2c0      	uxtb	r0, r0
 8003552:	e5bd      	b.n	80030d0 <HAL_RCC_OscConfig+0xc>
 8003554:	40021000 	.word	0x40021000
 8003558:	fffeffff 	.word	0xfffeffff
 800355c:	feffffff 	.word	0xfeffffff
 8003560:	ffc27fff 	.word	0xffc27fff

08003564 <HAL_RCC_GetSysClockFreq>:
 8003564:	200c      	movs	r0, #12
 8003566:	b570      	push	{r4, r5, r6, lr}
 8003568:	4d13      	ldr	r5, [pc, #76]	@ (80035b8 <HAL_RCC_GetSysClockFreq+0x54>)
 800356a:	686b      	ldr	r3, [r5, #4]
 800356c:	4018      	ands	r0, r3
 800356e:	2808      	cmp	r0, #8
 8003570:	d008      	beq.n	8003584 <HAL_RCC_GetSysClockFreq+0x20>
 8003572:	380c      	subs	r0, #12
 8003574:	4243      	negs	r3, r0
 8003576:	4158      	adcs	r0, r3
 8003578:	4b10      	ldr	r3, [pc, #64]	@ (80035bc <HAL_RCC_GetSysClockFreq+0x58>)
 800357a:	4240      	negs	r0, r0
 800357c:	4018      	ands	r0, r3
 800357e:	4b10      	ldr	r3, [pc, #64]	@ (80035c0 <HAL_RCC_GetSysClockFreq+0x5c>)
 8003580:	18c0      	adds	r0, r0, r3
 8003582:	bd70      	pop	{r4, r5, r6, pc}
 8003584:	200f      	movs	r0, #15
 8003586:	490f      	ldr	r1, [pc, #60]	@ (80035c4 <HAL_RCC_GetSysClockFreq+0x60>)
 8003588:	0c9a      	lsrs	r2, r3, #18
 800358a:	4002      	ands	r2, r0
 800358c:	5c8c      	ldrb	r4, [r1, r2]
 800358e:	6aea      	ldr	r2, [r5, #44]	@ 0x2c
 8003590:	490d      	ldr	r1, [pc, #52]	@ (80035c8 <HAL_RCC_GetSysClockFreq+0x64>)
 8003592:	4002      	ands	r2, r0
 8003594:	5c89      	ldrb	r1, [r1, r2]
 8003596:	22c0      	movs	r2, #192	@ 0xc0
 8003598:	2080      	movs	r0, #128	@ 0x80
 800359a:	0252      	lsls	r2, r2, #9
 800359c:	4013      	ands	r3, r2
 800359e:	0240      	lsls	r0, r0, #9
 80035a0:	4283      	cmp	r3, r0
 80035a2:	d101      	bne.n	80035a8 <HAL_RCC_GetSysClockFreq+0x44>
 80035a4:	4806      	ldr	r0, [pc, #24]	@ (80035c0 <HAL_RCC_GetSysClockFreq+0x5c>)
 80035a6:	e002      	b.n	80035ae <HAL_RCC_GetSysClockFreq+0x4a>
 80035a8:	4293      	cmp	r3, r2
 80035aa:	d1fb      	bne.n	80035a4 <HAL_RCC_GetSysClockFreq+0x40>
 80035ac:	4807      	ldr	r0, [pc, #28]	@ (80035cc <HAL_RCC_GetSysClockFreq+0x68>)
 80035ae:	f7fc fdd1 	bl	8000154 <__udivsi3>
 80035b2:	4360      	muls	r0, r4
 80035b4:	e7e5      	b.n	8003582 <HAL_RCC_GetSysClockFreq+0x1e>
 80035b6:	46c0      	nop			@ (mov r8, r8)
 80035b8:	40021000 	.word	0x40021000
 80035bc:	02625a00 	.word	0x02625a00
 80035c0:	007a1200 	.word	0x007a1200
 80035c4:	08006018 	.word	0x08006018
 80035c8:	08006008 	.word	0x08006008
 80035cc:	02dc6c00 	.word	0x02dc6c00

080035d0 <HAL_RCC_ClockConfig>:
 80035d0:	b5f7      	push	{r0, r1, r2, r4, r5, r6, r7, lr}
 80035d2:	0004      	movs	r4, r0
 80035d4:	000f      	movs	r7, r1
 80035d6:	2800      	cmp	r0, #0
 80035d8:	d101      	bne.n	80035de <HAL_RCC_ClockConfig+0xe>
 80035da:	2001      	movs	r0, #1
 80035dc:	bdfe      	pop	{r1, r2, r3, r4, r5, r6, r7, pc}
 80035de:	2201      	movs	r2, #1
 80035e0:	4d3a      	ldr	r5, [pc, #232]	@ (80036cc <HAL_RCC_ClockConfig+0xfc>)
 80035e2:	682b      	ldr	r3, [r5, #0]
 80035e4:	4013      	ands	r3, r2
 80035e6:	428b      	cmp	r3, r1
 80035e8:	d31c      	bcc.n	8003624 <HAL_RCC_ClockConfig+0x54>
 80035ea:	6822      	ldr	r2, [r4, #0]
 80035ec:	0793      	lsls	r3, r2, #30
 80035ee:	d422      	bmi.n	8003636 <HAL_RCC_ClockConfig+0x66>
 80035f0:	07d2      	lsls	r2, r2, #31
 80035f2:	d42f      	bmi.n	8003654 <HAL_RCC_ClockConfig+0x84>
 80035f4:	2301      	movs	r3, #1
 80035f6:	682a      	ldr	r2, [r5, #0]
 80035f8:	401a      	ands	r2, r3
 80035fa:	42ba      	cmp	r2, r7
 80035fc:	d857      	bhi.n	80036ae <HAL_RCC_ClockConfig+0xde>
 80035fe:	6823      	ldr	r3, [r4, #0]
 8003600:	4d33      	ldr	r5, [pc, #204]	@ (80036d0 <HAL_RCC_ClockConfig+0x100>)
 8003602:	075b      	lsls	r3, r3, #29
 8003604:	d45a      	bmi.n	80036bc <HAL_RCC_ClockConfig+0xec>
 8003606:	f7ff ffad 	bl	8003564 <HAL_RCC_GetSysClockFreq>
 800360a:	686b      	ldr	r3, [r5, #4]
 800360c:	4a31      	ldr	r2, [pc, #196]	@ (80036d4 <HAL_RCC_ClockConfig+0x104>)
 800360e:	061b      	lsls	r3, r3, #24
 8003610:	0f1b      	lsrs	r3, r3, #28
 8003612:	5cd3      	ldrb	r3, [r2, r3]
 8003614:	4930      	ldr	r1, [pc, #192]	@ (80036d8 <HAL_RCC_ClockConfig+0x108>)
 8003616:	40d8      	lsrs	r0, r3
 8003618:	6008      	str	r0, [r1, #0]
 800361a:	2003      	movs	r0, #3
 800361c:	f7fe fbce 	bl	8001dbc <HAL_InitTick>
 8003620:	2000      	movs	r0, #0
 8003622:	e7db      	b.n	80035dc <HAL_RCC_ClockConfig+0xc>
 8003624:	682b      	ldr	r3, [r5, #0]
 8003626:	4393      	bics	r3, r2
 8003628:	430b      	orrs	r3, r1
 800362a:	602b      	str	r3, [r5, #0]
 800362c:	682b      	ldr	r3, [r5, #0]
 800362e:	4013      	ands	r3, r2
 8003630:	428b      	cmp	r3, r1
 8003632:	d1d2      	bne.n	80035da <HAL_RCC_ClockConfig+0xa>
 8003634:	e7d9      	b.n	80035ea <HAL_RCC_ClockConfig+0x1a>
 8003636:	4926      	ldr	r1, [pc, #152]	@ (80036d0 <HAL_RCC_ClockConfig+0x100>)
 8003638:	0753      	lsls	r3, r2, #29
 800363a:	d504      	bpl.n	8003646 <HAL_RCC_ClockConfig+0x76>
 800363c:	23e0      	movs	r3, #224	@ 0xe0
 800363e:	6848      	ldr	r0, [r1, #4]
 8003640:	00db      	lsls	r3, r3, #3
 8003642:	4303      	orrs	r3, r0
 8003644:	604b      	str	r3, [r1, #4]
 8003646:	20f0      	movs	r0, #240	@ 0xf0
 8003648:	684b      	ldr	r3, [r1, #4]
 800364a:	4383      	bics	r3, r0
 800364c:	68a0      	ldr	r0, [r4, #8]
 800364e:	4303      	orrs	r3, r0
 8003650:	604b      	str	r3, [r1, #4]
 8003652:	e7cd      	b.n	80035f0 <HAL_RCC_ClockConfig+0x20>
 8003654:	6862      	ldr	r2, [r4, #4]
 8003656:	4e1e      	ldr	r6, [pc, #120]	@ (80036d0 <HAL_RCC_ClockConfig+0x100>)
 8003658:	2a01      	cmp	r2, #1
 800365a:	d103      	bne.n	8003664 <HAL_RCC_ClockConfig+0x94>
 800365c:	6833      	ldr	r3, [r6, #0]
 800365e:	039b      	lsls	r3, r3, #14
 8003660:	d405      	bmi.n	800366e <HAL_RCC_ClockConfig+0x9e>
 8003662:	e7ba      	b.n	80035da <HAL_RCC_ClockConfig+0xa>
 8003664:	2a02      	cmp	r2, #2
 8003666:	d11a      	bne.n	800369e <HAL_RCC_ClockConfig+0xce>
 8003668:	6833      	ldr	r3, [r6, #0]
 800366a:	019b      	lsls	r3, r3, #6
 800366c:	d5b5      	bpl.n	80035da <HAL_RCC_ClockConfig+0xa>
 800366e:	2103      	movs	r1, #3
 8003670:	6873      	ldr	r3, [r6, #4]
 8003672:	438b      	bics	r3, r1
 8003674:	4313      	orrs	r3, r2
 8003676:	6073      	str	r3, [r6, #4]
 8003678:	f7fe fbe0 	bl	8001e3c <HAL_GetTick>
 800367c:	9001      	str	r0, [sp, #4]
 800367e:	230c      	movs	r3, #12
 8003680:	6872      	ldr	r2, [r6, #4]
 8003682:	401a      	ands	r2, r3
 8003684:	6863      	ldr	r3, [r4, #4]
 8003686:	009b      	lsls	r3, r3, #2
 8003688:	429a      	cmp	r2, r3
 800368a:	d0b3      	beq.n	80035f4 <HAL_RCC_ClockConfig+0x24>
 800368c:	f7fe fbd6 	bl	8001e3c <HAL_GetTick>
 8003690:	9b01      	ldr	r3, [sp, #4]
 8003692:	1ac0      	subs	r0, r0, r3
 8003694:	4b11      	ldr	r3, [pc, #68]	@ (80036dc <HAL_RCC_ClockConfig+0x10c>)
 8003696:	4298      	cmp	r0, r3
 8003698:	d9f1      	bls.n	800367e <HAL_RCC_ClockConfig+0xae>
 800369a:	2003      	movs	r0, #3
 800369c:	e79e      	b.n	80035dc <HAL_RCC_ClockConfig+0xc>
 800369e:	2a03      	cmp	r2, #3
 80036a0:	d101      	bne.n	80036a6 <HAL_RCC_ClockConfig+0xd6>
 80036a2:	6b73      	ldr	r3, [r6, #52]	@ 0x34
 80036a4:	e7db      	b.n	800365e <HAL_RCC_ClockConfig+0x8e>
 80036a6:	6833      	ldr	r3, [r6, #0]
 80036a8:	079b      	lsls	r3, r3, #30
 80036aa:	d4e0      	bmi.n	800366e <HAL_RCC_ClockConfig+0x9e>
 80036ac:	e795      	b.n	80035da <HAL_RCC_ClockConfig+0xa>
 80036ae:	682a      	ldr	r2, [r5, #0]
 80036b0:	439a      	bics	r2, r3
 80036b2:	602a      	str	r2, [r5, #0]
 80036b4:	682a      	ldr	r2, [r5, #0]
 80036b6:	421a      	tst	r2, r3
 80036b8:	d0a1      	beq.n	80035fe <HAL_RCC_ClockConfig+0x2e>
 80036ba:	e78e      	b.n	80035da <HAL_RCC_ClockConfig+0xa>
 80036bc:	686b      	ldr	r3, [r5, #4]
 80036be:	4a08      	ldr	r2, [pc, #32]	@ (80036e0 <HAL_RCC_ClockConfig+0x110>)
 80036c0:	4013      	ands	r3, r2
 80036c2:	68e2      	ldr	r2, [r4, #12]
 80036c4:	4313      	orrs	r3, r2
 80036c6:	606b      	str	r3, [r5, #4]
 80036c8:	e79d      	b.n	8003606 <HAL_RCC_ClockConfig+0x36>
 80036ca:	46c0      	nop			@ (mov r8, r8)
 80036cc:	40022000 	.word	0x40022000
 80036d0:	40021000 	.word	0x40021000
 80036d4:	08005ff8 	.word	0x08005ff8
 80036d8:	20000018 	.word	0x20000018
 80036dc:	00001388 	.word	0x00001388
 80036e0:	fffff8ff 	.word	0xfffff8ff

080036e4 <HAL_RCC_GetHCLKFreq>:
 80036e4:	4b01      	ldr	r3, [pc, #4]	@ (80036ec <HAL_RCC_GetHCLKFreq+0x8>)
 80036e6:	6818      	ldr	r0, [r3, #0]
 80036e8:	4770      	bx	lr
 80036ea:	46c0      	nop			@ (mov r8, r8)
 80036ec:	20000018 	.word	0x20000018

080036f0 <HAL_RCCEx_PeriphCLKConfig>:
 80036f0:	b5f0      	push	{r4, r5, r6, r7, lr}
 80036f2:	6803      	ldr	r3, [r0, #0]
 80036f4:	0005      	movs	r5, r0
 80036f6:	b085      	sub	sp, #20
 80036f8:	03db      	lsls	r3, r3, #15
 80036fa:	d52b      	bpl.n	8003754 <HAL_RCCEx_PeriphCLKConfig+0x64>
 80036fc:	2280      	movs	r2, #128	@ 0x80
 80036fe:	2100      	movs	r1, #0
 8003700:	4c41      	ldr	r4, [pc, #260]	@ (8003808 <HAL_RCCEx_PeriphCLKConfig+0x118>)
 8003702:	0552      	lsls	r2, r2, #21
 8003704:	69e3      	ldr	r3, [r4, #28]
 8003706:	9100      	str	r1, [sp, #0]
 8003708:	4213      	tst	r3, r2
 800370a:	d108      	bne.n	800371e <HAL_RCCEx_PeriphCLKConfig+0x2e>
 800370c:	69e3      	ldr	r3, [r4, #28]
 800370e:	4313      	orrs	r3, r2
 8003710:	61e3      	str	r3, [r4, #28]
 8003712:	69e3      	ldr	r3, [r4, #28]
 8003714:	4013      	ands	r3, r2
 8003716:	9303      	str	r3, [sp, #12]
 8003718:	9b03      	ldr	r3, [sp, #12]
 800371a:	2301      	movs	r3, #1
 800371c:	9300      	str	r3, [sp, #0]
 800371e:	2780      	movs	r7, #128	@ 0x80
 8003720:	4e3a      	ldr	r6, [pc, #232]	@ (800380c <HAL_RCCEx_PeriphCLKConfig+0x11c>)
 8003722:	007f      	lsls	r7, r7, #1
 8003724:	6833      	ldr	r3, [r6, #0]
 8003726:	423b      	tst	r3, r7
 8003728:	d034      	beq.n	8003794 <HAL_RCCEx_PeriphCLKConfig+0xa4>
 800372a:	6a21      	ldr	r1, [r4, #32]
 800372c:	22c0      	movs	r2, #192	@ 0xc0
 800372e:	0008      	movs	r0, r1
 8003730:	0092      	lsls	r2, r2, #2
 8003732:	686b      	ldr	r3, [r5, #4]
 8003734:	4e36      	ldr	r6, [pc, #216]	@ (8003810 <HAL_RCCEx_PeriphCLKConfig+0x120>)
 8003736:	4010      	ands	r0, r2
 8003738:	4211      	tst	r1, r2
 800373a:	d13d      	bne.n	80037b8 <HAL_RCCEx_PeriphCLKConfig+0xc8>
 800373c:	6a23      	ldr	r3, [r4, #32]
 800373e:	686a      	ldr	r2, [r5, #4]
 8003740:	4033      	ands	r3, r6
 8003742:	4313      	orrs	r3, r2
 8003744:	6223      	str	r3, [r4, #32]
 8003746:	9b00      	ldr	r3, [sp, #0]
 8003748:	2b01      	cmp	r3, #1
 800374a:	d103      	bne.n	8003754 <HAL_RCCEx_PeriphCLKConfig+0x64>
 800374c:	69e3      	ldr	r3, [r4, #28]
 800374e:	4a31      	ldr	r2, [pc, #196]	@ (8003814 <HAL_RCCEx_PeriphCLKConfig+0x124>)
 8003750:	4013      	ands	r3, r2
 8003752:	61e3      	str	r3, [r4, #28]
 8003754:	682b      	ldr	r3, [r5, #0]
 8003756:	07da      	lsls	r2, r3, #31
 8003758:	d506      	bpl.n	8003768 <HAL_RCCEx_PeriphCLKConfig+0x78>
 800375a:	2003      	movs	r0, #3
 800375c:	492a      	ldr	r1, [pc, #168]	@ (8003808 <HAL_RCCEx_PeriphCLKConfig+0x118>)
 800375e:	6b0a      	ldr	r2, [r1, #48]	@ 0x30
 8003760:	4382      	bics	r2, r0
 8003762:	68a8      	ldr	r0, [r5, #8]
 8003764:	4302      	orrs	r2, r0
 8003766:	630a      	str	r2, [r1, #48]	@ 0x30
 8003768:	069a      	lsls	r2, r3, #26
 800376a:	d506      	bpl.n	800377a <HAL_RCCEx_PeriphCLKConfig+0x8a>
 800376c:	2010      	movs	r0, #16
 800376e:	4926      	ldr	r1, [pc, #152]	@ (8003808 <HAL_RCCEx_PeriphCLKConfig+0x118>)
 8003770:	6b0a      	ldr	r2, [r1, #48]	@ 0x30
 8003772:	4382      	bics	r2, r0
 8003774:	68e8      	ldr	r0, [r5, #12]
 8003776:	4302      	orrs	r2, r0
 8003778:	630a      	str	r2, [r1, #48]	@ 0x30
 800377a:	039a      	lsls	r2, r3, #14
 800377c:	d506      	bpl.n	800378c <HAL_RCCEx_PeriphCLKConfig+0x9c>
 800377e:	2080      	movs	r0, #128	@ 0x80
 8003780:	4921      	ldr	r1, [pc, #132]	@ (8003808 <HAL_RCCEx_PeriphCLKConfig+0x118>)
 8003782:	6b0a      	ldr	r2, [r1, #48]	@ 0x30
 8003784:	4382      	bics	r2, r0
 8003786:	6968      	ldr	r0, [r5, #20]
 8003788:	4302      	orrs	r2, r0
 800378a:	630a      	str	r2, [r1, #48]	@ 0x30
 800378c:	055b      	lsls	r3, r3, #21
 800378e:	d433      	bmi.n	80037f8 <HAL_RCCEx_PeriphCLKConfig+0x108>
 8003790:	2000      	movs	r0, #0
 8003792:	e00f      	b.n	80037b4 <HAL_RCCEx_PeriphCLKConfig+0xc4>
 8003794:	6833      	ldr	r3, [r6, #0]
 8003796:	433b      	orrs	r3, r7
 8003798:	6033      	str	r3, [r6, #0]
 800379a:	f7fe fb4f 	bl	8001e3c <HAL_GetTick>
 800379e:	9001      	str	r0, [sp, #4]
 80037a0:	6833      	ldr	r3, [r6, #0]
 80037a2:	423b      	tst	r3, r7
 80037a4:	d1c1      	bne.n	800372a <HAL_RCCEx_PeriphCLKConfig+0x3a>
 80037a6:	f7fe fb49 	bl	8001e3c <HAL_GetTick>
 80037aa:	9b01      	ldr	r3, [sp, #4]
 80037ac:	1ac0      	subs	r0, r0, r3
 80037ae:	2864      	cmp	r0, #100	@ 0x64
 80037b0:	d9f6      	bls.n	80037a0 <HAL_RCCEx_PeriphCLKConfig+0xb0>
 80037b2:	2003      	movs	r0, #3
 80037b4:	b005      	add	sp, #20
 80037b6:	bdf0      	pop	{r4, r5, r6, r7, pc}
 80037b8:	4013      	ands	r3, r2
 80037ba:	4283      	cmp	r3, r0
 80037bc:	d0be      	beq.n	800373c <HAL_RCCEx_PeriphCLKConfig+0x4c>
 80037be:	2280      	movs	r2, #128	@ 0x80
 80037c0:	6a23      	ldr	r3, [r4, #32]
 80037c2:	6a20      	ldr	r0, [r4, #32]
 80037c4:	0019      	movs	r1, r3
 80037c6:	0252      	lsls	r2, r2, #9
 80037c8:	4302      	orrs	r2, r0
 80037ca:	6222      	str	r2, [r4, #32]
 80037cc:	6a22      	ldr	r2, [r4, #32]
 80037ce:	4812      	ldr	r0, [pc, #72]	@ (8003818 <HAL_RCCEx_PeriphCLKConfig+0x128>)
 80037d0:	4031      	ands	r1, r6
 80037d2:	4002      	ands	r2, r0
 80037d4:	6222      	str	r2, [r4, #32]
 80037d6:	6221      	str	r1, [r4, #32]
 80037d8:	07db      	lsls	r3, r3, #31
 80037da:	d5af      	bpl.n	800373c <HAL_RCCEx_PeriphCLKConfig+0x4c>
 80037dc:	f7fe fb2e 	bl	8001e3c <HAL_GetTick>
 80037e0:	0007      	movs	r7, r0
 80037e2:	2202      	movs	r2, #2
 80037e4:	6a23      	ldr	r3, [r4, #32]
 80037e6:	4213      	tst	r3, r2
 80037e8:	d1a8      	bne.n	800373c <HAL_RCCEx_PeriphCLKConfig+0x4c>
 80037ea:	f7fe fb27 	bl	8001e3c <HAL_GetTick>
 80037ee:	4b0b      	ldr	r3, [pc, #44]	@ (800381c <HAL_RCCEx_PeriphCLKConfig+0x12c>)
 80037f0:	1bc0      	subs	r0, r0, r7
 80037f2:	4298      	cmp	r0, r3
 80037f4:	d9f5      	bls.n	80037e2 <HAL_RCCEx_PeriphCLKConfig+0xf2>
 80037f6:	e7dc      	b.n	80037b2 <HAL_RCCEx_PeriphCLKConfig+0xc2>
 80037f8:	2140      	movs	r1, #64	@ 0x40
 80037fa:	4a03      	ldr	r2, [pc, #12]	@ (8003808 <HAL_RCCEx_PeriphCLKConfig+0x118>)
 80037fc:	6b13      	ldr	r3, [r2, #48]	@ 0x30
 80037fe:	438b      	bics	r3, r1
 8003800:	6929      	ldr	r1, [r5, #16]
 8003802:	430b      	orrs	r3, r1
 8003804:	6313      	str	r3, [r2, #48]	@ 0x30
 8003806:	e7c3      	b.n	8003790 <HAL_RCCEx_PeriphCLKConfig+0xa0>
 8003808:	40021000 	.word	0x40021000
 800380c:	40007000 	.word	0x40007000
 8003810:	fffffcff 	.word	0xfffffcff
 8003814:	efffffff 	.word	0xefffffff
 8003818:	fffeffff 	.word	0xfffeffff
 800381c:	00001388 	.word	0x00001388

08003820 <SPI_WaitFlagStateUntilTimeout.constprop.0>:
 8003820:	b5f0      	push	{r4, r5, r6, r7, lr}
 8003822:	000e      	movs	r6, r1
 8003824:	b085      	sub	sp, #20
 8003826:	0015      	movs	r5, r2
 8003828:	0004      	movs	r4, r0
 800382a:	f7fe fb07 	bl	8001e3c <HAL_GetTick>
 800382e:	19ad      	adds	r5, r5, r6
 8003830:	1a2d      	subs	r5, r5, r0
 8003832:	f7fe fb03 	bl	8001e3c <HAL_GetTick>
 8003836:	2780      	movs	r7, #128	@ 0x80
 8003838:	4b25      	ldr	r3, [pc, #148]	@ (80038d0 <SPI_WaitFlagStateUntilTimeout.constprop.0+0xb0>)
 800383a:	9001      	str	r0, [sp, #4]
 800383c:	681b      	ldr	r3, [r3, #0]
 800383e:	015b      	lsls	r3, r3, #5
 8003840:	0d1b      	lsrs	r3, r3, #20
 8003842:	436b      	muls	r3, r5
 8003844:	9303      	str	r3, [sp, #12]
 8003846:	6822      	ldr	r2, [r4, #0]
 8003848:	6893      	ldr	r3, [r2, #8]
 800384a:	0018      	movs	r0, r3
 800384c:	4038      	ands	r0, r7
 800384e:	423b      	tst	r3, r7
 8003850:	d032      	beq.n	80038b8 <SPI_WaitFlagStateUntilTimeout.constprop.0+0x98>
 8003852:	1c73      	adds	r3, r6, #1
 8003854:	d0f8      	beq.n	8003848 <SPI_WaitFlagStateUntilTimeout.constprop.0+0x28>
 8003856:	f7fe faf1 	bl	8001e3c <HAL_GetTick>
 800385a:	9b01      	ldr	r3, [sp, #4]
 800385c:	1ac0      	subs	r0, r0, r3
 800385e:	42a8      	cmp	r0, r5
 8003860:	d32c      	bcc.n	80038bc <SPI_WaitFlagStateUntilTimeout.constprop.0+0x9c>
 8003862:	21e0      	movs	r1, #224	@ 0xe0
 8003864:	6823      	ldr	r3, [r4, #0]
 8003866:	685a      	ldr	r2, [r3, #4]
 8003868:	438a      	bics	r2, r1
 800386a:	605a      	str	r2, [r3, #4]
 800386c:	2282      	movs	r2, #130	@ 0x82
 800386e:	6861      	ldr	r1, [r4, #4]
 8003870:	0052      	lsls	r2, r2, #1
 8003872:	4291      	cmp	r1, r2
 8003874:	d10c      	bne.n	8003890 <SPI_WaitFlagStateUntilTimeout.constprop.0+0x70>
 8003876:	2180      	movs	r1, #128	@ 0x80
 8003878:	68a2      	ldr	r2, [r4, #8]
 800387a:	0209      	lsls	r1, r1, #8
 800387c:	428a      	cmp	r2, r1
 800387e:	d003      	beq.n	8003888 <SPI_WaitFlagStateUntilTimeout.constprop.0+0x68>
 8003880:	2180      	movs	r1, #128	@ 0x80
 8003882:	00c9      	lsls	r1, r1, #3
 8003884:	428a      	cmp	r2, r1
 8003886:	d103      	bne.n	8003890 <SPI_WaitFlagStateUntilTimeout.constprop.0+0x70>
 8003888:	2140      	movs	r1, #64	@ 0x40
 800388a:	681a      	ldr	r2, [r3, #0]
 800388c:	438a      	bics	r2, r1
 800388e:	601a      	str	r2, [r3, #0]
 8003890:	2180      	movs	r1, #128	@ 0x80
 8003892:	6aa2      	ldr	r2, [r4, #40]	@ 0x28
 8003894:	0189      	lsls	r1, r1, #6
 8003896:	428a      	cmp	r2, r1
 8003898:	d106      	bne.n	80038a8 <SPI_WaitFlagStateUntilTimeout.constprop.0+0x88>
 800389a:	6819      	ldr	r1, [r3, #0]
 800389c:	480d      	ldr	r0, [pc, #52]	@ (80038d4 <SPI_WaitFlagStateUntilTimeout.constprop.0+0xb4>)
 800389e:	4001      	ands	r1, r0
 80038a0:	6019      	str	r1, [r3, #0]
 80038a2:	6819      	ldr	r1, [r3, #0]
 80038a4:	430a      	orrs	r2, r1
 80038a6:	601a      	str	r2, [r3, #0]
 80038a8:	0023      	movs	r3, r4
 80038aa:	2201      	movs	r2, #1
 80038ac:	335d      	adds	r3, #93	@ 0x5d
 80038ae:	701a      	strb	r2, [r3, #0]
 80038b0:	2300      	movs	r3, #0
 80038b2:	2003      	movs	r0, #3
 80038b4:	345c      	adds	r4, #92	@ 0x5c
 80038b6:	7023      	strb	r3, [r4, #0]
 80038b8:	b005      	add	sp, #20
 80038ba:	bdf0      	pop	{r4, r5, r6, r7, pc}
 80038bc:	9b03      	ldr	r3, [sp, #12]
 80038be:	2b00      	cmp	r3, #0
 80038c0:	d000      	beq.n	80038c4 <SPI_WaitFlagStateUntilTimeout.constprop.0+0xa4>
 80038c2:	002b      	movs	r3, r5
 80038c4:	9a03      	ldr	r2, [sp, #12]
 80038c6:	001d      	movs	r5, r3
 80038c8:	3a01      	subs	r2, #1
 80038ca:	9203      	str	r2, [sp, #12]
 80038cc:	e7bb      	b.n	8003846 <SPI_WaitFlagStateUntilTimeout.constprop.0+0x26>
 80038ce:	46c0      	nop			@ (mov r8, r8)
 80038d0:	20000018 	.word	0x20000018
 80038d4:	ffffdfff 	.word	0xffffdfff

080038d8 <SPI_WaitFifoStateUntilTimeout.constprop.0>:
 80038d8:	b5f0      	push	{r4, r5, r6, r7, lr}
 80038da:	0017      	movs	r7, r2
 80038dc:	2200      	movs	r2, #0
 80038de:	b085      	sub	sp, #20
 80038e0:	001d      	movs	r5, r3
 80038e2:	ab02      	add	r3, sp, #8
 80038e4:	70da      	strb	r2, [r3, #3]
 80038e6:	0004      	movs	r4, r0
 80038e8:	000e      	movs	r6, r1
 80038ea:	f7fe faa7 	bl	8001e3c <HAL_GetTick>
 80038ee:	19ed      	adds	r5, r5, r7
 80038f0:	1a2d      	subs	r5, r5, r0
 80038f2:	f7fe faa3 	bl	8001e3c <HAL_GetTick>
 80038f6:	2223      	movs	r2, #35	@ 0x23
 80038f8:	6823      	ldr	r3, [r4, #0]
 80038fa:	9000      	str	r0, [sp, #0]
 80038fc:	9301      	str	r3, [sp, #4]
 80038fe:	4b2a      	ldr	r3, [pc, #168]	@ (80039a8 <SPI_WaitFifoStateUntilTimeout.constprop.0+0xd0>)
 8003900:	681b      	ldr	r3, [r3, #0]
 8003902:	4353      	muls	r3, r2
 8003904:	0d1b      	lsrs	r3, r3, #20
 8003906:	436b      	muls	r3, r5
 8003908:	9303      	str	r3, [sp, #12]
 800390a:	ab02      	add	r3, sp, #8
 800390c:	6821      	ldr	r1, [r4, #0]
 800390e:	1cda      	adds	r2, r3, #3
 8003910:	688b      	ldr	r3, [r1, #8]
 8003912:	0018      	movs	r0, r3
 8003914:	4030      	ands	r0, r6
 8003916:	4233      	tst	r3, r6
 8003918:	d03b      	beq.n	8003992 <SPI_WaitFifoStateUntilTimeout.constprop.0+0xba>
 800391a:	23c0      	movs	r3, #192	@ 0xc0
 800391c:	00db      	lsls	r3, r3, #3
 800391e:	429e      	cmp	r6, r3
 8003920:	d104      	bne.n	800392c <SPI_WaitFifoStateUntilTimeout.constprop.0+0x54>
 8003922:	9b01      	ldr	r3, [sp, #4]
 8003924:	7b1b      	ldrb	r3, [r3, #12]
 8003926:	b2db      	uxtb	r3, r3
 8003928:	7013      	strb	r3, [r2, #0]
 800392a:	7813      	ldrb	r3, [r2, #0]
 800392c:	1c7b      	adds	r3, r7, #1
 800392e:	d0ef      	beq.n	8003910 <SPI_WaitFifoStateUntilTimeout.constprop.0+0x38>
 8003930:	f7fe fa84 	bl	8001e3c <HAL_GetTick>
 8003934:	9b00      	ldr	r3, [sp, #0]
 8003936:	1ac0      	subs	r0, r0, r3
 8003938:	42a8      	cmp	r0, r5
 800393a:	d32c      	bcc.n	8003996 <SPI_WaitFifoStateUntilTimeout.constprop.0+0xbe>
 800393c:	21e0      	movs	r1, #224	@ 0xe0
 800393e:	6823      	ldr	r3, [r4, #0]
 8003940:	685a      	ldr	r2, [r3, #4]
 8003942:	438a      	bics	r2, r1
 8003944:	605a      	str	r2, [r3, #4]
 8003946:	2282      	movs	r2, #130	@ 0x82
 8003948:	6861      	ldr	r1, [r4, #4]
 800394a:	0052      	lsls	r2, r2, #1
 800394c:	4291      	cmp	r1, r2
 800394e:	d10c      	bne.n	800396a <SPI_WaitFifoStateUntilTimeout.constprop.0+0x92>
 8003950:	2180      	movs	r1, #128	@ 0x80
 8003952:	68a2      	ldr	r2, [r4, #8]
 8003954:	0209      	lsls	r1, r1, #8
 8003956:	428a      	cmp	r2, r1
 8003958:	d003      	beq.n	8003962 <SPI_WaitFifoStateUntilTimeout.constprop.0+0x8a>
 800395a:	2180      	movs	r1, #128	@ 0x80
 800395c:	00c9      	lsls	r1, r1, #3
 800395e:	428a      	cmp	r2, r1
 8003960:	d103      	bne.n	800396a <SPI_WaitFifoStateUntilTimeout.constprop.0+0x92>
 8003962:	2140      	movs	r1, #64	@ 0x40
 8003964:	681a      	ldr	r2, [r3, #0]
 8003966:	438a      	bics	r2, r1
 8003968:	601a      	str	r2, [r3, #0]
 800396a:	2180      	movs	r1, #128	@ 0x80
 800396c:	6aa2      	ldr	r2, [r4, #40]	@ 0x28
 800396e:	0189      	lsls	r1, r1, #6
 8003970:	428a      	cmp	r2, r1
 8003972:	d106      	bne.n	8003982 <SPI_WaitFifoStateUntilTimeout.constprop.0+0xaa>
 8003974:	6819      	ldr	r1, [r3, #0]
 8003976:	480d      	ldr	r0, [pc, #52]	@ (80039ac <SPI_WaitFifoStateUntilTimeout.constprop.0+0xd4>)
 8003978:	4001      	ands	r1, r0
 800397a:	6019      	str	r1, [r3, #0]
 800397c:	6819      	ldr	r1, [r3, #0]
 800397e:	430a      	orrs	r2, r1
 8003980:	601a      	str	r2, [r3, #0]
 8003982:	0023      	movs	r3, r4
 8003984:	2201      	movs	r2, #1
 8003986:	335d      	adds	r3, #93	@ 0x5d
 8003988:	701a      	strb	r2, [r3, #0]
 800398a:	2300      	movs	r3, #0
 800398c:	2003      	movs	r0, #3
 800398e:	345c      	adds	r4, #92	@ 0x5c
 8003990:	7023      	strb	r3, [r4, #0]
 8003992:	b005      	add	sp, #20
 8003994:	bdf0      	pop	{r4, r5, r6, r7, pc}
 8003996:	9b03      	ldr	r3, [sp, #12]
 8003998:	2b00      	cmp	r3, #0
 800399a:	d000      	beq.n	800399e <SPI_WaitFifoStateUntilTimeout.constprop.0+0xc6>
 800399c:	002b      	movs	r3, r5
 800399e:	9a03      	ldr	r2, [sp, #12]
 80039a0:	001d      	movs	r5, r3
 80039a2:	3a01      	subs	r2, #1
 80039a4:	9203      	str	r2, [sp, #12]
 80039a6:	e7b0      	b.n	800390a <SPI_WaitFifoStateUntilTimeout.constprop.0+0x32>
 80039a8:	20000018 	.word	0x20000018
 80039ac:	ffffdfff 	.word	0xffffdfff

080039b0 <SPI_EndRxTxTransaction>:
 80039b0:	b570      	push	{r4, r5, r6, lr}
 80039b2:	0013      	movs	r3, r2
 80039b4:	000d      	movs	r5, r1
 80039b6:	0016      	movs	r6, r2
 80039b8:	000a      	movs	r2, r1
 80039ba:	21c0      	movs	r1, #192	@ 0xc0
 80039bc:	0149      	lsls	r1, r1, #5
 80039be:	0004      	movs	r4, r0
 80039c0:	f7ff ff8a 	bl	80038d8 <SPI_WaitFifoStateUntilTimeout.constprop.0>
 80039c4:	2800      	cmp	r0, #0
 80039c6:	d005      	beq.n	80039d4 <SPI_EndRxTxTransaction+0x24>
 80039c8:	2320      	movs	r3, #32
 80039ca:	2003      	movs	r0, #3
 80039cc:	6e22      	ldr	r2, [r4, #96]	@ 0x60
 80039ce:	4313      	orrs	r3, r2
 80039d0:	6623      	str	r3, [r4, #96]	@ 0x60
 80039d2:	bd70      	pop	{r4, r5, r6, pc}
 80039d4:	0032      	movs	r2, r6
 80039d6:	0029      	movs	r1, r5
 80039d8:	0020      	movs	r0, r4
 80039da:	f7ff ff21 	bl	8003820 <SPI_WaitFlagStateUntilTimeout.constprop.0>
 80039de:	2800      	cmp	r0, #0
 80039e0:	d1f2      	bne.n	80039c8 <SPI_EndRxTxTransaction+0x18>
 80039e2:	21c0      	movs	r1, #192	@ 0xc0
 80039e4:	0033      	movs	r3, r6
 80039e6:	002a      	movs	r2, r5
 80039e8:	0020      	movs	r0, r4
 80039ea:	00c9      	lsls	r1, r1, #3
 80039ec:	f7ff ff74 	bl	80038d8 <SPI_WaitFifoStateUntilTimeout.constprop.0>
 80039f0:	2800      	cmp	r0, #0
 80039f2:	d0ee      	beq.n	80039d2 <SPI_EndRxTxTransaction+0x22>
 80039f4:	e7e8      	b.n	80039c8 <SPI_EndRxTxTransaction+0x18>
	...

080039f8 <HAL_SPI_Init>:
 80039f8:	b5f8      	push	{r3, r4, r5, r6, r7, lr}
 80039fa:	0004      	movs	r4, r0
 80039fc:	2001      	movs	r0, #1
 80039fe:	2c00      	cmp	r4, #0
 8003a00:	d067      	beq.n	8003ad2 <HAL_SPI_Init+0xda>
 8003a02:	6a63      	ldr	r3, [r4, #36]	@ 0x24
 8003a04:	2b00      	cmp	r3, #0
 8003a06:	d165      	bne.n	8003ad4 <HAL_SPI_Init+0xdc>
 8003a08:	2282      	movs	r2, #130	@ 0x82
 8003a0a:	6861      	ldr	r1, [r4, #4]
 8003a0c:	0052      	lsls	r2, r2, #1
 8003a0e:	4291      	cmp	r1, r2
 8003a10:	d000      	beq.n	8003a14 <HAL_SPI_Init+0x1c>
 8003a12:	61e3      	str	r3, [r4, #28]
 8003a14:	2300      	movs	r3, #0
 8003a16:	0025      	movs	r5, r4
 8003a18:	62a3      	str	r3, [r4, #40]	@ 0x28
 8003a1a:	355d      	adds	r5, #93	@ 0x5d
 8003a1c:	782b      	ldrb	r3, [r5, #0]
 8003a1e:	b2da      	uxtb	r2, r3
 8003a20:	2b00      	cmp	r3, #0
 8003a22:	d105      	bne.n	8003a30 <HAL_SPI_Init+0x38>
 8003a24:	0023      	movs	r3, r4
 8003a26:	335c      	adds	r3, #92	@ 0x5c
 8003a28:	0020      	movs	r0, r4
 8003a2a:	701a      	strb	r2, [r3, #0]
 8003a2c:	f7fe f8d2 	bl	8001bd4 <HAL_SPI_MspInit>
 8003a30:	2302      	movs	r3, #2
 8003a32:	2240      	movs	r2, #64	@ 0x40
 8003a34:	702b      	strb	r3, [r5, #0]
 8003a36:	6821      	ldr	r1, [r4, #0]
 8003a38:	68e6      	ldr	r6, [r4, #12]
 8003a3a:	680b      	ldr	r3, [r1, #0]
 8003a3c:	4393      	bics	r3, r2
 8003a3e:	22e0      	movs	r2, #224	@ 0xe0
 8003a40:	600b      	str	r3, [r1, #0]
 8003a42:	00d2      	lsls	r2, r2, #3
 8003a44:	2300      	movs	r3, #0
 8003a46:	4296      	cmp	r6, r2
 8003a48:	d948      	bls.n	8003adc <HAL_SPI_Init+0xe4>
 8003a4a:	22f0      	movs	r2, #240	@ 0xf0
 8003a4c:	0018      	movs	r0, r3
 8003a4e:	0112      	lsls	r2, r2, #4
 8003a50:	4296      	cmp	r6, r2
 8003a52:	d000      	beq.n	8003a56 <HAL_SPI_Init+0x5e>
 8003a54:	62a3      	str	r3, [r4, #40]	@ 0x28
 8003a56:	2282      	movs	r2, #130	@ 0x82
 8003a58:	2784      	movs	r7, #132	@ 0x84
 8003a5a:	6863      	ldr	r3, [r4, #4]
 8003a5c:	0052      	lsls	r2, r2, #1
 8003a5e:	4013      	ands	r3, r2
 8003a60:	68a2      	ldr	r2, [r4, #8]
 8003a62:	023f      	lsls	r7, r7, #8
 8003a64:	403a      	ands	r2, r7
 8003a66:	2702      	movs	r7, #2
 8003a68:	4313      	orrs	r3, r2
 8003a6a:	6922      	ldr	r2, [r4, #16]
 8003a6c:	69a5      	ldr	r5, [r4, #24]
 8003a6e:	403a      	ands	r2, r7
 8003a70:	4313      	orrs	r3, r2
 8003a72:	2201      	movs	r2, #1
 8003a74:	6967      	ldr	r7, [r4, #20]
 8003a76:	4017      	ands	r7, r2
 8003a78:	433b      	orrs	r3, r7
 8003a7a:	2780      	movs	r7, #128	@ 0x80
 8003a7c:	00bf      	lsls	r7, r7, #2
 8003a7e:	402f      	ands	r7, r5
 8003a80:	433b      	orrs	r3, r7
 8003a82:	69e7      	ldr	r7, [r4, #28]
 8003a84:	3237      	adds	r2, #55	@ 0x37
 8003a86:	4017      	ands	r7, r2
 8003a88:	433b      	orrs	r3, r7
 8003a8a:	6a27      	ldr	r7, [r4, #32]
 8003a8c:	3248      	adds	r2, #72	@ 0x48
 8003a8e:	4017      	ands	r7, r2
 8003a90:	2280      	movs	r2, #128	@ 0x80
 8003a92:	433b      	orrs	r3, r7
 8003a94:	6aa7      	ldr	r7, [r4, #40]	@ 0x28
 8003a96:	0192      	lsls	r2, r2, #6
 8003a98:	4017      	ands	r7, r2
 8003a9a:	433b      	orrs	r3, r7
 8003a9c:	2710      	movs	r7, #16
 8003a9e:	2208      	movs	r2, #8
 8003aa0:	600b      	str	r3, [r1, #0]
 8003aa2:	6a63      	ldr	r3, [r4, #36]	@ 0x24
 8003aa4:	0c2d      	lsrs	r5, r5, #16
 8003aa6:	403b      	ands	r3, r7
 8003aa8:	6b67      	ldr	r7, [r4, #52]	@ 0x34
 8003aaa:	4017      	ands	r7, r2
 8003aac:	433b      	orrs	r3, r7
 8003aae:	27f0      	movs	r7, #240	@ 0xf0
 8003ab0:	013f      	lsls	r7, r7, #4
 8003ab2:	403e      	ands	r6, r7
 8003ab4:	4333      	orrs	r3, r6
 8003ab6:	2604      	movs	r6, #4
 8003ab8:	4035      	ands	r5, r6
 8003aba:	432b      	orrs	r3, r5
 8003abc:	4303      	orrs	r3, r0
 8003abe:	604b      	str	r3, [r1, #4]
 8003ac0:	69cb      	ldr	r3, [r1, #28]
 8003ac2:	4808      	ldr	r0, [pc, #32]	@ (8003ae4 <HAL_SPI_Init+0xec>)
 8003ac4:	4003      	ands	r3, r0
 8003ac6:	2000      	movs	r0, #0
 8003ac8:	61cb      	str	r3, [r1, #28]
 8003aca:	2301      	movs	r3, #1
 8003acc:	6620      	str	r0, [r4, #96]	@ 0x60
 8003ace:	345d      	adds	r4, #93	@ 0x5d
 8003ad0:	7023      	strb	r3, [r4, #0]
 8003ad2:	bdf8      	pop	{r3, r4, r5, r6, r7, pc}
 8003ad4:	2300      	movs	r3, #0
 8003ad6:	6123      	str	r3, [r4, #16]
 8003ad8:	6163      	str	r3, [r4, #20]
 8003ada:	e79b      	b.n	8003a14 <HAL_SPI_Init+0x1c>
 8003adc:	2080      	movs	r0, #128	@ 0x80
 8003ade:	0140      	lsls	r0, r0, #5
 8003ae0:	e7b6      	b.n	8003a50 <HAL_SPI_Init+0x58>
 8003ae2:	46c0      	nop			@ (mov r8, r8)
 8003ae4:	fffff7ff 	.word	0xfffff7ff

08003ae8 <HAL_SPI_TransmitReceive>:
 8003ae8:	b5f7      	push	{r0, r1, r2, r4, r5, r6, r7, lr}
 8003aea:	001e      	movs	r6, r3
 8003aec:	0003      	movs	r3, r0
 8003aee:	335c      	adds	r3, #92	@ 0x5c
 8003af0:	0017      	movs	r7, r2
 8003af2:	781a      	ldrb	r2, [r3, #0]
 8003af4:	0004      	movs	r4, r0
 8003af6:	000d      	movs	r5, r1
 8003af8:	2002      	movs	r0, #2
 8003afa:	2a01      	cmp	r2, #1
 8003afc:	d01b      	beq.n	8003b36 <HAL_SPI_TransmitReceive+0x4e>
 8003afe:	2201      	movs	r2, #1
 8003b00:	701a      	strb	r2, [r3, #0]
 8003b02:	f7fe f99b 	bl	8001e3c <HAL_GetTick>
 8003b06:	0023      	movs	r3, r4
 8003b08:	9001      	str	r0, [sp, #4]
 8003b0a:	335d      	adds	r3, #93	@ 0x5d
 8003b0c:	781b      	ldrb	r3, [r3, #0]
 8003b0e:	6861      	ldr	r1, [r4, #4]
 8003b10:	b2da      	uxtb	r2, r3
 8003b12:	2b01      	cmp	r3, #1
 8003b14:	d009      	beq.n	8003b2a <HAL_SPI_TransmitReceive+0x42>
 8003b16:	2382      	movs	r3, #130	@ 0x82
 8003b18:	2002      	movs	r0, #2
 8003b1a:	005b      	lsls	r3, r3, #1
 8003b1c:	4299      	cmp	r1, r3
 8003b1e:	d107      	bne.n	8003b30 <HAL_SPI_TransmitReceive+0x48>
 8003b20:	68a3      	ldr	r3, [r4, #8]
 8003b22:	2b00      	cmp	r3, #0
 8003b24:	d104      	bne.n	8003b30 <HAL_SPI_TransmitReceive+0x48>
 8003b26:	2a04      	cmp	r2, #4
 8003b28:	d102      	bne.n	8003b30 <HAL_SPI_TransmitReceive+0x48>
 8003b2a:	2d00      	cmp	r5, #0
 8003b2c:	d104      	bne.n	8003b38 <HAL_SPI_TransmitReceive+0x50>
 8003b2e:	2001      	movs	r0, #1
 8003b30:	2300      	movs	r3, #0
 8003b32:	345c      	adds	r4, #92	@ 0x5c
 8003b34:	7023      	strb	r3, [r4, #0]
 8003b36:	bdfe      	pop	{r1, r2, r3, r4, r5, r6, r7, pc}
 8003b38:	2f00      	cmp	r7, #0
 8003b3a:	d0f8      	beq.n	8003b2e <HAL_SPI_TransmitReceive+0x46>
 8003b3c:	2e00      	cmp	r6, #0
 8003b3e:	d0f6      	beq.n	8003b2e <HAL_SPI_TransmitReceive+0x46>
 8003b40:	0023      	movs	r3, r4
 8003b42:	335d      	adds	r3, #93	@ 0x5d
 8003b44:	781a      	ldrb	r2, [r3, #0]
 8003b46:	2a04      	cmp	r2, #4
 8003b48:	d001      	beq.n	8003b4e <HAL_SPI_TransmitReceive+0x66>
 8003b4a:	2205      	movs	r2, #5
 8003b4c:	701a      	strb	r2, [r3, #0]
 8003b4e:	0022      	movs	r2, r4
 8003b50:	2300      	movs	r3, #0
 8003b52:	3208      	adds	r2, #8
 8003b54:	6623      	str	r3, [r4, #96]	@ 0x60
 8003b56:	6427      	str	r7, [r4, #64]	@ 0x40
 8003b58:	87d6      	strh	r6, [r2, #62]	@ 0x3e
 8003b5a:	1da2      	adds	r2, r4, #6
 8003b5c:	87d6      	strh	r6, [r2, #62]	@ 0x3e
 8003b5e:	22e0      	movs	r2, #224	@ 0xe0
 8003b60:	68e0      	ldr	r0, [r4, #12]
 8003b62:	64e3      	str	r3, [r4, #76]	@ 0x4c
 8003b64:	6523      	str	r3, [r4, #80]	@ 0x50
 8003b66:	63a5      	str	r5, [r4, #56]	@ 0x38
 8003b68:	6823      	ldr	r3, [r4, #0]
 8003b6a:	87e6      	strh	r6, [r4, #62]	@ 0x3e
 8003b6c:	87a6      	strh	r6, [r4, #60]	@ 0x3c
 8003b6e:	00d2      	lsls	r2, r2, #3
 8003b70:	4290      	cmp	r0, r2
 8003b72:	d935      	bls.n	8003be0 <HAL_SPI_TransmitReceive+0xf8>
 8003b74:	685a      	ldr	r2, [r3, #4]
 8003b76:	4f60      	ldr	r7, [pc, #384]	@ (8003cf8 <HAL_SPI_TransmitReceive+0x210>)
 8003b78:	403a      	ands	r2, r7
 8003b7a:	605a      	str	r2, [r3, #4]
 8003b7c:	2240      	movs	r2, #64	@ 0x40
 8003b7e:	681f      	ldr	r7, [r3, #0]
 8003b80:	4217      	tst	r7, r2
 8003b82:	d102      	bne.n	8003b8a <HAL_SPI_TransmitReceive+0xa2>
 8003b84:	681f      	ldr	r7, [r3, #0]
 8003b86:	433a      	orrs	r2, r7
 8003b88:	601a      	str	r2, [r3, #0]
 8003b8a:	22e0      	movs	r2, #224	@ 0xe0
 8003b8c:	00d2      	lsls	r2, r2, #3
 8003b8e:	4290      	cmp	r0, r2
 8003b90:	d961      	bls.n	8003c56 <HAL_SPI_TransmitReceive+0x16e>
 8003b92:	2900      	cmp	r1, #0
 8003b94:	d001      	beq.n	8003b9a <HAL_SPI_TransmitReceive+0xb2>
 8003b96:	2e01      	cmp	r6, #1
 8003b98:	d107      	bne.n	8003baa <HAL_SPI_TransmitReceive+0xc2>
 8003b9a:	882a      	ldrh	r2, [r5, #0]
 8003b9c:	3502      	adds	r5, #2
 8003b9e:	60da      	str	r2, [r3, #12]
 8003ba0:	8fe3      	ldrh	r3, [r4, #62]	@ 0x3e
 8003ba2:	63a5      	str	r5, [r4, #56]	@ 0x38
 8003ba4:	3b01      	subs	r3, #1
 8003ba6:	b29b      	uxth	r3, r3
 8003ba8:	87e3      	strh	r3, [r4, #62]	@ 0x3e
 8003baa:	2501      	movs	r5, #1
 8003bac:	2702      	movs	r7, #2
 8003bae:	002e      	movs	r6, r5
 8003bb0:	8fe3      	ldrh	r3, [r4, #62]	@ 0x3e
 8003bb2:	2b00      	cmp	r3, #0
 8003bb4:	d119      	bne.n	8003bea <HAL_SPI_TransmitReceive+0x102>
 8003bb6:	0023      	movs	r3, r4
 8003bb8:	3308      	adds	r3, #8
 8003bba:	8fdb      	ldrh	r3, [r3, #62]	@ 0x3e
 8003bbc:	2b00      	cmp	r3, #0
 8003bbe:	d114      	bne.n	8003bea <HAL_SPI_TransmitReceive+0x102>
 8003bc0:	0020      	movs	r0, r4
 8003bc2:	9a01      	ldr	r2, [sp, #4]
 8003bc4:	9908      	ldr	r1, [sp, #32]
 8003bc6:	f7ff fef3 	bl	80039b0 <SPI_EndRxTxTransaction>
 8003bca:	2800      	cmp	r0, #0
 8003bcc:	d000      	beq.n	8003bd0 <HAL_SPI_TransmitReceive+0xe8>
 8003bce:	e08e      	b.n	8003cee <HAL_SPI_TransmitReceive+0x206>
 8003bd0:	6e23      	ldr	r3, [r4, #96]	@ 0x60
 8003bd2:	2b00      	cmp	r3, #0
 8003bd4:	d1ab      	bne.n	8003b2e <HAL_SPI_TransmitReceive+0x46>
 8003bd6:	0023      	movs	r3, r4
 8003bd8:	2201      	movs	r2, #1
 8003bda:	335d      	adds	r3, #93	@ 0x5d
 8003bdc:	701a      	strb	r2, [r3, #0]
 8003bde:	e7a7      	b.n	8003b30 <HAL_SPI_TransmitReceive+0x48>
 8003be0:	2280      	movs	r2, #128	@ 0x80
 8003be2:	685f      	ldr	r7, [r3, #4]
 8003be4:	0152      	lsls	r2, r2, #5
 8003be6:	433a      	orrs	r2, r7
 8003be8:	e7c7      	b.n	8003b7a <HAL_SPI_TransmitReceive+0x92>
 8003bea:	6820      	ldr	r0, [r4, #0]
 8003bec:	6883      	ldr	r3, [r0, #8]
 8003bee:	423b      	tst	r3, r7
 8003bf0:	d00e      	beq.n	8003c10 <HAL_SPI_TransmitReceive+0x128>
 8003bf2:	8fe3      	ldrh	r3, [r4, #62]	@ 0x3e
 8003bf4:	2b00      	cmp	r3, #0
 8003bf6:	d00b      	beq.n	8003c10 <HAL_SPI_TransmitReceive+0x128>
 8003bf8:	2d01      	cmp	r5, #1
 8003bfa:	d108      	bne.n	8003c0e <HAL_SPI_TransmitReceive+0x126>
 8003bfc:	6ba3      	ldr	r3, [r4, #56]	@ 0x38
 8003bfe:	881a      	ldrh	r2, [r3, #0]
 8003c00:	3302      	adds	r3, #2
 8003c02:	60c2      	str	r2, [r0, #12]
 8003c04:	63a3      	str	r3, [r4, #56]	@ 0x38
 8003c06:	8fe3      	ldrh	r3, [r4, #62]	@ 0x3e
 8003c08:	3b01      	subs	r3, #1
 8003c0a:	b29b      	uxth	r3, r3
 8003c0c:	87e3      	strh	r3, [r4, #62]	@ 0x3e
 8003c0e:	2500      	movs	r5, #0
 8003c10:	6883      	ldr	r3, [r0, #8]
 8003c12:	0019      	movs	r1, r3
 8003c14:	4031      	ands	r1, r6
 8003c16:	4233      	tst	r3, r6
 8003c18:	d00e      	beq.n	8003c38 <HAL_SPI_TransmitReceive+0x150>
 8003c1a:	0022      	movs	r2, r4
 8003c1c:	3208      	adds	r2, #8
 8003c1e:	8fd3      	ldrh	r3, [r2, #62]	@ 0x3e
 8003c20:	2b00      	cmp	r3, #0
 8003c22:	d009      	beq.n	8003c38 <HAL_SPI_TransmitReceive+0x150>
 8003c24:	000d      	movs	r5, r1
 8003c26:	68c0      	ldr	r0, [r0, #12]
 8003c28:	6c23      	ldr	r3, [r4, #64]	@ 0x40
 8003c2a:	8018      	strh	r0, [r3, #0]
 8003c2c:	3302      	adds	r3, #2
 8003c2e:	6423      	str	r3, [r4, #64]	@ 0x40
 8003c30:	8fd3      	ldrh	r3, [r2, #62]	@ 0x3e
 8003c32:	3b01      	subs	r3, #1
 8003c34:	b29b      	uxth	r3, r3
 8003c36:	87d3      	strh	r3, [r2, #62]	@ 0x3e
 8003c38:	f7fe f900 	bl	8001e3c <HAL_GetTick>
 8003c3c:	9b01      	ldr	r3, [sp, #4]
 8003c3e:	1ac0      	subs	r0, r0, r3
 8003c40:	9b08      	ldr	r3, [sp, #32]
 8003c42:	4298      	cmp	r0, r3
 8003c44:	d3b4      	bcc.n	8003bb0 <HAL_SPI_TransmitReceive+0xc8>
 8003c46:	3301      	adds	r3, #1
 8003c48:	d0b2      	beq.n	8003bb0 <HAL_SPI_TransmitReceive+0xc8>
 8003c4a:	0023      	movs	r3, r4
 8003c4c:	2201      	movs	r2, #1
 8003c4e:	335d      	adds	r3, #93	@ 0x5d
 8003c50:	2003      	movs	r0, #3
 8003c52:	701a      	strb	r2, [r3, #0]
 8003c54:	e76c      	b.n	8003b30 <HAL_SPI_TransmitReceive+0x48>
 8003c56:	2900      	cmp	r1, #0
 8003c58:	d001      	beq.n	8003c5e <HAL_SPI_TransmitReceive+0x176>
 8003c5a:	2e01      	cmp	r6, #1
 8003c5c:	d108      	bne.n	8003c70 <HAL_SPI_TransmitReceive+0x188>
 8003c5e:	782a      	ldrb	r2, [r5, #0]
 8003c60:	731a      	strb	r2, [r3, #12]
 8003c62:	6ba3      	ldr	r3, [r4, #56]	@ 0x38
 8003c64:	3301      	adds	r3, #1
 8003c66:	63a3      	str	r3, [r4, #56]	@ 0x38
 8003c68:	8fe3      	ldrh	r3, [r4, #62]	@ 0x3e
 8003c6a:	3b01      	subs	r3, #1
 8003c6c:	b29b      	uxth	r3, r3
 8003c6e:	87e3      	strh	r3, [r4, #62]	@ 0x3e
 8003c70:	2501      	movs	r5, #1
 8003c72:	2702      	movs	r7, #2
 8003c74:	002e      	movs	r6, r5
 8003c76:	8fe3      	ldrh	r3, [r4, #62]	@ 0x3e
 8003c78:	2b00      	cmp	r3, #0
 8003c7a:	d104      	bne.n	8003c86 <HAL_SPI_TransmitReceive+0x19e>
 8003c7c:	0023      	movs	r3, r4
 8003c7e:	3308      	adds	r3, #8
 8003c80:	8fdb      	ldrh	r3, [r3, #62]	@ 0x3e
 8003c82:	2b00      	cmp	r3, #0
 8003c84:	d09c      	beq.n	8003bc0 <HAL_SPI_TransmitReceive+0xd8>
 8003c86:	6823      	ldr	r3, [r4, #0]
 8003c88:	689a      	ldr	r2, [r3, #8]
 8003c8a:	423a      	tst	r2, r7
 8003c8c:	d00f      	beq.n	8003cae <HAL_SPI_TransmitReceive+0x1c6>
 8003c8e:	8fe2      	ldrh	r2, [r4, #62]	@ 0x3e
 8003c90:	2a00      	cmp	r2, #0
 8003c92:	d00c      	beq.n	8003cae <HAL_SPI_TransmitReceive+0x1c6>
 8003c94:	2d01      	cmp	r5, #1
 8003c96:	d109      	bne.n	8003cac <HAL_SPI_TransmitReceive+0x1c4>
 8003c98:	6ba2      	ldr	r2, [r4, #56]	@ 0x38
 8003c9a:	7812      	ldrb	r2, [r2, #0]
 8003c9c:	731a      	strb	r2, [r3, #12]
 8003c9e:	6ba3      	ldr	r3, [r4, #56]	@ 0x38
 8003ca0:	3301      	adds	r3, #1
 8003ca2:	63a3      	str	r3, [r4, #56]	@ 0x38
 8003ca4:	8fe3      	ldrh	r3, [r4, #62]	@ 0x3e
 8003ca6:	3b01      	subs	r3, #1
 8003ca8:	b29b      	uxth	r3, r3
 8003caa:	87e3      	strh	r3, [r4, #62]	@ 0x3e
 8003cac:	2500      	movs	r5, #0
 8003cae:	6823      	ldr	r3, [r4, #0]
 8003cb0:	689a      	ldr	r2, [r3, #8]
 8003cb2:	0011      	movs	r1, r2
 8003cb4:	4031      	ands	r1, r6
 8003cb6:	4232      	tst	r2, r6
 8003cb8:	d00f      	beq.n	8003cda <HAL_SPI_TransmitReceive+0x1f2>
 8003cba:	0022      	movs	r2, r4
 8003cbc:	3208      	adds	r2, #8
 8003cbe:	8fd0      	ldrh	r0, [r2, #62]	@ 0x3e
 8003cc0:	2800      	cmp	r0, #0
 8003cc2:	d00a      	beq.n	8003cda <HAL_SPI_TransmitReceive+0x1f2>
 8003cc4:	000d      	movs	r5, r1
 8003cc6:	7b1b      	ldrb	r3, [r3, #12]
 8003cc8:	6c20      	ldr	r0, [r4, #64]	@ 0x40
 8003cca:	7003      	strb	r3, [r0, #0]
 8003ccc:	6c23      	ldr	r3, [r4, #64]	@ 0x40
 8003cce:	3301      	adds	r3, #1
 8003cd0:	6423      	str	r3, [r4, #64]	@ 0x40
 8003cd2:	8fd3      	ldrh	r3, [r2, #62]	@ 0x3e
 8003cd4:	3b01      	subs	r3, #1
 8003cd6:	b29b      	uxth	r3, r3
 8003cd8:	87d3      	strh	r3, [r2, #62]	@ 0x3e
 8003cda:	f7fe f8af 	bl	8001e3c <HAL_GetTick>
 8003cde:	9b01      	ldr	r3, [sp, #4]
 8003ce0:	1ac0      	subs	r0, r0, r3
 8003ce2:	9b08      	ldr	r3, [sp, #32]
 8003ce4:	4298      	cmp	r0, r3
 8003ce6:	d3c6      	bcc.n	8003c76 <HAL_SPI_TransmitReceive+0x18e>
 8003ce8:	3301      	adds	r3, #1
 8003cea:	d0c4      	beq.n	8003c76 <HAL_SPI_TransmitReceive+0x18e>
 8003cec:	e7ad      	b.n	8003c4a <HAL_SPI_TransmitReceive+0x162>
 8003cee:	2320      	movs	r3, #32
 8003cf0:	2001      	movs	r0, #1
 8003cf2:	6623      	str	r3, [r4, #96]	@ 0x60
 8003cf4:	e76c      	b.n	8003bd0 <HAL_SPI_TransmitReceive+0xe8>
 8003cf6:	46c0      	nop			@ (mov r8, r8)
 8003cf8:	ffffefff 	.word	0xffffefff

08003cfc <TIM_OC1_SetConfig>:
 8003cfc:	2201      	movs	r2, #1
 8003cfe:	6a03      	ldr	r3, [r0, #32]
 8003d00:	b570      	push	{r4, r5, r6, lr}
 8003d02:	4393      	bics	r3, r2
 8003d04:	6203      	str	r3, [r0, #32]
 8003d06:	6a03      	ldr	r3, [r0, #32]
 8003d08:	6844      	ldr	r4, [r0, #4]
 8003d0a:	6985      	ldr	r5, [r0, #24]
 8003d0c:	3272      	adds	r2, #114	@ 0x72
 8003d0e:	4395      	bics	r5, r2
 8003d10:	680a      	ldr	r2, [r1, #0]
 8003d12:	4315      	orrs	r5, r2
 8003d14:	2202      	movs	r2, #2
 8003d16:	4393      	bics	r3, r2
 8003d18:	688a      	ldr	r2, [r1, #8]
 8003d1a:	4313      	orrs	r3, r2
 8003d1c:	4a0d      	ldr	r2, [pc, #52]	@ (8003d54 <TIM_OC1_SetConfig+0x58>)
 8003d1e:	4290      	cmp	r0, r2
 8003d20:	d005      	beq.n	8003d2e <TIM_OC1_SetConfig+0x32>
 8003d22:	4a0d      	ldr	r2, [pc, #52]	@ (8003d58 <TIM_OC1_SetConfig+0x5c>)
 8003d24:	4290      	cmp	r0, r2
 8003d26:	d002      	beq.n	8003d2e <TIM_OC1_SetConfig+0x32>
 8003d28:	4a0c      	ldr	r2, [pc, #48]	@ (8003d5c <TIM_OC1_SetConfig+0x60>)
 8003d2a:	4290      	cmp	r0, r2
 8003d2c:	d10b      	bne.n	8003d46 <TIM_OC1_SetConfig+0x4a>
 8003d2e:	2208      	movs	r2, #8
 8003d30:	4393      	bics	r3, r2
 8003d32:	68ca      	ldr	r2, [r1, #12]
 8003d34:	698e      	ldr	r6, [r1, #24]
 8003d36:	4313      	orrs	r3, r2
 8003d38:	2204      	movs	r2, #4
 8003d3a:	4393      	bics	r3, r2
 8003d3c:	4a08      	ldr	r2, [pc, #32]	@ (8003d60 <TIM_OC1_SetConfig+0x64>)
 8003d3e:	4022      	ands	r2, r4
 8003d40:	694c      	ldr	r4, [r1, #20]
 8003d42:	4334      	orrs	r4, r6
 8003d44:	4314      	orrs	r4, r2
 8003d46:	684a      	ldr	r2, [r1, #4]
 8003d48:	6044      	str	r4, [r0, #4]
 8003d4a:	6185      	str	r5, [r0, #24]
 8003d4c:	6342      	str	r2, [r0, #52]	@ 0x34
 8003d4e:	6203      	str	r3, [r0, #32]
 8003d50:	bd70      	pop	{r4, r5, r6, pc}
 8003d52:	46c0      	nop			@ (mov r8, r8)
 8003d54:	40012c00 	.word	0x40012c00
 8003d58:	40014400 	.word	0x40014400
 8003d5c:	40014800 	.word	0x40014800
 8003d60:	fffffcff 	.word	0xfffffcff

08003d64 <TIM_OC3_SetConfig>:
 8003d64:	6a03      	ldr	r3, [r0, #32]
 8003d66:	4a17      	ldr	r2, [pc, #92]	@ (8003dc4 <TIM_OC3_SetConfig+0x60>)
 8003d68:	b570      	push	{r4, r5, r6, lr}
 8003d6a:	4013      	ands	r3, r2
 8003d6c:	6203      	str	r3, [r0, #32]
 8003d6e:	2373      	movs	r3, #115	@ 0x73
 8003d70:	6a05      	ldr	r5, [r0, #32]
 8003d72:	6842      	ldr	r2, [r0, #4]
 8003d74:	69c4      	ldr	r4, [r0, #28]
 8003d76:	439c      	bics	r4, r3
 8003d78:	680b      	ldr	r3, [r1, #0]
 8003d7a:	431c      	orrs	r4, r3
 8003d7c:	4b12      	ldr	r3, [pc, #72]	@ (8003dc8 <TIM_OC3_SetConfig+0x64>)
 8003d7e:	401d      	ands	r5, r3
 8003d80:	688b      	ldr	r3, [r1, #8]
 8003d82:	021b      	lsls	r3, r3, #8
 8003d84:	432b      	orrs	r3, r5
 8003d86:	4d11      	ldr	r5, [pc, #68]	@ (8003dcc <TIM_OC3_SetConfig+0x68>)
 8003d88:	42a8      	cmp	r0, r5
 8003d8a:	d10e      	bne.n	8003daa <TIM_OC3_SetConfig+0x46>
 8003d8c:	4d10      	ldr	r5, [pc, #64]	@ (8003dd0 <TIM_OC3_SetConfig+0x6c>)
 8003d8e:	401d      	ands	r5, r3
 8003d90:	68cb      	ldr	r3, [r1, #12]
 8003d92:	021b      	lsls	r3, r3, #8
 8003d94:	432b      	orrs	r3, r5
 8003d96:	4d0f      	ldr	r5, [pc, #60]	@ (8003dd4 <TIM_OC3_SetConfig+0x70>)
 8003d98:	402b      	ands	r3, r5
 8003d9a:	4d0f      	ldr	r5, [pc, #60]	@ (8003dd8 <TIM_OC3_SetConfig+0x74>)
 8003d9c:	698e      	ldr	r6, [r1, #24]
 8003d9e:	4015      	ands	r5, r2
 8003da0:	694a      	ldr	r2, [r1, #20]
 8003da2:	4332      	orrs	r2, r6
 8003da4:	0112      	lsls	r2, r2, #4
 8003da6:	432a      	orrs	r2, r5
 8003da8:	e005      	b.n	8003db6 <TIM_OC3_SetConfig+0x52>
 8003daa:	4d0c      	ldr	r5, [pc, #48]	@ (8003ddc <TIM_OC3_SetConfig+0x78>)
 8003dac:	42a8      	cmp	r0, r5
 8003dae:	d0f4      	beq.n	8003d9a <TIM_OC3_SetConfig+0x36>
 8003db0:	4d0b      	ldr	r5, [pc, #44]	@ (8003de0 <TIM_OC3_SetConfig+0x7c>)
 8003db2:	42a8      	cmp	r0, r5
 8003db4:	d0f1      	beq.n	8003d9a <TIM_OC3_SetConfig+0x36>
 8003db6:	6042      	str	r2, [r0, #4]
 8003db8:	684a      	ldr	r2, [r1, #4]
 8003dba:	61c4      	str	r4, [r0, #28]
 8003dbc:	63c2      	str	r2, [r0, #60]	@ 0x3c
 8003dbe:	6203      	str	r3, [r0, #32]
 8003dc0:	bd70      	pop	{r4, r5, r6, pc}
 8003dc2:	46c0      	nop			@ (mov r8, r8)
 8003dc4:	fffffeff 	.word	0xfffffeff
 8003dc8:	fffffdff 	.word	0xfffffdff
 8003dcc:	40012c00 	.word	0x40012c00
 8003dd0:	fffff7ff 	.word	0xfffff7ff
 8003dd4:	fffffbff 	.word	0xfffffbff
 8003dd8:	ffffcfff 	.word	0xffffcfff
 8003ddc:	40014400 	.word	0x40014400
 8003de0:	40014800 	.word	0x40014800

08003de4 <TIM_OC4_SetConfig>:
 8003de4:	6a03      	ldr	r3, [r0, #32]
 8003de6:	4a12      	ldr	r2, [pc, #72]	@ (8003e30 <TIM_OC4_SetConfig+0x4c>)
 8003de8:	b530      	push	{r4, r5, lr}
 8003dea:	4013      	ands	r3, r2
 8003dec:	6203      	str	r3, [r0, #32]
 8003dee:	6a04      	ldr	r4, [r0, #32]
 8003df0:	4d10      	ldr	r5, [pc, #64]	@ (8003e34 <TIM_OC4_SetConfig+0x50>)
 8003df2:	6843      	ldr	r3, [r0, #4]
 8003df4:	69c2      	ldr	r2, [r0, #28]
 8003df6:	402a      	ands	r2, r5
 8003df8:	680d      	ldr	r5, [r1, #0]
 8003dfa:	022d      	lsls	r5, r5, #8
 8003dfc:	4315      	orrs	r5, r2
 8003dfe:	4a0e      	ldr	r2, [pc, #56]	@ (8003e38 <TIM_OC4_SetConfig+0x54>)
 8003e00:	4014      	ands	r4, r2
 8003e02:	688a      	ldr	r2, [r1, #8]
 8003e04:	0312      	lsls	r2, r2, #12
 8003e06:	4322      	orrs	r2, r4
 8003e08:	4c0c      	ldr	r4, [pc, #48]	@ (8003e3c <TIM_OC4_SetConfig+0x58>)
 8003e0a:	42a0      	cmp	r0, r4
 8003e0c:	d005      	beq.n	8003e1a <TIM_OC4_SetConfig+0x36>
 8003e0e:	4c0c      	ldr	r4, [pc, #48]	@ (8003e40 <TIM_OC4_SetConfig+0x5c>)
 8003e10:	42a0      	cmp	r0, r4
 8003e12:	d002      	beq.n	8003e1a <TIM_OC4_SetConfig+0x36>
 8003e14:	4c0b      	ldr	r4, [pc, #44]	@ (8003e44 <TIM_OC4_SetConfig+0x60>)
 8003e16:	42a0      	cmp	r0, r4
 8003e18:	d104      	bne.n	8003e24 <TIM_OC4_SetConfig+0x40>
 8003e1a:	4c0b      	ldr	r4, [pc, #44]	@ (8003e48 <TIM_OC4_SetConfig+0x64>)
 8003e1c:	401c      	ands	r4, r3
 8003e1e:	694b      	ldr	r3, [r1, #20]
 8003e20:	019b      	lsls	r3, r3, #6
 8003e22:	4323      	orrs	r3, r4
 8003e24:	6043      	str	r3, [r0, #4]
 8003e26:	684b      	ldr	r3, [r1, #4]
 8003e28:	61c5      	str	r5, [r0, #28]
 8003e2a:	6403      	str	r3, [r0, #64]	@ 0x40
 8003e2c:	6202      	str	r2, [r0, #32]
 8003e2e:	bd30      	pop	{r4, r5, pc}
 8003e30:	ffffefff 	.word	0xffffefff
 8003e34:	ffff8cff 	.word	0xffff8cff
 8003e38:	ffffdfff 	.word	0xffffdfff
 8003e3c:	40012c00 	.word	0x40012c00
 8003e40:	40014400 	.word	0x40014400
 8003e44:	40014800 	.word	0x40014800
 8003e48:	ffffbfff 	.word	0xffffbfff

08003e4c <HAL_TIM_Base_Start_IT>:
 8003e4c:	0001      	movs	r1, r0
 8003e4e:	0003      	movs	r3, r0
 8003e50:	2001      	movs	r0, #1
 8003e52:	b510      	push	{r4, lr}
 8003e54:	313d      	adds	r1, #61	@ 0x3d
 8003e56:	780c      	ldrb	r4, [r1, #0]
 8003e58:	b2e2      	uxtb	r2, r4
 8003e5a:	4284      	cmp	r4, r0
 8003e5c:	d119      	bne.n	8003e92 <HAL_TIM_Base_Start_IT+0x46>
 8003e5e:	1800      	adds	r0, r0, r0
 8003e60:	7008      	strb	r0, [r1, #0]
 8003e62:	681b      	ldr	r3, [r3, #0]
 8003e64:	68d9      	ldr	r1, [r3, #12]
 8003e66:	4311      	orrs	r1, r2
 8003e68:	60d9      	str	r1, [r3, #12]
 8003e6a:	490b      	ldr	r1, [pc, #44]	@ (8003e98 <HAL_TIM_Base_Start_IT+0x4c>)
 8003e6c:	428b      	cmp	r3, r1
 8003e6e:	d006      	beq.n	8003e7e <HAL_TIM_Base_Start_IT+0x32>
 8003e70:	2180      	movs	r1, #128	@ 0x80
 8003e72:	05c9      	lsls	r1, r1, #23
 8003e74:	428b      	cmp	r3, r1
 8003e76:	d002      	beq.n	8003e7e <HAL_TIM_Base_Start_IT+0x32>
 8003e78:	4908      	ldr	r1, [pc, #32]	@ (8003e9c <HAL_TIM_Base_Start_IT+0x50>)
 8003e7a:	428b      	cmp	r3, r1
 8003e7c:	d10a      	bne.n	8003e94 <HAL_TIM_Base_Start_IT+0x48>
 8003e7e:	2107      	movs	r1, #7
 8003e80:	689a      	ldr	r2, [r3, #8]
 8003e82:	400a      	ands	r2, r1
 8003e84:	2a06      	cmp	r2, #6
 8003e86:	d003      	beq.n	8003e90 <HAL_TIM_Base_Start_IT+0x44>
 8003e88:	2201      	movs	r2, #1
 8003e8a:	6819      	ldr	r1, [r3, #0]
 8003e8c:	430a      	orrs	r2, r1
 8003e8e:	601a      	str	r2, [r3, #0]
 8003e90:	2000      	movs	r0, #0
 8003e92:	bd10      	pop	{r4, pc}
 8003e94:	6819      	ldr	r1, [r3, #0]
 8003e96:	e7f9      	b.n	8003e8c <HAL_TIM_Base_Start_IT+0x40>
 8003e98:	40012c00 	.word	0x40012c00
 8003e9c:	40000400 	.word	0x40000400

08003ea0 <HAL_TIM_Base_Stop_IT>:
 8003ea0:	2101      	movs	r1, #1
 8003ea2:	6803      	ldr	r3, [r0, #0]
 8003ea4:	b510      	push	{r4, lr}
 8003ea6:	68da      	ldr	r2, [r3, #12]
 8003ea8:	438a      	bics	r2, r1
 8003eaa:	60da      	str	r2, [r3, #12]
 8003eac:	6a1c      	ldr	r4, [r3, #32]
 8003eae:	4a07      	ldr	r2, [pc, #28]	@ (8003ecc <HAL_TIM_Base_Stop_IT+0x2c>)
 8003eb0:	4214      	tst	r4, r2
 8003eb2:	d106      	bne.n	8003ec2 <HAL_TIM_Base_Stop_IT+0x22>
 8003eb4:	6a1c      	ldr	r4, [r3, #32]
 8003eb6:	4a06      	ldr	r2, [pc, #24]	@ (8003ed0 <HAL_TIM_Base_Stop_IT+0x30>)
 8003eb8:	4214      	tst	r4, r2
 8003eba:	d102      	bne.n	8003ec2 <HAL_TIM_Base_Stop_IT+0x22>
 8003ebc:	681a      	ldr	r2, [r3, #0]
 8003ebe:	438a      	bics	r2, r1
 8003ec0:	601a      	str	r2, [r3, #0]
 8003ec2:	2301      	movs	r3, #1
 8003ec4:	303d      	adds	r0, #61	@ 0x3d
 8003ec6:	7003      	strb	r3, [r0, #0]
 8003ec8:	2000      	movs	r0, #0
 8003eca:	bd10      	pop	{r4, pc}
 8003ecc:	00001111 	.word	0x00001111
 8003ed0:	00000444 	.word	0x00000444

08003ed4 <HAL_TIM_PWM_MspInit>:
 8003ed4:	4770      	bx	lr
	...

08003ed8 <TIM_Base_SetConfig>:
 8003ed8:	b510      	push	{r4, lr}
 8003eda:	4c19      	ldr	r4, [pc, #100]	@ (8003f40 <TIM_Base_SetConfig+0x68>)
 8003edc:	6803      	ldr	r3, [r0, #0]
 8003ede:	42a0      	cmp	r0, r4
 8003ee0:	d006      	beq.n	8003ef0 <TIM_Base_SetConfig+0x18>
 8003ee2:	2280      	movs	r2, #128	@ 0x80
 8003ee4:	05d2      	lsls	r2, r2, #23
 8003ee6:	4290      	cmp	r0, r2
 8003ee8:	d002      	beq.n	8003ef0 <TIM_Base_SetConfig+0x18>
 8003eea:	4a16      	ldr	r2, [pc, #88]	@ (8003f44 <TIM_Base_SetConfig+0x6c>)
 8003eec:	4290      	cmp	r0, r2
 8003eee:	d108      	bne.n	8003f02 <TIM_Base_SetConfig+0x2a>
 8003ef0:	2270      	movs	r2, #112	@ 0x70
 8003ef2:	4393      	bics	r3, r2
 8003ef4:	684a      	ldr	r2, [r1, #4]
 8003ef6:	4313      	orrs	r3, r2
 8003ef8:	4a13      	ldr	r2, [pc, #76]	@ (8003f48 <TIM_Base_SetConfig+0x70>)
 8003efa:	401a      	ands	r2, r3
 8003efc:	68cb      	ldr	r3, [r1, #12]
 8003efe:	4313      	orrs	r3, r2
 8003f00:	e008      	b.n	8003f14 <TIM_Base_SetConfig+0x3c>
 8003f02:	4a12      	ldr	r2, [pc, #72]	@ (8003f4c <TIM_Base_SetConfig+0x74>)
 8003f04:	4290      	cmp	r0, r2
 8003f06:	d0f7      	beq.n	8003ef8 <TIM_Base_SetConfig+0x20>
 8003f08:	4a11      	ldr	r2, [pc, #68]	@ (8003f50 <TIM_Base_SetConfig+0x78>)
 8003f0a:	4290      	cmp	r0, r2
 8003f0c:	d0f4      	beq.n	8003ef8 <TIM_Base_SetConfig+0x20>
 8003f0e:	4a11      	ldr	r2, [pc, #68]	@ (8003f54 <TIM_Base_SetConfig+0x7c>)
 8003f10:	4290      	cmp	r0, r2
 8003f12:	d0f1      	beq.n	8003ef8 <TIM_Base_SetConfig+0x20>
 8003f14:	2280      	movs	r2, #128	@ 0x80
 8003f16:	4393      	bics	r3, r2
 8003f18:	694a      	ldr	r2, [r1, #20]
 8003f1a:	4313      	orrs	r3, r2
 8003f1c:	6003      	str	r3, [r0, #0]
 8003f1e:	688b      	ldr	r3, [r1, #8]
 8003f20:	62c3      	str	r3, [r0, #44]	@ 0x2c
 8003f22:	680b      	ldr	r3, [r1, #0]
 8003f24:	6283      	str	r3, [r0, #40]	@ 0x28
 8003f26:	42a0      	cmp	r0, r4
 8003f28:	d005      	beq.n	8003f36 <TIM_Base_SetConfig+0x5e>
 8003f2a:	4b09      	ldr	r3, [pc, #36]	@ (8003f50 <TIM_Base_SetConfig+0x78>)
 8003f2c:	4298      	cmp	r0, r3
 8003f2e:	d002      	beq.n	8003f36 <TIM_Base_SetConfig+0x5e>
 8003f30:	4b08      	ldr	r3, [pc, #32]	@ (8003f54 <TIM_Base_SetConfig+0x7c>)
 8003f32:	4298      	cmp	r0, r3
 8003f34:	d101      	bne.n	8003f3a <TIM_Base_SetConfig+0x62>
 8003f36:	690b      	ldr	r3, [r1, #16]
 8003f38:	6303      	str	r3, [r0, #48]	@ 0x30
 8003f3a:	2301      	movs	r3, #1
 8003f3c:	6143      	str	r3, [r0, #20]
 8003f3e:	bd10      	pop	{r4, pc}
 8003f40:	40012c00 	.word	0x40012c00
 8003f44:	40000400 	.word	0x40000400
 8003f48:	fffffcff 	.word	0xfffffcff
 8003f4c:	40002000 	.word	0x40002000
 8003f50:	40014400 	.word	0x40014400
 8003f54:	40014800 	.word	0x40014800

08003f58 <HAL_TIM_Base_Init>:
 8003f58:	b570      	push	{r4, r5, r6, lr}
 8003f5a:	0004      	movs	r4, r0
 8003f5c:	2001      	movs	r0, #1
 8003f5e:	2c00      	cmp	r4, #0
 8003f60:	d021      	beq.n	8003fa6 <HAL_TIM_Base_Init+0x4e>
 8003f62:	0025      	movs	r5, r4
 8003f64:	353d      	adds	r5, #61	@ 0x3d
 8003f66:	782b      	ldrb	r3, [r5, #0]
 8003f68:	b2da      	uxtb	r2, r3
 8003f6a:	2b00      	cmp	r3, #0
 8003f6c:	d105      	bne.n	8003f7a <HAL_TIM_Base_Init+0x22>
 8003f6e:	0023      	movs	r3, r4
 8003f70:	333c      	adds	r3, #60	@ 0x3c
 8003f72:	0020      	movs	r0, r4
 8003f74:	701a      	strb	r2, [r3, #0]
 8003f76:	f7fd fe5d 	bl	8001c34 <HAL_TIM_Base_MspInit>
 8003f7a:	2302      	movs	r3, #2
 8003f7c:	702b      	strb	r3, [r5, #0]
 8003f7e:	6820      	ldr	r0, [r4, #0]
 8003f80:	1d21      	adds	r1, r4, #4
 8003f82:	f7ff ffa9 	bl	8003ed8 <TIM_Base_SetConfig>
 8003f86:	0022      	movs	r2, r4
 8003f88:	2301      	movs	r3, #1
 8003f8a:	2000      	movs	r0, #0
 8003f8c:	3246      	adds	r2, #70	@ 0x46
 8003f8e:	7013      	strb	r3, [r2, #0]
 8003f90:	3445      	adds	r4, #69	@ 0x45
 8003f92:	3a08      	subs	r2, #8
 8003f94:	7013      	strb	r3, [r2, #0]
 8003f96:	7053      	strb	r3, [r2, #1]
 8003f98:	7093      	strb	r3, [r2, #2]
 8003f9a:	70d3      	strb	r3, [r2, #3]
 8003f9c:	7113      	strb	r3, [r2, #4]
 8003f9e:	7153      	strb	r3, [r2, #5]
 8003fa0:	7193      	strb	r3, [r2, #6]
 8003fa2:	7023      	strb	r3, [r4, #0]
 8003fa4:	702b      	strb	r3, [r5, #0]
 8003fa6:	bd70      	pop	{r4, r5, r6, pc}

08003fa8 <HAL_TIM_PWM_Init>:
 8003fa8:	b570      	push	{r4, r5, r6, lr}
 8003faa:	0004      	movs	r4, r0
 8003fac:	2001      	movs	r0, #1
 8003fae:	2c00      	cmp	r4, #0
 8003fb0:	d021      	beq.n	8003ff6 <HAL_TIM_PWM_Init+0x4e>
 8003fb2:	0025      	movs	r5, r4
 8003fb4:	353d      	adds	r5, #61	@ 0x3d
 8003fb6:	782b      	ldrb	r3, [r5, #0]
 8003fb8:	b2da      	uxtb	r2, r3
 8003fba:	2b00      	cmp	r3, #0
 8003fbc:	d105      	bne.n	8003fca <HAL_TIM_PWM_Init+0x22>
 8003fbe:	0023      	movs	r3, r4
 8003fc0:	333c      	adds	r3, #60	@ 0x3c
 8003fc2:	0020      	movs	r0, r4
 8003fc4:	701a      	strb	r2, [r3, #0]
 8003fc6:	f7ff ff85 	bl	8003ed4 <HAL_TIM_PWM_MspInit>
 8003fca:	2302      	movs	r3, #2
 8003fcc:	702b      	strb	r3, [r5, #0]
 8003fce:	6820      	ldr	r0, [r4, #0]
 8003fd0:	1d21      	adds	r1, r4, #4
 8003fd2:	f7ff ff81 	bl	8003ed8 <TIM_Base_SetConfig>
 8003fd6:	0022      	movs	r2, r4
 8003fd8:	2301      	movs	r3, #1
 8003fda:	2000      	movs	r0, #0
 8003fdc:	3246      	adds	r2, #70	@ 0x46
 8003fde:	7013      	strb	r3, [r2, #0]
 8003fe0:	3445      	adds	r4, #69	@ 0x45
 8003fe2:	3a08      	subs	r2, #8
 8003fe4:	7013      	strb	r3, [r2, #0]
 8003fe6:	7053      	strb	r3, [r2, #1]
 8003fe8:	7093      	strb	r3, [r2, #2]
 8003fea:	70d3      	strb	r3, [r2, #3]
 8003fec:	7113      	strb	r3, [r2, #4]
 8003fee:	7153      	strb	r3, [r2, #5]
 8003ff0:	7193      	strb	r3, [r2, #6]
 8003ff2:	7023      	strb	r3, [r4, #0]
 8003ff4:	702b      	strb	r3, [r5, #0]
 8003ff6:	bd70      	pop	{r4, r5, r6, pc}

08003ff8 <TIM_OC2_SetConfig>:
 8003ff8:	2210      	movs	r2, #16
 8003ffa:	6a03      	ldr	r3, [r0, #32]
 8003ffc:	b570      	push	{r4, r5, r6, lr}
 8003ffe:	4393      	bics	r3, r2
 8004000:	6203      	str	r3, [r0, #32]
 8004002:	6a05      	ldr	r5, [r0, #32]
 8004004:	4c15      	ldr	r4, [pc, #84]	@ (800405c <TIM_OC2_SetConfig+0x64>)
 8004006:	6842      	ldr	r2, [r0, #4]
 8004008:	6983      	ldr	r3, [r0, #24]
 800400a:	4023      	ands	r3, r4
 800400c:	680c      	ldr	r4, [r1, #0]
 800400e:	0224      	lsls	r4, r4, #8
 8004010:	431c      	orrs	r4, r3
 8004012:	2320      	movs	r3, #32
 8004014:	439d      	bics	r5, r3
 8004016:	688b      	ldr	r3, [r1, #8]
 8004018:	011b      	lsls	r3, r3, #4
 800401a:	432b      	orrs	r3, r5
 800401c:	4d10      	ldr	r5, [pc, #64]	@ (8004060 <TIM_OC2_SetConfig+0x68>)
 800401e:	42a8      	cmp	r0, r5
 8004020:	d10f      	bne.n	8004042 <TIM_OC2_SetConfig+0x4a>
 8004022:	2580      	movs	r5, #128	@ 0x80
 8004024:	43ab      	bics	r3, r5
 8004026:	001e      	movs	r6, r3
 8004028:	68cb      	ldr	r3, [r1, #12]
 800402a:	3d40      	subs	r5, #64	@ 0x40
 800402c:	011b      	lsls	r3, r3, #4
 800402e:	4333      	orrs	r3, r6
 8004030:	43ab      	bics	r3, r5
 8004032:	4d0c      	ldr	r5, [pc, #48]	@ (8004064 <TIM_OC2_SetConfig+0x6c>)
 8004034:	698e      	ldr	r6, [r1, #24]
 8004036:	4015      	ands	r5, r2
 8004038:	694a      	ldr	r2, [r1, #20]
 800403a:	4332      	orrs	r2, r6
 800403c:	0092      	lsls	r2, r2, #2
 800403e:	432a      	orrs	r2, r5
 8004040:	e005      	b.n	800404e <TIM_OC2_SetConfig+0x56>
 8004042:	4d09      	ldr	r5, [pc, #36]	@ (8004068 <TIM_OC2_SetConfig+0x70>)
 8004044:	42a8      	cmp	r0, r5
 8004046:	d0f4      	beq.n	8004032 <TIM_OC2_SetConfig+0x3a>
 8004048:	4d08      	ldr	r5, [pc, #32]	@ (800406c <TIM_OC2_SetConfig+0x74>)
 800404a:	42a8      	cmp	r0, r5
 800404c:	d0f1      	beq.n	8004032 <TIM_OC2_SetConfig+0x3a>
 800404e:	6042      	str	r2, [r0, #4]
 8004050:	684a      	ldr	r2, [r1, #4]
 8004052:	6184      	str	r4, [r0, #24]
 8004054:	6382      	str	r2, [r0, #56]	@ 0x38
 8004056:	6203      	str	r3, [r0, #32]
 8004058:	bd70      	pop	{r4, r5, r6, pc}
 800405a:	46c0      	nop			@ (mov r8, r8)
 800405c:	ffff8cff 	.word	0xffff8cff
 8004060:	40012c00 	.word	0x40012c00
 8004064:	fffff3ff 	.word	0xfffff3ff
 8004068:	40014400 	.word	0x40014400
 800406c:	40014800 	.word	0x40014800

08004070 <HAL_TIM_PWM_ConfigChannel>:
 8004070:	b5f8      	push	{r3, r4, r5, r6, r7, lr}
 8004072:	0006      	movs	r6, r0
 8004074:	363c      	adds	r6, #60	@ 0x3c
 8004076:	0015      	movs	r5, r2
 8004078:	7832      	ldrb	r2, [r6, #0]
 800407a:	0003      	movs	r3, r0
 800407c:	000c      	movs	r4, r1
 800407e:	2002      	movs	r0, #2
 8004080:	2a01      	cmp	r2, #1
 8004082:	d00a      	beq.n	800409a <HAL_TIM_PWM_ConfigChannel+0x2a>
 8004084:	3801      	subs	r0, #1
 8004086:	7030      	strb	r0, [r6, #0]
 8004088:	2d08      	cmp	r5, #8
 800408a:	d03f      	beq.n	800410c <HAL_TIM_PWM_ConfigChannel+0x9c>
 800408c:	d806      	bhi.n	800409c <HAL_TIM_PWM_ConfigChannel+0x2c>
 800408e:	2d00      	cmp	r5, #0
 8004090:	d019      	beq.n	80040c6 <HAL_TIM_PWM_ConfigChannel+0x56>
 8004092:	2d04      	cmp	r5, #4
 8004094:	d029      	beq.n	80040ea <HAL_TIM_PWM_ConfigChannel+0x7a>
 8004096:	2300      	movs	r3, #0
 8004098:	7033      	strb	r3, [r6, #0]
 800409a:	bdf8      	pop	{r3, r4, r5, r6, r7, pc}
 800409c:	2d0c      	cmp	r5, #12
 800409e:	d1fa      	bne.n	8004096 <HAL_TIM_PWM_ConfigChannel+0x26>
 80040a0:	681d      	ldr	r5, [r3, #0]
 80040a2:	0028      	movs	r0, r5
 80040a4:	f7ff fe9e 	bl	8003de4 <TIM_OC4_SetConfig>
 80040a8:	2380      	movs	r3, #128	@ 0x80
 80040aa:	69ea      	ldr	r2, [r5, #28]
 80040ac:	011b      	lsls	r3, r3, #4
 80040ae:	4313      	orrs	r3, r2
 80040b0:	61eb      	str	r3, [r5, #28]
 80040b2:	69eb      	ldr	r3, [r5, #28]
 80040b4:	4a1d      	ldr	r2, [pc, #116]	@ (800412c <HAL_TIM_PWM_ConfigChannel+0xbc>)
 80040b6:	4013      	ands	r3, r2
 80040b8:	61eb      	str	r3, [r5, #28]
 80040ba:	6923      	ldr	r3, [r4, #16]
 80040bc:	69ea      	ldr	r2, [r5, #28]
 80040be:	021b      	lsls	r3, r3, #8
 80040c0:	4313      	orrs	r3, r2
 80040c2:	61eb      	str	r3, [r5, #28]
 80040c4:	e00f      	b.n	80040e6 <HAL_TIM_PWM_ConfigChannel+0x76>
 80040c6:	681d      	ldr	r5, [r3, #0]
 80040c8:	0028      	movs	r0, r5
 80040ca:	f7ff fe17 	bl	8003cfc <TIM_OC1_SetConfig>
 80040ce:	2308      	movs	r3, #8
 80040d0:	69aa      	ldr	r2, [r5, #24]
 80040d2:	4313      	orrs	r3, r2
 80040d4:	2204      	movs	r2, #4
 80040d6:	61ab      	str	r3, [r5, #24]
 80040d8:	69ab      	ldr	r3, [r5, #24]
 80040da:	4393      	bics	r3, r2
 80040dc:	61ab      	str	r3, [r5, #24]
 80040de:	69ab      	ldr	r3, [r5, #24]
 80040e0:	6922      	ldr	r2, [r4, #16]
 80040e2:	4313      	orrs	r3, r2
 80040e4:	61ab      	str	r3, [r5, #24]
 80040e6:	2000      	movs	r0, #0
 80040e8:	e7d5      	b.n	8004096 <HAL_TIM_PWM_ConfigChannel+0x26>
 80040ea:	681d      	ldr	r5, [r3, #0]
 80040ec:	0028      	movs	r0, r5
 80040ee:	f7ff ff83 	bl	8003ff8 <TIM_OC2_SetConfig>
 80040f2:	2380      	movs	r3, #128	@ 0x80
 80040f4:	69aa      	ldr	r2, [r5, #24]
 80040f6:	011b      	lsls	r3, r3, #4
 80040f8:	4313      	orrs	r3, r2
 80040fa:	61ab      	str	r3, [r5, #24]
 80040fc:	69ab      	ldr	r3, [r5, #24]
 80040fe:	4a0b      	ldr	r2, [pc, #44]	@ (800412c <HAL_TIM_PWM_ConfigChannel+0xbc>)
 8004100:	4013      	ands	r3, r2
 8004102:	61ab      	str	r3, [r5, #24]
 8004104:	6923      	ldr	r3, [r4, #16]
 8004106:	69aa      	ldr	r2, [r5, #24]
 8004108:	021b      	lsls	r3, r3, #8
 800410a:	e7ea      	b.n	80040e2 <HAL_TIM_PWM_ConfigChannel+0x72>
 800410c:	681f      	ldr	r7, [r3, #0]
 800410e:	0038      	movs	r0, r7
 8004110:	f7ff fe28 	bl	8003d64 <TIM_OC3_SetConfig>
 8004114:	2204      	movs	r2, #4
 8004116:	69fb      	ldr	r3, [r7, #28]
 8004118:	431d      	orrs	r5, r3
 800411a:	61fd      	str	r5, [r7, #28]
 800411c:	69fb      	ldr	r3, [r7, #28]
 800411e:	4393      	bics	r3, r2
 8004120:	61fb      	str	r3, [r7, #28]
 8004122:	69fb      	ldr	r3, [r7, #28]
 8004124:	6922      	ldr	r2, [r4, #16]
 8004126:	4313      	orrs	r3, r2
 8004128:	61fb      	str	r3, [r7, #28]
 800412a:	e7dc      	b.n	80040e6 <HAL_TIM_PWM_ConfigChannel+0x76>
 800412c:	fffffbff 	.word	0xfffffbff

08004130 <TIM_ETR_SetConfig>:
 8004130:	b530      	push	{r4, r5, lr}
 8004132:	6884      	ldr	r4, [r0, #8]
 8004134:	4d03      	ldr	r5, [pc, #12]	@ (8004144 <TIM_ETR_SetConfig+0x14>)
 8004136:	430a      	orrs	r2, r1
 8004138:	021b      	lsls	r3, r3, #8
 800413a:	402c      	ands	r4, r5
 800413c:	4313      	orrs	r3, r2
 800413e:	4323      	orrs	r3, r4
 8004140:	6083      	str	r3, [r0, #8]
 8004142:	bd30      	pop	{r4, r5, pc}
 8004144:	ffff00ff 	.word	0xffff00ff

08004148 <HAL_TIM_ConfigClockSource>:
 8004148:	b5f8      	push	{r3, r4, r5, r6, r7, lr}
 800414a:	0005      	movs	r5, r0
 800414c:	2202      	movs	r2, #2
 800414e:	353c      	adds	r5, #60	@ 0x3c
 8004150:	782c      	ldrb	r4, [r5, #0]
 8004152:	0003      	movs	r3, r0
 8004154:	0010      	movs	r0, r2
 8004156:	2c01      	cmp	r4, #1
 8004158:	d01b      	beq.n	8004192 <HAL_TIM_ConfigClockSource+0x4a>
 800415a:	001e      	movs	r6, r3
 800415c:	3801      	subs	r0, #1
 800415e:	363d      	adds	r6, #61	@ 0x3d
 8004160:	7028      	strb	r0, [r5, #0]
 8004162:	7032      	strb	r2, [r6, #0]
 8004164:	681c      	ldr	r4, [r3, #0]
 8004166:	4a41      	ldr	r2, [pc, #260]	@ (800426c <HAL_TIM_ConfigClockSource+0x124>)
 8004168:	68a3      	ldr	r3, [r4, #8]
 800416a:	4013      	ands	r3, r2
 800416c:	60a3      	str	r3, [r4, #8]
 800416e:	680b      	ldr	r3, [r1, #0]
 8004170:	2b60      	cmp	r3, #96	@ 0x60
 8004172:	d04e      	beq.n	8004212 <HAL_TIM_ConfigClockSource+0xca>
 8004174:	d82d      	bhi.n	80041d2 <HAL_TIM_ConfigClockSource+0x8a>
 8004176:	2b40      	cmp	r3, #64	@ 0x40
 8004178:	d062      	beq.n	8004240 <HAL_TIM_ConfigClockSource+0xf8>
 800417a:	d813      	bhi.n	80041a4 <HAL_TIM_ConfigClockSource+0x5c>
 800417c:	2b20      	cmp	r3, #32
 800417e:	d00b      	beq.n	8004198 <HAL_TIM_ConfigClockSource+0x50>
 8004180:	d808      	bhi.n	8004194 <HAL_TIM_ConfigClockSource+0x4c>
 8004182:	2210      	movs	r2, #16
 8004184:	0019      	movs	r1, r3
 8004186:	4391      	bics	r1, r2
 8004188:	d006      	beq.n	8004198 <HAL_TIM_ConfigClockSource+0x50>
 800418a:	2301      	movs	r3, #1
 800418c:	7033      	strb	r3, [r6, #0]
 800418e:	2300      	movs	r3, #0
 8004190:	702b      	strb	r3, [r5, #0]
 8004192:	bdf8      	pop	{r3, r4, r5, r6, r7, pc}
 8004194:	2b30      	cmp	r3, #48	@ 0x30
 8004196:	d1f8      	bne.n	800418a <HAL_TIM_ConfigClockSource+0x42>
 8004198:	2170      	movs	r1, #112	@ 0x70
 800419a:	68a2      	ldr	r2, [r4, #8]
 800419c:	438a      	bics	r2, r1
 800419e:	4313      	orrs	r3, r2
 80041a0:	2207      	movs	r2, #7
 80041a2:	e028      	b.n	80041f6 <HAL_TIM_ConfigClockSource+0xae>
 80041a4:	2b50      	cmp	r3, #80	@ 0x50
 80041a6:	d1f0      	bne.n	800418a <HAL_TIM_ConfigClockSource+0x42>
 80041a8:	684a      	ldr	r2, [r1, #4]
 80041aa:	68cb      	ldr	r3, [r1, #12]
 80041ac:	6a21      	ldr	r1, [r4, #32]
 80041ae:	6a27      	ldr	r7, [r4, #32]
 80041b0:	011b      	lsls	r3, r3, #4
 80041b2:	4387      	bics	r7, r0
 80041b4:	6227      	str	r7, [r4, #32]
 80041b6:	27f0      	movs	r7, #240	@ 0xf0
 80041b8:	69a0      	ldr	r0, [r4, #24]
 80041ba:	43b8      	bics	r0, r7
 80041bc:	4303      	orrs	r3, r0
 80041be:	200a      	movs	r0, #10
 80041c0:	61a3      	str	r3, [r4, #24]
 80041c2:	2370      	movs	r3, #112	@ 0x70
 80041c4:	4381      	bics	r1, r0
 80041c6:	430a      	orrs	r2, r1
 80041c8:	6222      	str	r2, [r4, #32]
 80041ca:	68a2      	ldr	r2, [r4, #8]
 80041cc:	439a      	bics	r2, r3
 80041ce:	3b19      	subs	r3, #25
 80041d0:	e011      	b.n	80041f6 <HAL_TIM_ConfigClockSource+0xae>
 80041d2:	2280      	movs	r2, #128	@ 0x80
 80041d4:	0152      	lsls	r2, r2, #5
 80041d6:	4293      	cmp	r3, r2
 80041d8:	d00f      	beq.n	80041fa <HAL_TIM_ConfigClockSource+0xb2>
 80041da:	2280      	movs	r2, #128	@ 0x80
 80041dc:	0192      	lsls	r2, r2, #6
 80041de:	4293      	cmp	r3, r2
 80041e0:	d00d      	beq.n	80041fe <HAL_TIM_ConfigClockSource+0xb6>
 80041e2:	2b70      	cmp	r3, #112	@ 0x70
 80041e4:	d1d1      	bne.n	800418a <HAL_TIM_ConfigClockSource+0x42>
 80041e6:	68cb      	ldr	r3, [r1, #12]
 80041e8:	684a      	ldr	r2, [r1, #4]
 80041ea:	0020      	movs	r0, r4
 80041ec:	6889      	ldr	r1, [r1, #8]
 80041ee:	f7ff ff9f 	bl	8004130 <TIM_ETR_SetConfig>
 80041f2:	2377      	movs	r3, #119	@ 0x77
 80041f4:	68a2      	ldr	r2, [r4, #8]
 80041f6:	4313      	orrs	r3, r2
 80041f8:	60a3      	str	r3, [r4, #8]
 80041fa:	2000      	movs	r0, #0
 80041fc:	e7c5      	b.n	800418a <HAL_TIM_ConfigClockSource+0x42>
 80041fe:	68cb      	ldr	r3, [r1, #12]
 8004200:	684a      	ldr	r2, [r1, #4]
 8004202:	0020      	movs	r0, r4
 8004204:	6889      	ldr	r1, [r1, #8]
 8004206:	f7ff ff93 	bl	8004130 <TIM_ETR_SetConfig>
 800420a:	2380      	movs	r3, #128	@ 0x80
 800420c:	68a2      	ldr	r2, [r4, #8]
 800420e:	01db      	lsls	r3, r3, #7
 8004210:	e7f1      	b.n	80041f6 <HAL_TIM_ConfigClockSource+0xae>
 8004212:	2010      	movs	r0, #16
 8004214:	684b      	ldr	r3, [r1, #4]
 8004216:	68ca      	ldr	r2, [r1, #12]
 8004218:	6a21      	ldr	r1, [r4, #32]
 800421a:	4f15      	ldr	r7, [pc, #84]	@ (8004270 <HAL_TIM_ConfigClockSource+0x128>)
 800421c:	4381      	bics	r1, r0
 800421e:	6221      	str	r1, [r4, #32]
 8004220:	69a0      	ldr	r0, [r4, #24]
 8004222:	0312      	lsls	r2, r2, #12
 8004224:	4038      	ands	r0, r7
 8004226:	4302      	orrs	r2, r0
 8004228:	20a0      	movs	r0, #160	@ 0xa0
 800422a:	6a21      	ldr	r1, [r4, #32]
 800422c:	011b      	lsls	r3, r3, #4
 800422e:	4381      	bics	r1, r0
 8004230:	430b      	orrs	r3, r1
 8004232:	61a2      	str	r2, [r4, #24]
 8004234:	6223      	str	r3, [r4, #32]
 8004236:	2370      	movs	r3, #112	@ 0x70
 8004238:	68a2      	ldr	r2, [r4, #8]
 800423a:	439a      	bics	r2, r3
 800423c:	3b09      	subs	r3, #9
 800423e:	e7da      	b.n	80041f6 <HAL_TIM_ConfigClockSource+0xae>
 8004240:	684a      	ldr	r2, [r1, #4]
 8004242:	68cb      	ldr	r3, [r1, #12]
 8004244:	6a21      	ldr	r1, [r4, #32]
 8004246:	6a27      	ldr	r7, [r4, #32]
 8004248:	011b      	lsls	r3, r3, #4
 800424a:	4387      	bics	r7, r0
 800424c:	6227      	str	r7, [r4, #32]
 800424e:	27f0      	movs	r7, #240	@ 0xf0
 8004250:	69a0      	ldr	r0, [r4, #24]
 8004252:	43b8      	bics	r0, r7
 8004254:	4303      	orrs	r3, r0
 8004256:	200a      	movs	r0, #10
 8004258:	61a3      	str	r3, [r4, #24]
 800425a:	2370      	movs	r3, #112	@ 0x70
 800425c:	4381      	bics	r1, r0
 800425e:	430a      	orrs	r2, r1
 8004260:	6222      	str	r2, [r4, #32]
 8004262:	68a2      	ldr	r2, [r4, #8]
 8004264:	439a      	bics	r2, r3
 8004266:	3b29      	subs	r3, #41	@ 0x29
 8004268:	e7c5      	b.n	80041f6 <HAL_TIM_ConfigClockSource+0xae>
 800426a:	46c0      	nop			@ (mov r8, r8)
 800426c:	ffff0088 	.word	0xffff0088
 8004270:	ffff0fff 	.word	0xffff0fff

08004274 <TIM_CCxChannelCmd>:
 8004274:	231f      	movs	r3, #31
 8004276:	b510      	push	{r4, lr}
 8004278:	2401      	movs	r4, #1
 800427a:	4019      	ands	r1, r3
 800427c:	408c      	lsls	r4, r1
 800427e:	408a      	lsls	r2, r1
 8004280:	6a03      	ldr	r3, [r0, #32]
 8004282:	43a3      	bics	r3, r4
 8004284:	6203      	str	r3, [r0, #32]
 8004286:	6a03      	ldr	r3, [r0, #32]
 8004288:	431a      	orrs	r2, r3
 800428a:	6202      	str	r2, [r0, #32]
 800428c:	bd10      	pop	{r4, pc}
	...

08004290 <HAL_TIM_OC_Start>:
 8004290:	0002      	movs	r2, r0
 8004292:	0003      	movs	r3, r0
 8004294:	b510      	push	{r4, lr}
 8004296:	2900      	cmp	r1, #0
 8004298:	d109      	bne.n	80042ae <HAL_TIM_OC_Start+0x1e>
 800429a:	333e      	adds	r3, #62	@ 0x3e
 800429c:	781b      	ldrb	r3, [r3, #0]
 800429e:	3b01      	subs	r3, #1
 80042a0:	1e58      	subs	r0, r3, #1
 80042a2:	4183      	sbcs	r3, r0
 80042a4:	b2db      	uxtb	r3, r3
 80042a6:	2001      	movs	r0, #1
 80042a8:	2b00      	cmp	r3, #0
 80042aa:	d00a      	beq.n	80042c2 <HAL_TIM_OC_Start+0x32>
 80042ac:	bd10      	pop	{r4, pc}
 80042ae:	2904      	cmp	r1, #4
 80042b0:	d101      	bne.n	80042b6 <HAL_TIM_OC_Start+0x26>
 80042b2:	333f      	adds	r3, #63	@ 0x3f
 80042b4:	e7f2      	b.n	800429c <HAL_TIM_OC_Start+0xc>
 80042b6:	2908      	cmp	r1, #8
 80042b8:	d101      	bne.n	80042be <HAL_TIM_OC_Start+0x2e>
 80042ba:	3340      	adds	r3, #64	@ 0x40
 80042bc:	e7ee      	b.n	800429c <HAL_TIM_OC_Start+0xc>
 80042be:	3341      	adds	r3, #65	@ 0x41
 80042c0:	e7ec      	b.n	800429c <HAL_TIM_OC_Start+0xc>
 80042c2:	2302      	movs	r3, #2
 80042c4:	0010      	movs	r0, r2
 80042c6:	2900      	cmp	r1, #0
 80042c8:	d11d      	bne.n	8004306 <HAL_TIM_OC_Start+0x76>
 80042ca:	303e      	adds	r0, #62	@ 0x3e
 80042cc:	7003      	strb	r3, [r0, #0]
 80042ce:	6814      	ldr	r4, [r2, #0]
 80042d0:	2201      	movs	r2, #1
 80042d2:	0020      	movs	r0, r4
 80042d4:	f7ff ffce 	bl	8004274 <TIM_CCxChannelCmd>
 80042d8:	4a16      	ldr	r2, [pc, #88]	@ (8004334 <HAL_TIM_OC_Start+0xa4>)
 80042da:	4294      	cmp	r4, r2
 80042dc:	d005      	beq.n	80042ea <HAL_TIM_OC_Start+0x5a>
 80042de:	4b16      	ldr	r3, [pc, #88]	@ (8004338 <HAL_TIM_OC_Start+0xa8>)
 80042e0:	429c      	cmp	r4, r3
 80042e2:	d002      	beq.n	80042ea <HAL_TIM_OC_Start+0x5a>
 80042e4:	4b15      	ldr	r3, [pc, #84]	@ (800433c <HAL_TIM_OC_Start+0xac>)
 80042e6:	429c      	cmp	r4, r3
 80042e8:	d117      	bne.n	800431a <HAL_TIM_OC_Start+0x8a>
 80042ea:	2380      	movs	r3, #128	@ 0x80
 80042ec:	6c61      	ldr	r1, [r4, #68]	@ 0x44
 80042ee:	021b      	lsls	r3, r3, #8
 80042f0:	430b      	orrs	r3, r1
 80042f2:	6463      	str	r3, [r4, #68]	@ 0x44
 80042f4:	4294      	cmp	r4, r2
 80042f6:	d117      	bne.n	8004328 <HAL_TIM_OC_Start+0x98>
 80042f8:	2207      	movs	r2, #7
 80042fa:	68a3      	ldr	r3, [r4, #8]
 80042fc:	4013      	ands	r3, r2
 80042fe:	2b06      	cmp	r3, #6
 8004300:	d112      	bne.n	8004328 <HAL_TIM_OC_Start+0x98>
 8004302:	2000      	movs	r0, #0
 8004304:	e7d2      	b.n	80042ac <HAL_TIM_OC_Start+0x1c>
 8004306:	2904      	cmp	r1, #4
 8004308:	d101      	bne.n	800430e <HAL_TIM_OC_Start+0x7e>
 800430a:	303f      	adds	r0, #63	@ 0x3f
 800430c:	e7de      	b.n	80042cc <HAL_TIM_OC_Start+0x3c>
 800430e:	2908      	cmp	r1, #8
 8004310:	d101      	bne.n	8004316 <HAL_TIM_OC_Start+0x86>
 8004312:	3040      	adds	r0, #64	@ 0x40
 8004314:	e7da      	b.n	80042cc <HAL_TIM_OC_Start+0x3c>
 8004316:	3041      	adds	r0, #65	@ 0x41
 8004318:	e7d8      	b.n	80042cc <HAL_TIM_OC_Start+0x3c>
 800431a:	2380      	movs	r3, #128	@ 0x80
 800431c:	05db      	lsls	r3, r3, #23
 800431e:	429c      	cmp	r4, r3
 8004320:	d0ea      	beq.n	80042f8 <HAL_TIM_OC_Start+0x68>
 8004322:	4b07      	ldr	r3, [pc, #28]	@ (8004340 <HAL_TIM_OC_Start+0xb0>)
 8004324:	429c      	cmp	r4, r3
 8004326:	d0e7      	beq.n	80042f8 <HAL_TIM_OC_Start+0x68>
 8004328:	2301      	movs	r3, #1
 800432a:	6822      	ldr	r2, [r4, #0]
 800432c:	4313      	orrs	r3, r2
 800432e:	6023      	str	r3, [r4, #0]
 8004330:	e7e7      	b.n	8004302 <HAL_TIM_OC_Start+0x72>
 8004332:	46c0      	nop			@ (mov r8, r8)
 8004334:	40012c00 	.word	0x40012c00
 8004338:	40014400 	.word	0x40014400
 800433c:	40014800 	.word	0x40014800
 8004340:	40000400 	.word	0x40000400

08004344 <HAL_TIM_PWM_Start>:
 8004344:	b510      	push	{r4, lr}
 8004346:	f7ff ffa3 	bl	8004290 <HAL_TIM_OC_Start>
 800434a:	bd10      	pop	{r4, pc}

0800434c <HAL_TIM_OC_Stop>:
 800434c:	b570      	push	{r4, r5, r6, lr}
 800434e:	6805      	ldr	r5, [r0, #0]
 8004350:	2200      	movs	r2, #0
 8004352:	0004      	movs	r4, r0
 8004354:	0028      	movs	r0, r5
 8004356:	000e      	movs	r6, r1
 8004358:	f7ff ff8c 	bl	8004274 <TIM_CCxChannelCmd>
 800435c:	4b18      	ldr	r3, [pc, #96]	@ (80043c0 <HAL_TIM_OC_Stop+0x74>)
 800435e:	4a19      	ldr	r2, [pc, #100]	@ (80043c4 <HAL_TIM_OC_Stop+0x78>)
 8004360:	429d      	cmp	r5, r3
 8004362:	d005      	beq.n	8004370 <HAL_TIM_OC_Stop+0x24>
 8004364:	4b18      	ldr	r3, [pc, #96]	@ (80043c8 <HAL_TIM_OC_Stop+0x7c>)
 8004366:	429d      	cmp	r5, r3
 8004368:	d002      	beq.n	8004370 <HAL_TIM_OC_Stop+0x24>
 800436a:	4b18      	ldr	r3, [pc, #96]	@ (80043cc <HAL_TIM_OC_Stop+0x80>)
 800436c:	429d      	cmp	r5, r3
 800436e:	d10a      	bne.n	8004386 <HAL_TIM_OC_Stop+0x3a>
 8004370:	6a2b      	ldr	r3, [r5, #32]
 8004372:	4213      	tst	r3, r2
 8004374:	d107      	bne.n	8004386 <HAL_TIM_OC_Stop+0x3a>
 8004376:	6a29      	ldr	r1, [r5, #32]
 8004378:	4b15      	ldr	r3, [pc, #84]	@ (80043d0 <HAL_TIM_OC_Stop+0x84>)
 800437a:	4219      	tst	r1, r3
 800437c:	d103      	bne.n	8004386 <HAL_TIM_OC_Stop+0x3a>
 800437e:	6c6b      	ldr	r3, [r5, #68]	@ 0x44
 8004380:	4914      	ldr	r1, [pc, #80]	@ (80043d4 <HAL_TIM_OC_Stop+0x88>)
 8004382:	400b      	ands	r3, r1
 8004384:	646b      	str	r3, [r5, #68]	@ 0x44
 8004386:	6a2b      	ldr	r3, [r5, #32]
 8004388:	4213      	tst	r3, r2
 800438a:	d107      	bne.n	800439c <HAL_TIM_OC_Stop+0x50>
 800438c:	6a2a      	ldr	r2, [r5, #32]
 800438e:	4b10      	ldr	r3, [pc, #64]	@ (80043d0 <HAL_TIM_OC_Stop+0x84>)
 8004390:	421a      	tst	r2, r3
 8004392:	d103      	bne.n	800439c <HAL_TIM_OC_Stop+0x50>
 8004394:	2201      	movs	r2, #1
 8004396:	682b      	ldr	r3, [r5, #0]
 8004398:	4393      	bics	r3, r2
 800439a:	602b      	str	r3, [r5, #0]
 800439c:	2301      	movs	r3, #1
 800439e:	2e00      	cmp	r6, #0
 80043a0:	d103      	bne.n	80043aa <HAL_TIM_OC_Stop+0x5e>
 80043a2:	343e      	adds	r4, #62	@ 0x3e
 80043a4:	2000      	movs	r0, #0
 80043a6:	7023      	strb	r3, [r4, #0]
 80043a8:	bd70      	pop	{r4, r5, r6, pc}
 80043aa:	2e04      	cmp	r6, #4
 80043ac:	d101      	bne.n	80043b2 <HAL_TIM_OC_Stop+0x66>
 80043ae:	343f      	adds	r4, #63	@ 0x3f
 80043b0:	e7f8      	b.n	80043a4 <HAL_TIM_OC_Stop+0x58>
 80043b2:	2e08      	cmp	r6, #8
 80043b4:	d101      	bne.n	80043ba <HAL_TIM_OC_Stop+0x6e>
 80043b6:	3440      	adds	r4, #64	@ 0x40
 80043b8:	e7f4      	b.n	80043a4 <HAL_TIM_OC_Stop+0x58>
 80043ba:	3441      	adds	r4, #65	@ 0x41
 80043bc:	e7f2      	b.n	80043a4 <HAL_TIM_OC_Stop+0x58>
 80043be:	46c0      	nop			@ (mov r8, r8)
 80043c0:	40012c00 	.word	0x40012c00
 80043c4:	00001111 	.word	0x00001111
 80043c8:	40014400 	.word	0x40014400
 80043cc:	40014800 	.word	0x40014800
 80043d0:	00000444 	.word	0x00000444
 80043d4:	ffff7fff 	.word	0xffff7fff

080043d8 <HAL_TIM_PWM_Stop>:
 80043d8:	b510      	push	{r4, lr}
 80043da:	f7ff ffb7 	bl	800434c <HAL_TIM_OC_Stop>
 80043de:	bd10      	pop	{r4, pc}

080043e0 <HAL_TIMEx_MasterConfigSynchronization>:
 80043e0:	b570      	push	{r4, r5, r6, lr}
 80043e2:	0004      	movs	r4, r0
 80043e4:	2202      	movs	r2, #2
 80043e6:	343c      	adds	r4, #60	@ 0x3c
 80043e8:	7825      	ldrb	r5, [r4, #0]
 80043ea:	0003      	movs	r3, r0
 80043ec:	0010      	movs	r0, r2
 80043ee:	2d01      	cmp	r5, #1
 80043f0:	d01d      	beq.n	800442e <HAL_TIMEx_MasterConfigSynchronization+0x4e>
 80043f2:	001d      	movs	r5, r3
 80043f4:	2670      	movs	r6, #112	@ 0x70
 80043f6:	353d      	adds	r5, #61	@ 0x3d
 80043f8:	702a      	strb	r2, [r5, #0]
 80043fa:	681b      	ldr	r3, [r3, #0]
 80043fc:	6858      	ldr	r0, [r3, #4]
 80043fe:	689a      	ldr	r2, [r3, #8]
 8004400:	43b0      	bics	r0, r6
 8004402:	680e      	ldr	r6, [r1, #0]
 8004404:	4330      	orrs	r0, r6
 8004406:	6058      	str	r0, [r3, #4]
 8004408:	4809      	ldr	r0, [pc, #36]	@ (8004430 <HAL_TIMEx_MasterConfigSynchronization+0x50>)
 800440a:	4283      	cmp	r3, r0
 800440c:	d006      	beq.n	800441c <HAL_TIMEx_MasterConfigSynchronization+0x3c>
 800440e:	2080      	movs	r0, #128	@ 0x80
 8004410:	05c0      	lsls	r0, r0, #23
 8004412:	4283      	cmp	r3, r0
 8004414:	d002      	beq.n	800441c <HAL_TIMEx_MasterConfigSynchronization+0x3c>
 8004416:	4807      	ldr	r0, [pc, #28]	@ (8004434 <HAL_TIMEx_MasterConfigSynchronization+0x54>)
 8004418:	4283      	cmp	r3, r0
 800441a:	d104      	bne.n	8004426 <HAL_TIMEx_MasterConfigSynchronization+0x46>
 800441c:	2080      	movs	r0, #128	@ 0x80
 800441e:	6849      	ldr	r1, [r1, #4]
 8004420:	4382      	bics	r2, r0
 8004422:	430a      	orrs	r2, r1
 8004424:	609a      	str	r2, [r3, #8]
 8004426:	2301      	movs	r3, #1
 8004428:	2000      	movs	r0, #0
 800442a:	702b      	strb	r3, [r5, #0]
 800442c:	7020      	strb	r0, [r4, #0]
 800442e:	bd70      	pop	{r4, r5, r6, pc}
 8004430:	40012c00 	.word	0x40012c00
 8004434:	40000400 	.word	0x40000400

08004438 <USB_EnableGlobalInt>:
 8004438:	1d82      	adds	r2, r0, #6
 800443a:	0003      	movs	r3, r0
 800443c:	2000      	movs	r0, #0
 800443e:	87d0      	strh	r0, [r2, #62]	@ 0x3e
 8004440:	4a01      	ldr	r2, [pc, #4]	@ (8004448 <USB_EnableGlobalInt+0x10>)
 8004442:	3302      	adds	r3, #2
 8004444:	87da      	strh	r2, [r3, #62]	@ 0x3e
 8004446:	4770      	bx	lr
 8004448:	ffffbf80 	.word	0xffffbf80

0800444c <USB_DisableGlobalInt>:
 800444c:	3002      	adds	r0, #2
 800444e:	8fc3      	ldrh	r3, [r0, #62]	@ 0x3e
 8004450:	4a02      	ldr	r2, [pc, #8]	@ (800445c <USB_DisableGlobalInt+0x10>)
 8004452:	4013      	ands	r3, r2
 8004454:	87c3      	strh	r3, [r0, #62]	@ 0x3e
 8004456:	2000      	movs	r0, #0
 8004458:	4770      	bx	lr
 800445a:	46c0      	nop			@ (mov r8, r8)
 800445c:	0000407f 	.word	0x0000407f

08004460 <USB_DevInit>:
 8004460:	b084      	sub	sp, #16
 8004462:	b510      	push	{r4, lr}
 8004464:	0004      	movs	r4, r0
 8004466:	9204      	str	r2, [sp, #16]
 8004468:	9305      	str	r3, [sp, #20]
 800446a:	2201      	movs	r2, #1
 800446c:	1c83      	adds	r3, r0, #2
 800446e:	2000      	movs	r0, #0
 8004470:	87da      	strh	r2, [r3, #62]	@ 0x3e
 8004472:	87d8      	strh	r0, [r3, #62]	@ 0x3e
 8004474:	1da3      	adds	r3, r4, #6
 8004476:	3450      	adds	r4, #80	@ 0x50
 8004478:	87d8      	strh	r0, [r3, #62]	@ 0x3e
 800447a:	9103      	str	r1, [sp, #12]
 800447c:	8020      	strh	r0, [r4, #0]
 800447e:	bc10      	pop	{r4}
 8004480:	bc08      	pop	{r3}
 8004482:	b004      	add	sp, #16
 8004484:	4718      	bx	r3
	...

08004488 <USB_ActivateEndpoint>:
 8004488:	b5f7      	push	{r0, r1, r2, r4, r5, r6, r7, lr}
 800448a:	780e      	ldrb	r6, [r1, #0]
 800448c:	4a79      	ldr	r2, [pc, #484]	@ (8004674 <USB_ActivateEndpoint+0x1ec>)
 800448e:	00b3      	lsls	r3, r6, #2
 8004490:	18c3      	adds	r3, r0, r3
 8004492:	881c      	ldrh	r4, [r3, #0]
 8004494:	78cf      	ldrb	r7, [r1, #3]
 8004496:	4014      	ands	r4, r2
 8004498:	2201      	movs	r2, #1
 800449a:	0005      	movs	r5, r0
 800449c:	9200      	str	r2, [sp, #0]
 800449e:	2f03      	cmp	r7, #3
 80044a0:	d808      	bhi.n	80044b4 <USB_ActivateEndpoint+0x2c>
 80044a2:	0038      	movs	r0, r7
 80044a4:	f7fb fe42 	bl	800012c <__gnu_thumb1_case_uqi>
 80044a8:	3c3f4202 	.word	0x3c3f4202
 80044ac:	2280      	movs	r2, #128	@ 0x80
 80044ae:	0092      	lsls	r2, r2, #2
 80044b0:	4314      	orrs	r4, r2
 80044b2:	9700      	str	r7, [sp, #0]
 80044b4:	4a70      	ldr	r2, [pc, #448]	@ (8004678 <USB_ActivateEndpoint+0x1f0>)
 80044b6:	4314      	orrs	r4, r2
 80044b8:	b2a4      	uxth	r4, r4
 80044ba:	801c      	strh	r4, [r3, #0]
 80044bc:	8818      	ldrh	r0, [r3, #0]
 80044be:	4c6f      	ldr	r4, [pc, #444]	@ (800467c <USB_ActivateEndpoint+0x1f4>)
 80044c0:	4020      	ands	r0, r4
 80044c2:	4330      	orrs	r0, r6
 80044c4:	4310      	orrs	r0, r2
 80044c6:	b280      	uxth	r0, r0
 80044c8:	8018      	strh	r0, [r3, #0]
 80044ca:	00f0      	lsls	r0, r6, #3
 80044cc:	4684      	mov	ip, r0
 80044ce:	7b08      	ldrb	r0, [r1, #12]
 80044d0:	44ac      	add	ip, r5
 80044d2:	3550      	adds	r5, #80	@ 0x50
 80044d4:	9501      	str	r5, [sp, #4]
 80044d6:	2800      	cmp	r0, #0
 80044d8:	d000      	beq.n	80044dc <USB_ActivateEndpoint+0x54>
 80044da:	e068      	b.n	80045ae <USB_ActivateEndpoint+0x126>
 80044dc:	88cd      	ldrh	r5, [r1, #6]
 80044de:	7848      	ldrb	r0, [r1, #1]
 80044e0:	086d      	lsrs	r5, r5, #1
 80044e2:	006d      	lsls	r5, r5, #1
 80044e4:	2800      	cmp	r0, #0
 80044e6:	d023      	beq.n	8004530 <USB_ActivateEndpoint+0xa8>
 80044e8:	2080      	movs	r0, #128	@ 0x80
 80044ea:	9901      	ldr	r1, [sp, #4]
 80044ec:	00c0      	lsls	r0, r0, #3
 80044ee:	8809      	ldrh	r1, [r1, #0]
 80044f0:	4461      	add	r1, ip
 80044f2:	1809      	adds	r1, r1, r0
 80044f4:	800d      	strh	r5, [r1, #0]
 80044f6:	8819      	ldrh	r1, [r3, #0]
 80044f8:	0649      	lsls	r1, r1, #25
 80044fa:	d504      	bpl.n	8004506 <USB_ActivateEndpoint+0x7e>
 80044fc:	8819      	ldrh	r1, [r3, #0]
 80044fe:	4021      	ands	r1, r4
 8004500:	4c5f      	ldr	r4, [pc, #380]	@ (8004680 <USB_ActivateEndpoint+0x1f8>)
 8004502:	4321      	orrs	r1, r4
 8004504:	8019      	strh	r1, [r3, #0]
 8004506:	4d5f      	ldr	r5, [pc, #380]	@ (8004684 <USB_ActivateEndpoint+0x1fc>)
 8004508:	2f01      	cmp	r7, #1
 800450a:	d100      	bne.n	800450e <USB_ActivateEndpoint+0x86>
 800450c:	e0ab      	b.n	8004666 <USB_ActivateEndpoint+0x1de>
 800450e:	2120      	movs	r1, #32
 8004510:	881c      	ldrh	r4, [r3, #0]
 8004512:	402c      	ands	r4, r5
 8004514:	4061      	eors	r1, r4
 8004516:	430a      	orrs	r2, r1
 8004518:	b292      	uxth	r2, r2
 800451a:	9800      	ldr	r0, [sp, #0]
 800451c:	801a      	strh	r2, [r3, #0]
 800451e:	bdfe      	pop	{r1, r2, r3, r4, r5, r6, r7, pc}
 8004520:	22c0      	movs	r2, #192	@ 0xc0
 8004522:	00d2      	lsls	r2, r2, #3
 8004524:	4314      	orrs	r4, r2
 8004526:	2200      	movs	r2, #0
 8004528:	9200      	str	r2, [sp, #0]
 800452a:	e7c3      	b.n	80044b4 <USB_ActivateEndpoint+0x2c>
 800452c:	2280      	movs	r2, #128	@ 0x80
 800452e:	e7f8      	b.n	8004522 <USB_ActivateEndpoint+0x9a>
 8004530:	9801      	ldr	r0, [sp, #4]
 8004532:	6909      	ldr	r1, [r1, #16]
 8004534:	8807      	ldrh	r7, [r0, #0]
 8004536:	4854      	ldr	r0, [pc, #336]	@ (8004688 <USB_ActivateEndpoint+0x200>)
 8004538:	4467      	add	r7, ip
 800453a:	183f      	adds	r7, r7, r0
 800453c:	9801      	ldr	r0, [sp, #4]
 800453e:	803d      	strh	r5, [r7, #0]
 8004540:	8805      	ldrh	r5, [r0, #0]
 8004542:	4852      	ldr	r0, [pc, #328]	@ (800468c <USB_ActivateEndpoint+0x204>)
 8004544:	4465      	add	r5, ip
 8004546:	182d      	adds	r5, r5, r0
 8004548:	882f      	ldrh	r7, [r5, #0]
 800454a:	05bf      	lsls	r7, r7, #22
 800454c:	0dbf      	lsrs	r7, r7, #22
 800454e:	802f      	strh	r7, [r5, #0]
 8004550:	293e      	cmp	r1, #62	@ 0x3e
 8004552:	d90d      	bls.n	8004570 <USB_ActivateEndpoint+0xe8>
 8004554:	201f      	movs	r0, #31
 8004556:	094f      	lsrs	r7, r1, #5
 8004558:	4001      	ands	r1, r0
 800455a:	0008      	movs	r0, r1
 800455c:	4241      	negs	r1, r0
 800455e:	4141      	adcs	r1, r0
 8004560:	1a7f      	subs	r7, r7, r1
 8004562:	8829      	ldrh	r1, [r5, #0]
 8004564:	02bf      	lsls	r7, r7, #10
 8004566:	430f      	orrs	r7, r1
 8004568:	4949      	ldr	r1, [pc, #292]	@ (8004690 <USB_ActivateEndpoint+0x208>)
 800456a:	4339      	orrs	r1, r7
 800456c:	b289      	uxth	r1, r1
 800456e:	e005      	b.n	800457c <USB_ActivateEndpoint+0xf4>
 8004570:	2900      	cmp	r1, #0
 8004572:	d115      	bne.n	80045a0 <USB_ActivateEndpoint+0x118>
 8004574:	2780      	movs	r7, #128	@ 0x80
 8004576:	8829      	ldrh	r1, [r5, #0]
 8004578:	023f      	lsls	r7, r7, #8
 800457a:	4339      	orrs	r1, r7
 800457c:	8029      	strh	r1, [r5, #0]
 800457e:	8819      	ldrh	r1, [r3, #0]
 8004580:	0449      	lsls	r1, r1, #17
 8004582:	d504      	bpl.n	800458e <USB_ActivateEndpoint+0x106>
 8004584:	8819      	ldrh	r1, [r3, #0]
 8004586:	4021      	ands	r1, r4
 8004588:	4c42      	ldr	r4, [pc, #264]	@ (8004694 <USB_ActivateEndpoint+0x20c>)
 800458a:	4321      	orrs	r1, r4
 800458c:	8019      	strh	r1, [r3, #0]
 800458e:	4942      	ldr	r1, [pc, #264]	@ (8004698 <USB_ActivateEndpoint+0x210>)
 8004590:	881c      	ldrh	r4, [r3, #0]
 8004592:	400c      	ands	r4, r1
 8004594:	21c0      	movs	r1, #192	@ 0xc0
 8004596:	2e00      	cmp	r6, #0
 8004598:	d000      	beq.n	800459c <USB_ActivateEndpoint+0x114>
 800459a:	2180      	movs	r1, #128	@ 0x80
 800459c:	0189      	lsls	r1, r1, #6
 800459e:	e7b9      	b.n	8004514 <USB_ActivateEndpoint+0x8c>
 80045a0:	2001      	movs	r0, #1
 80045a2:	084f      	lsrs	r7, r1, #1
 80045a4:	4001      	ands	r1, r0
 80045a6:	187f      	adds	r7, r7, r1
 80045a8:	02bf      	lsls	r7, r7, #10
 80045aa:	8829      	ldrh	r1, [r5, #0]
 80045ac:	e7dd      	b.n	800456a <USB_ActivateEndpoint+0xe2>
 80045ae:	881d      	ldrh	r5, [r3, #0]
 80045b0:	2f02      	cmp	r7, #2
 80045b2:	d13a      	bne.n	800462a <USB_ActivateEndpoint+0x1a2>
 80045b4:	4e39      	ldr	r6, [pc, #228]	@ (800469c <USB_ActivateEndpoint+0x214>)
 80045b6:	4025      	ands	r5, r4
 80045b8:	4335      	orrs	r5, r6
 80045ba:	9801      	ldr	r0, [sp, #4]
 80045bc:	801d      	strh	r5, [r3, #0]
 80045be:	8805      	ldrh	r5, [r0, #0]
 80045c0:	2080      	movs	r0, #128	@ 0x80
 80045c2:	890e      	ldrh	r6, [r1, #8]
 80045c4:	4465      	add	r5, ip
 80045c6:	00c0      	lsls	r0, r0, #3
 80045c8:	0876      	lsrs	r6, r6, #1
 80045ca:	182d      	adds	r5, r5, r0
 80045cc:	0076      	lsls	r6, r6, #1
 80045ce:	9801      	ldr	r0, [sp, #4]
 80045d0:	802e      	strh	r6, [r5, #0]
 80045d2:	8805      	ldrh	r5, [r0, #0]
 80045d4:	894e      	ldrh	r6, [r1, #10]
 80045d6:	482c      	ldr	r0, [pc, #176]	@ (8004688 <USB_ActivateEndpoint+0x200>)
 80045d8:	4465      	add	r5, ip
 80045da:	0876      	lsrs	r6, r6, #1
 80045dc:	182d      	adds	r5, r5, r0
 80045de:	0076      	lsls	r6, r6, #1
 80045e0:	802e      	strh	r6, [r5, #0]
 80045e2:	7849      	ldrb	r1, [r1, #1]
 80045e4:	4e27      	ldr	r6, [pc, #156]	@ (8004684 <USB_ActivateEndpoint+0x1fc>)
 80045e6:	468c      	mov	ip, r1
 80045e8:	2180      	movs	r1, #128	@ 0x80
 80045ea:	4660      	mov	r0, ip
 80045ec:	4d2a      	ldr	r5, [pc, #168]	@ (8004698 <USB_ActivateEndpoint+0x210>)
 80045ee:	01c9      	lsls	r1, r1, #7
 80045f0:	2800      	cmp	r0, #0
 80045f2:	d11f      	bne.n	8004634 <USB_ActivateEndpoint+0x1ac>
 80045f4:	881f      	ldrh	r7, [r3, #0]
 80045f6:	420f      	tst	r7, r1
 80045f8:	d004      	beq.n	8004604 <USB_ActivateEndpoint+0x17c>
 80045fa:	8819      	ldrh	r1, [r3, #0]
 80045fc:	4f25      	ldr	r7, [pc, #148]	@ (8004694 <USB_ActivateEndpoint+0x20c>)
 80045fe:	4021      	ands	r1, r4
 8004600:	4339      	orrs	r1, r7
 8004602:	8019      	strh	r1, [r3, #0]
 8004604:	8819      	ldrh	r1, [r3, #0]
 8004606:	0649      	lsls	r1, r1, #25
 8004608:	d504      	bpl.n	8004614 <USB_ActivateEndpoint+0x18c>
 800460a:	8819      	ldrh	r1, [r3, #0]
 800460c:	4021      	ands	r1, r4
 800460e:	4c1c      	ldr	r4, [pc, #112]	@ (8004680 <USB_ActivateEndpoint+0x1f8>)
 8004610:	4321      	orrs	r1, r4
 8004612:	8019      	strh	r1, [r3, #0]
 8004614:	21c0      	movs	r1, #192	@ 0xc0
 8004616:	881c      	ldrh	r4, [r3, #0]
 8004618:	0189      	lsls	r1, r1, #6
 800461a:	402c      	ands	r4, r5
 800461c:	4061      	eors	r1, r4
 800461e:	4311      	orrs	r1, r2
 8004620:	b289      	uxth	r1, r1
 8004622:	8019      	strh	r1, [r3, #0]
 8004624:	8819      	ldrh	r1, [r3, #0]
 8004626:	4031      	ands	r1, r6
 8004628:	e775      	b.n	8004516 <USB_ActivateEndpoint+0x8e>
 800462a:	4e1d      	ldr	r6, [pc, #116]	@ (80046a0 <USB_ActivateEndpoint+0x218>)
 800462c:	4035      	ands	r5, r6
 800462e:	4315      	orrs	r5, r2
 8004630:	b2ad      	uxth	r5, r5
 8004632:	e7c2      	b.n	80045ba <USB_ActivateEndpoint+0x132>
 8004634:	8818      	ldrh	r0, [r3, #0]
 8004636:	4208      	tst	r0, r1
 8004638:	d004      	beq.n	8004644 <USB_ActivateEndpoint+0x1bc>
 800463a:	8819      	ldrh	r1, [r3, #0]
 800463c:	4815      	ldr	r0, [pc, #84]	@ (8004694 <USB_ActivateEndpoint+0x20c>)
 800463e:	4021      	ands	r1, r4
 8004640:	4301      	orrs	r1, r0
 8004642:	8019      	strh	r1, [r3, #0]
 8004644:	8819      	ldrh	r1, [r3, #0]
 8004646:	0649      	lsls	r1, r1, #25
 8004648:	d504      	bpl.n	8004654 <USB_ActivateEndpoint+0x1cc>
 800464a:	8819      	ldrh	r1, [r3, #0]
 800464c:	4021      	ands	r1, r4
 800464e:	4c0c      	ldr	r4, [pc, #48]	@ (8004680 <USB_ActivateEndpoint+0x1f8>)
 8004650:	4321      	orrs	r1, r4
 8004652:	8019      	strh	r1, [r3, #0]
 8004654:	2f01      	cmp	r7, #1
 8004656:	d009      	beq.n	800466c <USB_ActivateEndpoint+0x1e4>
 8004658:	2120      	movs	r1, #32
 800465a:	881c      	ldrh	r4, [r3, #0]
 800465c:	4034      	ands	r4, r6
 800465e:	4061      	eors	r1, r4
 8004660:	4311      	orrs	r1, r2
 8004662:	b289      	uxth	r1, r1
 8004664:	8019      	strh	r1, [r3, #0]
 8004666:	8819      	ldrh	r1, [r3, #0]
 8004668:	4029      	ands	r1, r5
 800466a:	e754      	b.n	8004516 <USB_ActivateEndpoint+0x8e>
 800466c:	8819      	ldrh	r1, [r3, #0]
 800466e:	4031      	ands	r1, r6
 8004670:	e7f6      	b.n	8004660 <USB_ActivateEndpoint+0x1d8>
 8004672:	46c0      	nop			@ (mov r8, r8)
 8004674:	ffff898f 	.word	0xffff898f
 8004678:	ffff8080 	.word	0xffff8080
 800467c:	ffff8f8f 	.word	0xffff8f8f
 8004680:	000080c0 	.word	0x000080c0
 8004684:	ffff8fbf 	.word	0xffff8fbf
 8004688:	00000404 	.word	0x00000404
 800468c:	00000406 	.word	0x00000406
 8004690:	ffff8000 	.word	0xffff8000
 8004694:	0000c080 	.word	0x0000c080
 8004698:	ffffbf8f 	.word	0xffffbf8f
 800469c:	00008180 	.word	0x00008180
 80046a0:	ffff8e8f 	.word	0xffff8e8f

080046a4 <USB_DeactivateEndpoint>:
 80046a4:	b5f0      	push	{r4, r5, r6, r7, lr}
 80046a6:	780b      	ldrb	r3, [r1, #0]
 80046a8:	784a      	ldrb	r2, [r1, #1]
 80046aa:	7b09      	ldrb	r1, [r1, #12]
 80046ac:	009b      	lsls	r3, r3, #2
 80046ae:	18c0      	adds	r0, r0, r3
 80046b0:	4b31      	ldr	r3, [pc, #196]	@ (8004778 <USB_DeactivateEndpoint+0xd4>)
 80046b2:	2900      	cmp	r1, #0
 80046b4:	d11a      	bne.n	80046ec <USB_DeactivateEndpoint+0x48>
 80046b6:	2a00      	cmp	r2, #0
 80046b8:	d00c      	beq.n	80046d4 <USB_DeactivateEndpoint+0x30>
 80046ba:	8802      	ldrh	r2, [r0, #0]
 80046bc:	0652      	lsls	r2, r2, #25
 80046be:	d505      	bpl.n	80046cc <USB_DeactivateEndpoint+0x28>
 80046c0:	8802      	ldrh	r2, [r0, #0]
 80046c2:	492e      	ldr	r1, [pc, #184]	@ (800477c <USB_DeactivateEndpoint+0xd8>)
 80046c4:	400a      	ands	r2, r1
 80046c6:	492e      	ldr	r1, [pc, #184]	@ (8004780 <USB_DeactivateEndpoint+0xdc>)
 80046c8:	430a      	orrs	r2, r1
 80046ca:	8002      	strh	r2, [r0, #0]
 80046cc:	8802      	ldrh	r2, [r0, #0]
 80046ce:	492d      	ldr	r1, [pc, #180]	@ (8004784 <USB_DeactivateEndpoint+0xe0>)
 80046d0:	400a      	ands	r2, r1
 80046d2:	e02f      	b.n	8004734 <USB_DeactivateEndpoint+0x90>
 80046d4:	8802      	ldrh	r2, [r0, #0]
 80046d6:	0452      	lsls	r2, r2, #17
 80046d8:	d505      	bpl.n	80046e6 <USB_DeactivateEndpoint+0x42>
 80046da:	8802      	ldrh	r2, [r0, #0]
 80046dc:	4927      	ldr	r1, [pc, #156]	@ (800477c <USB_DeactivateEndpoint+0xd8>)
 80046de:	400a      	ands	r2, r1
 80046e0:	4929      	ldr	r1, [pc, #164]	@ (8004788 <USB_DeactivateEndpoint+0xe4>)
 80046e2:	430a      	orrs	r2, r1
 80046e4:	8002      	strh	r2, [r0, #0]
 80046e6:	8802      	ldrh	r2, [r0, #0]
 80046e8:	4928      	ldr	r1, [pc, #160]	@ (800478c <USB_DeactivateEndpoint+0xe8>)
 80046ea:	e7f1      	b.n	80046d0 <USB_DeactivateEndpoint+0x2c>
 80046ec:	2780      	movs	r7, #128	@ 0x80
 80046ee:	4e23      	ldr	r6, [pc, #140]	@ (800477c <USB_DeactivateEndpoint+0xd8>)
 80046f0:	4d24      	ldr	r5, [pc, #144]	@ (8004784 <USB_DeactivateEndpoint+0xe0>)
 80046f2:	4926      	ldr	r1, [pc, #152]	@ (800478c <USB_DeactivateEndpoint+0xe8>)
 80046f4:	01ff      	lsls	r7, r7, #7
 80046f6:	2a00      	cmp	r2, #0
 80046f8:	d121      	bne.n	800473e <USB_DeactivateEndpoint+0x9a>
 80046fa:	8802      	ldrh	r2, [r0, #0]
 80046fc:	423a      	tst	r2, r7
 80046fe:	d004      	beq.n	800470a <USB_DeactivateEndpoint+0x66>
 8004700:	8802      	ldrh	r2, [r0, #0]
 8004702:	4c21      	ldr	r4, [pc, #132]	@ (8004788 <USB_DeactivateEndpoint+0xe4>)
 8004704:	4032      	ands	r2, r6
 8004706:	4322      	orrs	r2, r4
 8004708:	8002      	strh	r2, [r0, #0]
 800470a:	8802      	ldrh	r2, [r0, #0]
 800470c:	4c20      	ldr	r4, [pc, #128]	@ (8004790 <USB_DeactivateEndpoint+0xec>)
 800470e:	0652      	lsls	r2, r2, #25
 8004710:	d504      	bpl.n	800471c <USB_DeactivateEndpoint+0x78>
 8004712:	8802      	ldrh	r2, [r0, #0]
 8004714:	4032      	ands	r2, r6
 8004716:	4322      	orrs	r2, r4
 8004718:	b292      	uxth	r2, r2
 800471a:	8002      	strh	r2, [r0, #0]
 800471c:	8802      	ldrh	r2, [r0, #0]
 800471e:	4032      	ands	r2, r6
 8004720:	4314      	orrs	r4, r2
 8004722:	b2a4      	uxth	r4, r4
 8004724:	8004      	strh	r4, [r0, #0]
 8004726:	8802      	ldrh	r2, [r0, #0]
 8004728:	400a      	ands	r2, r1
 800472a:	431a      	orrs	r2, r3
 800472c:	b292      	uxth	r2, r2
 800472e:	8002      	strh	r2, [r0, #0]
 8004730:	8802      	ldrh	r2, [r0, #0]
 8004732:	402a      	ands	r2, r5
 8004734:	4313      	orrs	r3, r2
 8004736:	b29b      	uxth	r3, r3
 8004738:	8003      	strh	r3, [r0, #0]
 800473a:	2000      	movs	r0, #0
 800473c:	bdf0      	pop	{r4, r5, r6, r7, pc}
 800473e:	8802      	ldrh	r2, [r0, #0]
 8004740:	4c14      	ldr	r4, [pc, #80]	@ (8004794 <USB_DeactivateEndpoint+0xf0>)
 8004742:	423a      	tst	r2, r7
 8004744:	d004      	beq.n	8004750 <USB_DeactivateEndpoint+0xac>
 8004746:	8802      	ldrh	r2, [r0, #0]
 8004748:	4032      	ands	r2, r6
 800474a:	4322      	orrs	r2, r4
 800474c:	b292      	uxth	r2, r2
 800474e:	8002      	strh	r2, [r0, #0]
 8004750:	8802      	ldrh	r2, [r0, #0]
 8004752:	0652      	lsls	r2, r2, #25
 8004754:	d504      	bpl.n	8004760 <USB_DeactivateEndpoint+0xbc>
 8004756:	8802      	ldrh	r2, [r0, #0]
 8004758:	4f09      	ldr	r7, [pc, #36]	@ (8004780 <USB_DeactivateEndpoint+0xdc>)
 800475a:	4032      	ands	r2, r6
 800475c:	433a      	orrs	r2, r7
 800475e:	8002      	strh	r2, [r0, #0]
 8004760:	8802      	ldrh	r2, [r0, #0]
 8004762:	4032      	ands	r2, r6
 8004764:	4314      	orrs	r4, r2
 8004766:	b2a4      	uxth	r4, r4
 8004768:	8004      	strh	r4, [r0, #0]
 800476a:	8802      	ldrh	r2, [r0, #0]
 800476c:	402a      	ands	r2, r5
 800476e:	431a      	orrs	r2, r3
 8004770:	b292      	uxth	r2, r2
 8004772:	8002      	strh	r2, [r0, #0]
 8004774:	8802      	ldrh	r2, [r0, #0]
 8004776:	e7ab      	b.n	80046d0 <USB_DeactivateEndpoint+0x2c>
 8004778:	ffff8080 	.word	0xffff8080
 800477c:	ffff8f8f 	.word	0xffff8f8f
 8004780:	000080c0 	.word	0x000080c0
 8004784:	ffff8fbf 	.word	0xffff8fbf
 8004788:	0000c080 	.word	0x0000c080
 800478c:	ffffbf8f 	.word	0xffffbf8f
 8004790:	ffff80c0 	.word	0xffff80c0
 8004794:	ffffc080 	.word	0xffffc080

08004798 <USB_EPSetStall>:
 8004798:	780b      	ldrb	r3, [r1, #0]
 800479a:	7849      	ldrb	r1, [r1, #1]
 800479c:	009b      	lsls	r3, r3, #2
 800479e:	4a0c      	ldr	r2, [pc, #48]	@ (80047d0 <USB_EPSetStall+0x38>)
 80047a0:	18c0      	adds	r0, r0, r3
 80047a2:	2900      	cmp	r1, #0
 80047a4:	d009      	beq.n	80047ba <USB_EPSetStall+0x22>
 80047a6:	8801      	ldrh	r1, [r0, #0]
 80047a8:	4b0a      	ldr	r3, [pc, #40]	@ (80047d4 <USB_EPSetStall+0x3c>)
 80047aa:	4019      	ands	r1, r3
 80047ac:	2310      	movs	r3, #16
 80047ae:	404b      	eors	r3, r1
 80047b0:	4313      	orrs	r3, r2
 80047b2:	b29b      	uxth	r3, r3
 80047b4:	8003      	strh	r3, [r0, #0]
 80047b6:	2000      	movs	r0, #0
 80047b8:	4770      	bx	lr
 80047ba:	8801      	ldrh	r1, [r0, #0]
 80047bc:	4b06      	ldr	r3, [pc, #24]	@ (80047d8 <USB_EPSetStall+0x40>)
 80047be:	4019      	ands	r1, r3
 80047c0:	2380      	movs	r3, #128	@ 0x80
 80047c2:	015b      	lsls	r3, r3, #5
 80047c4:	404b      	eors	r3, r1
 80047c6:	431a      	orrs	r2, r3
 80047c8:	b292      	uxth	r2, r2
 80047ca:	8002      	strh	r2, [r0, #0]
 80047cc:	e7f3      	b.n	80047b6 <USB_EPSetStall+0x1e>
 80047ce:	46c0      	nop			@ (mov r8, r8)
 80047d0:	ffff8080 	.word	0xffff8080
 80047d4:	ffff8fbf 	.word	0xffff8fbf
 80047d8:	ffffbf8f 	.word	0xffffbf8f

080047dc <USB_EPClearStall>:
 80047dc:	7b0b      	ldrb	r3, [r1, #12]
 80047de:	2b00      	cmp	r3, #0
 80047e0:	d119      	bne.n	8004816 <USB_EPClearStall+0x3a>
 80047e2:	780b      	ldrb	r3, [r1, #0]
 80047e4:	784a      	ldrb	r2, [r1, #1]
 80047e6:	009b      	lsls	r3, r3, #2
 80047e8:	18c0      	adds	r0, r0, r3
 80047ea:	8803      	ldrh	r3, [r0, #0]
 80047ec:	2a00      	cmp	r2, #0
 80047ee:	d014      	beq.n	800481a <USB_EPClearStall+0x3e>
 80047f0:	065b      	lsls	r3, r3, #25
 80047f2:	d505      	bpl.n	8004800 <USB_EPClearStall+0x24>
 80047f4:	8803      	ldrh	r3, [r0, #0]
 80047f6:	4a10      	ldr	r2, [pc, #64]	@ (8004838 <USB_EPClearStall+0x5c>)
 80047f8:	4013      	ands	r3, r2
 80047fa:	4a10      	ldr	r2, [pc, #64]	@ (800483c <USB_EPClearStall+0x60>)
 80047fc:	4313      	orrs	r3, r2
 80047fe:	8003      	strh	r3, [r0, #0]
 8004800:	78cb      	ldrb	r3, [r1, #3]
 8004802:	2b01      	cmp	r3, #1
 8004804:	d007      	beq.n	8004816 <USB_EPClearStall+0x3a>
 8004806:	4b0e      	ldr	r3, [pc, #56]	@ (8004840 <USB_EPClearStall+0x64>)
 8004808:	8802      	ldrh	r2, [r0, #0]
 800480a:	401a      	ands	r2, r3
 800480c:	2320      	movs	r3, #32
 800480e:	4053      	eors	r3, r2
 8004810:	4a0c      	ldr	r2, [pc, #48]	@ (8004844 <USB_EPClearStall+0x68>)
 8004812:	4313      	orrs	r3, r2
 8004814:	8003      	strh	r3, [r0, #0]
 8004816:	2000      	movs	r0, #0
 8004818:	4770      	bx	lr
 800481a:	045b      	lsls	r3, r3, #17
 800481c:	d505      	bpl.n	800482a <USB_EPClearStall+0x4e>
 800481e:	8803      	ldrh	r3, [r0, #0]
 8004820:	4a05      	ldr	r2, [pc, #20]	@ (8004838 <USB_EPClearStall+0x5c>)
 8004822:	4013      	ands	r3, r2
 8004824:	4a08      	ldr	r2, [pc, #32]	@ (8004848 <USB_EPClearStall+0x6c>)
 8004826:	4313      	orrs	r3, r2
 8004828:	8003      	strh	r3, [r0, #0]
 800482a:	4b08      	ldr	r3, [pc, #32]	@ (800484c <USB_EPClearStall+0x70>)
 800482c:	8802      	ldrh	r2, [r0, #0]
 800482e:	401a      	ands	r2, r3
 8004830:	23c0      	movs	r3, #192	@ 0xc0
 8004832:	019b      	lsls	r3, r3, #6
 8004834:	e7eb      	b.n	800480e <USB_EPClearStall+0x32>
 8004836:	46c0      	nop			@ (mov r8, r8)
 8004838:	ffff8f8f 	.word	0xffff8f8f
 800483c:	000080c0 	.word	0x000080c0
 8004840:	ffff8fbf 	.word	0xffff8fbf
 8004844:	00008080 	.word	0x00008080
 8004848:	0000c080 	.word	0x0000c080
 800484c:	ffffbf8f 	.word	0xffffbf8f

08004850 <USB_SetDevAddress>:
 8004850:	2900      	cmp	r1, #0
 8004852:	d102      	bne.n	800485a <USB_SetDevAddress+0xa>
 8004854:	2380      	movs	r3, #128	@ 0x80
 8004856:	304c      	adds	r0, #76	@ 0x4c
 8004858:	8003      	strh	r3, [r0, #0]
 800485a:	2000      	movs	r0, #0
 800485c:	4770      	bx	lr

0800485e <USB_DevConnect>:
 800485e:	2280      	movs	r2, #128	@ 0x80
 8004860:	3058      	adds	r0, #88	@ 0x58
 8004862:	8803      	ldrh	r3, [r0, #0]
 8004864:	0212      	lsls	r2, r2, #8
 8004866:	4313      	orrs	r3, r2
 8004868:	8003      	strh	r3, [r0, #0]
 800486a:	2000      	movs	r0, #0
 800486c:	4770      	bx	lr

0800486e <USB_ReadInterrupts>:
 800486e:	3006      	adds	r0, #6
 8004870:	8fc0      	ldrh	r0, [r0, #62]	@ 0x3e
 8004872:	b280      	uxth	r0, r0
 8004874:	4770      	bx	lr

08004876 <USB_WritePMA>:
 8004876:	b530      	push	{r4, r5, lr}
 8004878:	2480      	movs	r4, #128	@ 0x80
 800487a:	3301      	adds	r3, #1
 800487c:	00e4      	lsls	r4, r4, #3
 800487e:	1912      	adds	r2, r2, r4
 8004880:	085b      	lsrs	r3, r3, #1
 8004882:	1880      	adds	r0, r0, r2
 8004884:	005b      	lsls	r3, r3, #1
 8004886:	18cb      	adds	r3, r1, r3
 8004888:	1a40      	subs	r0, r0, r1
 800488a:	180c      	adds	r4, r1, r0
 800488c:	428b      	cmp	r3, r1
 800488e:	d100      	bne.n	8004892 <USB_WritePMA+0x1c>
 8004890:	bd30      	pop	{r4, r5, pc}
 8004892:	784a      	ldrb	r2, [r1, #1]
 8004894:	780d      	ldrb	r5, [r1, #0]
 8004896:	0212      	lsls	r2, r2, #8
 8004898:	432a      	orrs	r2, r5
 800489a:	8022      	strh	r2, [r4, #0]
 800489c:	3102      	adds	r1, #2
 800489e:	e7f4      	b.n	800488a <USB_WritePMA+0x14>

080048a0 <USB_EPStartXfer>:
 80048a0:	b5f0      	push	{r4, r5, r6, r7, lr}
 80048a2:	784a      	ldrb	r2, [r1, #1]
 80048a4:	0005      	movs	r5, r0
 80048a6:	000c      	movs	r4, r1
 80048a8:	7b0b      	ldrb	r3, [r1, #12]
 80048aa:	b087      	sub	sp, #28
 80048ac:	2a01      	cmp	r2, #1
 80048ae:	d000      	beq.n	80048b2 <USB_EPStartXfer+0x12>
 80048b0:	e11b      	b.n	8004aea <USB_EPStartXfer+0x24a>
 80048b2:	690a      	ldr	r2, [r1, #16]
 80048b4:	698f      	ldr	r7, [r1, #24]
 80048b6:	9202      	str	r2, [sp, #8]
 80048b8:	4297      	cmp	r7, r2
 80048ba:	d900      	bls.n	80048be <USB_EPStartXfer+0x1e>
 80048bc:	0017      	movs	r7, r2
 80048be:	002a      	movs	r2, r5
 80048c0:	3250      	adds	r2, #80	@ 0x50
 80048c2:	6961      	ldr	r1, [r4, #20]
 80048c4:	9201      	str	r2, [sp, #4]
 80048c6:	2b00      	cmp	r3, #0
 80048c8:	d11d      	bne.n	8004906 <USB_EPStartXfer+0x66>
 80048ca:	b2bf      	uxth	r7, r7
 80048cc:	003b      	movs	r3, r7
 80048ce:	88e2      	ldrh	r2, [r4, #6]
 80048d0:	0028      	movs	r0, r5
 80048d2:	f7ff ffd0 	bl	8004876 <USB_WritePMA>
 80048d6:	9b01      	ldr	r3, [sp, #4]
 80048d8:	4ab6      	ldr	r2, [pc, #728]	@ (8004bb4 <USB_EPStartXfer+0x314>)
 80048da:	8819      	ldrh	r1, [r3, #0]
 80048dc:	7823      	ldrb	r3, [r4, #0]
 80048de:	18aa      	adds	r2, r5, r2
 80048e0:	00db      	lsls	r3, r3, #3
 80048e2:	1852      	adds	r2, r2, r1
 80048e4:	189b      	adds	r3, r3, r2
 80048e6:	801f      	strh	r7, [r3, #0]
 80048e8:	7823      	ldrb	r3, [r4, #0]
 80048ea:	4ab3      	ldr	r2, [pc, #716]	@ (8004bb8 <USB_EPStartXfer+0x318>)
 80048ec:	009b      	lsls	r3, r3, #2
 80048ee:	18eb      	adds	r3, r5, r3
 80048f0:	8819      	ldrh	r1, [r3, #0]
 80048f2:	4011      	ands	r1, r2
 80048f4:	2230      	movs	r2, #48	@ 0x30
 80048f6:	404a      	eors	r2, r1
 80048f8:	49b0      	ldr	r1, [pc, #704]	@ (8004bbc <USB_EPStartXfer+0x31c>)
 80048fa:	430a      	orrs	r2, r1
 80048fc:	b292      	uxth	r2, r2
 80048fe:	801a      	strh	r2, [r3, #0]
 8004900:	2000      	movs	r0, #0
 8004902:	b007      	add	sp, #28
 8004904:	bdf0      	pop	{r4, r5, r6, r7, pc}
 8004906:	7822      	ldrb	r2, [r4, #0]
 8004908:	6a26      	ldr	r6, [r4, #32]
 800490a:	0093      	lsls	r3, r2, #2
 800490c:	00d2      	lsls	r2, r2, #3
 800490e:	9203      	str	r2, [sp, #12]
 8004910:	78e0      	ldrb	r0, [r4, #3]
 8004912:	18eb      	adds	r3, r5, r3
 8004914:	2802      	cmp	r0, #2
 8004916:	d000      	beq.n	800491a <USB_EPStartXfer+0x7a>
 8004918:	e0d1      	b.n	8004abe <USB_EPStartXfer+0x21e>
 800491a:	9a02      	ldr	r2, [sp, #8]
 800491c:	42b2      	cmp	r2, r6
 800491e:	d300      	bcc.n	8004922 <USB_EPStartXfer+0x82>
 8004920:	e0bb      	b.n	8004a9a <USB_EPStartXfer+0x1fa>
 8004922:	881a      	ldrh	r2, [r3, #0]
 8004924:	48a6      	ldr	r0, [pc, #664]	@ (8004bc0 <USB_EPStartXfer+0x320>)
 8004926:	1bf6      	subs	r6, r6, r7
 8004928:	4010      	ands	r0, r2
 800492a:	4aa6      	ldr	r2, [pc, #664]	@ (8004bc4 <USB_EPStartXfer+0x324>)
 800492c:	4310      	orrs	r0, r2
 800492e:	8018      	strh	r0, [r3, #0]
 8004930:	881b      	ldrh	r3, [r3, #0]
 8004932:	2040      	movs	r0, #64	@ 0x40
 8004934:	469c      	mov	ip, r3
 8004936:	4662      	mov	r2, ip
 8004938:	4002      	ands	r2, r0
 800493a:	9205      	str	r2, [sp, #20]
 800493c:	4662      	mov	r2, ip
 800493e:	19cb      	adds	r3, r1, r7
 8004940:	9304      	str	r3, [sp, #16]
 8004942:	6226      	str	r6, [r4, #32]
 8004944:	b2bb      	uxth	r3, r7
 8004946:	4202      	tst	r2, r0
 8004948:	d055      	beq.n	80049f6 <USB_EPStartXfer+0x156>
 800494a:	9a01      	ldr	r2, [sp, #4]
 800494c:	8812      	ldrh	r2, [r2, #0]
 800494e:	4694      	mov	ip, r2
 8004950:	4a9d      	ldr	r2, [pc, #628]	@ (8004bc8 <USB_EPStartXfer+0x328>)
 8004952:	18a8      	adds	r0, r5, r2
 8004954:	9a03      	ldr	r2, [sp, #12]
 8004956:	4460      	add	r0, ip
 8004958:	1882      	adds	r2, r0, r2
 800495a:	8013      	strh	r3, [r2, #0]
 800495c:	8962      	ldrh	r2, [r4, #10]
 800495e:	0028      	movs	r0, r5
 8004960:	f7ff ff89 	bl	8004876 <USB_WritePMA>
 8004964:	9b04      	ldr	r3, [sp, #16]
 8004966:	9a02      	ldr	r2, [sp, #8]
 8004968:	6163      	str	r3, [r4, #20]
 800496a:	2300      	movs	r3, #0
 800496c:	42b2      	cmp	r2, r6
 800496e:	d201      	bcs.n	8004974 <USB_EPStartXfer+0xd4>
 8004970:	1bf3      	subs	r3, r6, r7
 8004972:	003e      	movs	r6, r7
 8004974:	7862      	ldrb	r2, [r4, #1]
 8004976:	6223      	str	r3, [r4, #32]
 8004978:	b2b3      	uxth	r3, r6
 800497a:	2a00      	cmp	r2, #0
 800497c:	d12e      	bne.n	80049dc <USB_EPStartXfer+0x13c>
 800497e:	9a01      	ldr	r2, [sp, #4]
 8004980:	498c      	ldr	r1, [pc, #560]	@ (8004bb4 <USB_EPStartXfer+0x314>)
 8004982:	8810      	ldrh	r0, [r2, #0]
 8004984:	7822      	ldrb	r2, [r4, #0]
 8004986:	1869      	adds	r1, r5, r1
 8004988:	1809      	adds	r1, r1, r0
 800498a:	00d2      	lsls	r2, r2, #3
 800498c:	1852      	adds	r2, r2, r1
 800498e:	8811      	ldrh	r1, [r2, #0]
 8004990:	0589      	lsls	r1, r1, #22
 8004992:	0d89      	lsrs	r1, r1, #22
 8004994:	8011      	strh	r1, [r2, #0]
 8004996:	2e3e      	cmp	r6, #62	@ 0x3e
 8004998:	d90c      	bls.n	80049b4 <USB_EPStartXfer+0x114>
 800499a:	201f      	movs	r0, #31
 800499c:	4030      	ands	r0, r6
 800499e:	0971      	lsrs	r1, r6, #5
 80049a0:	4246      	negs	r6, r0
 80049a2:	4170      	adcs	r0, r6
 80049a4:	1a09      	subs	r1, r1, r0
 80049a6:	8810      	ldrh	r0, [r2, #0]
 80049a8:	0289      	lsls	r1, r1, #10
 80049aa:	4308      	orrs	r0, r1
 80049ac:	4987      	ldr	r1, [pc, #540]	@ (8004bcc <USB_EPStartXfer+0x32c>)
 80049ae:	4301      	orrs	r1, r0
 80049b0:	b289      	uxth	r1, r1
 80049b2:	e005      	b.n	80049c0 <USB_EPStartXfer+0x120>
 80049b4:	2e00      	cmp	r6, #0
 80049b6:	d10a      	bne.n	80049ce <USB_EPStartXfer+0x12e>
 80049b8:	2080      	movs	r0, #128	@ 0x80
 80049ba:	8811      	ldrh	r1, [r2, #0]
 80049bc:	0200      	lsls	r0, r0, #8
 80049be:	4301      	orrs	r1, r0
 80049c0:	8011      	strh	r1, [r2, #0]
 80049c2:	8922      	ldrh	r2, [r4, #8]
 80049c4:	9904      	ldr	r1, [sp, #16]
 80049c6:	0028      	movs	r0, r5
 80049c8:	f7ff ff55 	bl	8004876 <USB_WritePMA>
 80049cc:	e78c      	b.n	80048e8 <USB_EPStartXfer+0x48>
 80049ce:	2101      	movs	r1, #1
 80049d0:	0870      	lsrs	r0, r6, #1
 80049d2:	4031      	ands	r1, r6
 80049d4:	1840      	adds	r0, r0, r1
 80049d6:	0280      	lsls	r0, r0, #10
 80049d8:	8811      	ldrh	r1, [r2, #0]
 80049da:	e7e8      	b.n	80049ae <USB_EPStartXfer+0x10e>
 80049dc:	2a01      	cmp	r2, #1
 80049de:	d1f0      	bne.n	80049c2 <USB_EPStartXfer+0x122>
 80049e0:	002a      	movs	r2, r5
 80049e2:	4974      	ldr	r1, [pc, #464]	@ (8004bb4 <USB_EPStartXfer+0x314>)
 80049e4:	3250      	adds	r2, #80	@ 0x50
 80049e6:	8810      	ldrh	r0, [r2, #0]
 80049e8:	7822      	ldrb	r2, [r4, #0]
 80049ea:	1869      	adds	r1, r5, r1
 80049ec:	00d2      	lsls	r2, r2, #3
 80049ee:	1809      	adds	r1, r1, r0
 80049f0:	1852      	adds	r2, r2, r1
 80049f2:	8013      	strh	r3, [r2, #0]
 80049f4:	e7e5      	b.n	80049c2 <USB_EPStartXfer+0x122>
 80049f6:	9a01      	ldr	r2, [sp, #4]
 80049f8:	8812      	ldrh	r2, [r2, #0]
 80049fa:	4694      	mov	ip, r2
 80049fc:	4a6d      	ldr	r2, [pc, #436]	@ (8004bb4 <USB_EPStartXfer+0x314>)
 80049fe:	18a8      	adds	r0, r5, r2
 8004a00:	9a03      	ldr	r2, [sp, #12]
 8004a02:	4460      	add	r0, ip
 8004a04:	1882      	adds	r2, r0, r2
 8004a06:	8013      	strh	r3, [r2, #0]
 8004a08:	8922      	ldrh	r2, [r4, #8]
 8004a0a:	0028      	movs	r0, r5
 8004a0c:	f7ff ff33 	bl	8004876 <USB_WritePMA>
 8004a10:	9b04      	ldr	r3, [sp, #16]
 8004a12:	9a02      	ldr	r2, [sp, #8]
 8004a14:	6163      	str	r3, [r4, #20]
 8004a16:	9b05      	ldr	r3, [sp, #20]
 8004a18:	42b2      	cmp	r2, r6
 8004a1a:	d201      	bcs.n	8004a20 <USB_EPStartXfer+0x180>
 8004a1c:	1bf3      	subs	r3, r6, r7
 8004a1e:	003e      	movs	r6, r7
 8004a20:	7862      	ldrb	r2, [r4, #1]
 8004a22:	6223      	str	r3, [r4, #32]
 8004a24:	b2b3      	uxth	r3, r6
 8004a26:	2a00      	cmp	r2, #0
 8004a28:	d12a      	bne.n	8004a80 <USB_EPStartXfer+0x1e0>
 8004a2a:	9a01      	ldr	r2, [sp, #4]
 8004a2c:	4966      	ldr	r1, [pc, #408]	@ (8004bc8 <USB_EPStartXfer+0x328>)
 8004a2e:	8810      	ldrh	r0, [r2, #0]
 8004a30:	7822      	ldrb	r2, [r4, #0]
 8004a32:	1869      	adds	r1, r5, r1
 8004a34:	1809      	adds	r1, r1, r0
 8004a36:	00d2      	lsls	r2, r2, #3
 8004a38:	1852      	adds	r2, r2, r1
 8004a3a:	8811      	ldrh	r1, [r2, #0]
 8004a3c:	0589      	lsls	r1, r1, #22
 8004a3e:	0d89      	lsrs	r1, r1, #22
 8004a40:	8011      	strh	r1, [r2, #0]
 8004a42:	2e3e      	cmp	r6, #62	@ 0x3e
 8004a44:	d90c      	bls.n	8004a60 <USB_EPStartXfer+0x1c0>
 8004a46:	201f      	movs	r0, #31
 8004a48:	4030      	ands	r0, r6
 8004a4a:	0971      	lsrs	r1, r6, #5
 8004a4c:	4246      	negs	r6, r0
 8004a4e:	4170      	adcs	r0, r6
 8004a50:	1a09      	subs	r1, r1, r0
 8004a52:	8810      	ldrh	r0, [r2, #0]
 8004a54:	0289      	lsls	r1, r1, #10
 8004a56:	4308      	orrs	r0, r1
 8004a58:	495c      	ldr	r1, [pc, #368]	@ (8004bcc <USB_EPStartXfer+0x32c>)
 8004a5a:	4301      	orrs	r1, r0
 8004a5c:	b289      	uxth	r1, r1
 8004a5e:	e005      	b.n	8004a6c <USB_EPStartXfer+0x1cc>
 8004a60:	2e00      	cmp	r6, #0
 8004a62:	d106      	bne.n	8004a72 <USB_EPStartXfer+0x1d2>
 8004a64:	2080      	movs	r0, #128	@ 0x80
 8004a66:	8811      	ldrh	r1, [r2, #0]
 8004a68:	0200      	lsls	r0, r0, #8
 8004a6a:	4301      	orrs	r1, r0
 8004a6c:	8011      	strh	r1, [r2, #0]
 8004a6e:	8962      	ldrh	r2, [r4, #10]
 8004a70:	e7a8      	b.n	80049c4 <USB_EPStartXfer+0x124>
 8004a72:	2101      	movs	r1, #1
 8004a74:	0870      	lsrs	r0, r6, #1
 8004a76:	400e      	ands	r6, r1
 8004a78:	1980      	adds	r0, r0, r6
 8004a7a:	8811      	ldrh	r1, [r2, #0]
 8004a7c:	0280      	lsls	r0, r0, #10
 8004a7e:	e7ec      	b.n	8004a5a <USB_EPStartXfer+0x1ba>
 8004a80:	2a01      	cmp	r2, #1
 8004a82:	d1f4      	bne.n	8004a6e <USB_EPStartXfer+0x1ce>
 8004a84:	002a      	movs	r2, r5
 8004a86:	4950      	ldr	r1, [pc, #320]	@ (8004bc8 <USB_EPStartXfer+0x328>)
 8004a88:	3250      	adds	r2, #80	@ 0x50
 8004a8a:	8810      	ldrh	r0, [r2, #0]
 8004a8c:	7822      	ldrb	r2, [r4, #0]
 8004a8e:	1869      	adds	r1, r5, r1
 8004a90:	00d2      	lsls	r2, r2, #3
 8004a92:	1809      	adds	r1, r1, r0
 8004a94:	1852      	adds	r2, r2, r1
 8004a96:	8013      	strh	r3, [r2, #0]
 8004a98:	e7e9      	b.n	8004a6e <USB_EPStartXfer+0x1ce>
 8004a9a:	8818      	ldrh	r0, [r3, #0]
 8004a9c:	4f4c      	ldr	r7, [pc, #304]	@ (8004bd0 <USB_EPStartXfer+0x330>)
 8004a9e:	4a47      	ldr	r2, [pc, #284]	@ (8004bbc <USB_EPStartXfer+0x31c>)
 8004aa0:	4038      	ands	r0, r7
 8004aa2:	4310      	orrs	r0, r2
 8004aa4:	b280      	uxth	r0, r0
 8004aa6:	8018      	strh	r0, [r3, #0]
 8004aa8:	9b01      	ldr	r3, [sp, #4]
 8004aaa:	9a03      	ldr	r2, [sp, #12]
 8004aac:	8818      	ldrh	r0, [r3, #0]
 8004aae:	4b41      	ldr	r3, [pc, #260]	@ (8004bb4 <USB_EPStartXfer+0x314>)
 8004ab0:	18eb      	adds	r3, r5, r3
 8004ab2:	181b      	adds	r3, r3, r0
 8004ab4:	189a      	adds	r2, r3, r2
 8004ab6:	b2b3      	uxth	r3, r6
 8004ab8:	8013      	strh	r3, [r2, #0]
 8004aba:	8922      	ldrh	r2, [r4, #8]
 8004abc:	e783      	b.n	80049c6 <USB_EPStartXfer+0x126>
 8004abe:	8818      	ldrh	r0, [r3, #0]
 8004ac0:	1bf6      	subs	r6, r6, r7
 8004ac2:	9a01      	ldr	r2, [sp, #4]
 8004ac4:	6226      	str	r6, [r4, #32]
 8004ac6:	8816      	ldrh	r6, [r2, #0]
 8004ac8:	b2bb      	uxth	r3, r7
 8004aca:	0640      	lsls	r0, r0, #25
 8004acc:	d507      	bpl.n	8004ade <USB_EPStartXfer+0x23e>
 8004ace:	4a3e      	ldr	r2, [pc, #248]	@ (8004bc8 <USB_EPStartXfer+0x328>)
 8004ad0:	18a8      	adds	r0, r5, r2
 8004ad2:	9a03      	ldr	r2, [sp, #12]
 8004ad4:	1980      	adds	r0, r0, r6
 8004ad6:	1882      	adds	r2, r0, r2
 8004ad8:	8013      	strh	r3, [r2, #0]
 8004ada:	8962      	ldrh	r2, [r4, #10]
 8004adc:	e773      	b.n	80049c6 <USB_EPStartXfer+0x126>
 8004ade:	4a35      	ldr	r2, [pc, #212]	@ (8004bb4 <USB_EPStartXfer+0x314>)
 8004ae0:	18a8      	adds	r0, r5, r2
 8004ae2:	9a03      	ldr	r2, [sp, #12]
 8004ae4:	1980      	adds	r0, r0, r6
 8004ae6:	1882      	adds	r2, r0, r2
 8004ae8:	e7e6      	b.n	8004ab8 <USB_EPStartXfer+0x218>
 8004aea:	2b00      	cmp	r3, #0
 8004aec:	d13d      	bne.n	8004b6a <USB_EPStartXfer+0x2ca>
 8004aee:	698a      	ldr	r2, [r1, #24]
 8004af0:	6909      	ldr	r1, [r1, #16]
 8004af2:	428a      	cmp	r2, r1
 8004af4:	d901      	bls.n	8004afa <USB_EPStartXfer+0x25a>
 8004af6:	1a53      	subs	r3, r2, r1
 8004af8:	000a      	movs	r2, r1
 8004afa:	61a3      	str	r3, [r4, #24]
 8004afc:	002b      	movs	r3, r5
 8004afe:	4932      	ldr	r1, [pc, #200]	@ (8004bc8 <USB_EPStartXfer+0x328>)
 8004b00:	3350      	adds	r3, #80	@ 0x50
 8004b02:	8818      	ldrh	r0, [r3, #0]
 8004b04:	7823      	ldrb	r3, [r4, #0]
 8004b06:	1869      	adds	r1, r5, r1
 8004b08:	1809      	adds	r1, r1, r0
 8004b0a:	00db      	lsls	r3, r3, #3
 8004b0c:	185b      	adds	r3, r3, r1
 8004b0e:	8819      	ldrh	r1, [r3, #0]
 8004b10:	0589      	lsls	r1, r1, #22
 8004b12:	0d89      	lsrs	r1, r1, #22
 8004b14:	8019      	strh	r1, [r3, #0]
 8004b16:	2a3e      	cmp	r2, #62	@ 0x3e
 8004b18:	d919      	bls.n	8004b4e <USB_EPStartXfer+0x2ae>
 8004b1a:	201f      	movs	r0, #31
 8004b1c:	0951      	lsrs	r1, r2, #5
 8004b1e:	4002      	ands	r2, r0
 8004b20:	4250      	negs	r0, r2
 8004b22:	4142      	adcs	r2, r0
 8004b24:	1a89      	subs	r1, r1, r2
 8004b26:	881a      	ldrh	r2, [r3, #0]
 8004b28:	0289      	lsls	r1, r1, #10
 8004b2a:	4311      	orrs	r1, r2
 8004b2c:	4a27      	ldr	r2, [pc, #156]	@ (8004bcc <USB_EPStartXfer+0x32c>)
 8004b2e:	430a      	orrs	r2, r1
 8004b30:	b292      	uxth	r2, r2
 8004b32:	801a      	strh	r2, [r3, #0]
 8004b34:	7823      	ldrb	r3, [r4, #0]
 8004b36:	009b      	lsls	r3, r3, #2
 8004b38:	18ed      	adds	r5, r5, r3
 8004b3a:	882a      	ldrh	r2, [r5, #0]
 8004b3c:	4b25      	ldr	r3, [pc, #148]	@ (8004bd4 <USB_EPStartXfer+0x334>)
 8004b3e:	401a      	ands	r2, r3
 8004b40:	23c0      	movs	r3, #192	@ 0xc0
 8004b42:	019b      	lsls	r3, r3, #6
 8004b44:	4053      	eors	r3, r2
 8004b46:	4a24      	ldr	r2, [pc, #144]	@ (8004bd8 <USB_EPStartXfer+0x338>)
 8004b48:	4313      	orrs	r3, r2
 8004b4a:	802b      	strh	r3, [r5, #0]
 8004b4c:	e6d8      	b.n	8004900 <USB_EPStartXfer+0x60>
 8004b4e:	2a00      	cmp	r2, #0
 8004b50:	d104      	bne.n	8004b5c <USB_EPStartXfer+0x2bc>
 8004b52:	2180      	movs	r1, #128	@ 0x80
 8004b54:	881a      	ldrh	r2, [r3, #0]
 8004b56:	0209      	lsls	r1, r1, #8
 8004b58:	430a      	orrs	r2, r1
 8004b5a:	e7ea      	b.n	8004b32 <USB_EPStartXfer+0x292>
 8004b5c:	2001      	movs	r0, #1
 8004b5e:	0851      	lsrs	r1, r2, #1
 8004b60:	4002      	ands	r2, r0
 8004b62:	1889      	adds	r1, r1, r2
 8004b64:	0289      	lsls	r1, r1, #10
 8004b66:	881a      	ldrh	r2, [r3, #0]
 8004b68:	e7e1      	b.n	8004b2e <USB_EPStartXfer+0x28e>
 8004b6a:	78cb      	ldrb	r3, [r1, #3]
 8004b6c:	2b02      	cmp	r3, #2
 8004b6e:	d000      	beq.n	8004b72 <USB_EPStartXfer+0x2d2>
 8004b70:	e07c      	b.n	8004c6c <USB_EPStartXfer+0x3cc>
 8004b72:	2a00      	cmp	r2, #0
 8004b74:	d15f      	bne.n	8004c36 <USB_EPStartXfer+0x396>
 8004b76:	0006      	movs	r6, r0
 8004b78:	4a0e      	ldr	r2, [pc, #56]	@ (8004bb4 <USB_EPStartXfer+0x314>)
 8004b7a:	3650      	adds	r6, #80	@ 0x50
 8004b7c:	8833      	ldrh	r3, [r6, #0]
 8004b7e:	7808      	ldrb	r0, [r1, #0]
 8004b80:	18aa      	adds	r2, r5, r2
 8004b82:	18d2      	adds	r2, r2, r3
 8004b84:	00c0      	lsls	r0, r0, #3
 8004b86:	1812      	adds	r2, r2, r0
 8004b88:	8813      	ldrh	r3, [r2, #0]
 8004b8a:	059b      	lsls	r3, r3, #22
 8004b8c:	0d9b      	lsrs	r3, r3, #22
 8004b8e:	8013      	strh	r3, [r2, #0]
 8004b90:	690b      	ldr	r3, [r1, #16]
 8004b92:	2b3e      	cmp	r3, #62	@ 0x3e
 8004b94:	d922      	bls.n	8004bdc <USB_EPStartXfer+0x33c>
 8004b96:	271f      	movs	r7, #31
 8004b98:	401f      	ands	r7, r3
 8004b9a:	0039      	movs	r1, r7
 8004b9c:	424f      	negs	r7, r1
 8004b9e:	414f      	adcs	r7, r1
 8004ba0:	0959      	lsrs	r1, r3, #5
 8004ba2:	1bc9      	subs	r1, r1, r7
 8004ba4:	8817      	ldrh	r7, [r2, #0]
 8004ba6:	9101      	str	r1, [sp, #4]
 8004ba8:	0289      	lsls	r1, r1, #10
 8004baa:	430f      	orrs	r7, r1
 8004bac:	4907      	ldr	r1, [pc, #28]	@ (8004bcc <USB_EPStartXfer+0x32c>)
 8004bae:	4339      	orrs	r1, r7
 8004bb0:	b289      	uxth	r1, r1
 8004bb2:	e019      	b.n	8004be8 <USB_EPStartXfer+0x348>
 8004bb4:	00000402 	.word	0x00000402
 8004bb8:	ffff8fbf 	.word	0xffff8fbf
 8004bbc:	ffff8080 	.word	0xffff8080
 8004bc0:	ffff8f8f 	.word	0xffff8f8f
 8004bc4:	00008180 	.word	0x00008180
 8004bc8:	00000406 	.word	0x00000406
 8004bcc:	ffff8000 	.word	0xffff8000
 8004bd0:	ffff8e8f 	.word	0xffff8e8f
 8004bd4:	ffffbf8f 	.word	0xffffbf8f
 8004bd8:	00008080 	.word	0x00008080
 8004bdc:	2b00      	cmp	r3, #0
 8004bde:	d11c      	bne.n	8004c1a <USB_EPStartXfer+0x37a>
 8004be0:	2780      	movs	r7, #128	@ 0x80
 8004be2:	8811      	ldrh	r1, [r2, #0]
 8004be4:	023f      	lsls	r7, r7, #8
 8004be6:	4339      	orrs	r1, r7
 8004be8:	8011      	strh	r1, [r2, #0]
 8004bea:	4a51      	ldr	r2, [pc, #324]	@ (8004d30 <USB_EPStartXfer+0x490>)
 8004bec:	8831      	ldrh	r1, [r6, #0]
 8004bee:	18aa      	adds	r2, r5, r2
 8004bf0:	1852      	adds	r2, r2, r1
 8004bf2:	1812      	adds	r2, r2, r0
 8004bf4:	8811      	ldrh	r1, [r2, #0]
 8004bf6:	0589      	lsls	r1, r1, #22
 8004bf8:	0d89      	lsrs	r1, r1, #22
 8004bfa:	8011      	strh	r1, [r2, #0]
 8004bfc:	2b3e      	cmp	r3, #62	@ 0x3e
 8004bfe:	d913      	bls.n	8004c28 <USB_EPStartXfer+0x388>
 8004c00:	201f      	movs	r0, #31
 8004c02:	0959      	lsrs	r1, r3, #5
 8004c04:	4003      	ands	r3, r0
 8004c06:	4258      	negs	r0, r3
 8004c08:	4143      	adcs	r3, r0
 8004c0a:	1ac9      	subs	r1, r1, r3
 8004c0c:	8813      	ldrh	r3, [r2, #0]
 8004c0e:	0289      	lsls	r1, r1, #10
 8004c10:	4319      	orrs	r1, r3
 8004c12:	4b48      	ldr	r3, [pc, #288]	@ (8004d34 <USB_EPStartXfer+0x494>)
 8004c14:	430b      	orrs	r3, r1
 8004c16:	b29b      	uxth	r3, r3
 8004c18:	e00c      	b.n	8004c34 <USB_EPStartXfer+0x394>
 8004c1a:	2101      	movs	r1, #1
 8004c1c:	085f      	lsrs	r7, r3, #1
 8004c1e:	4019      	ands	r1, r3
 8004c20:	187f      	adds	r7, r7, r1
 8004c22:	02bf      	lsls	r7, r7, #10
 8004c24:	8811      	ldrh	r1, [r2, #0]
 8004c26:	e7c2      	b.n	8004bae <USB_EPStartXfer+0x30e>
 8004c28:	2b00      	cmp	r3, #0
 8004c2a:	d118      	bne.n	8004c5e <USB_EPStartXfer+0x3be>
 8004c2c:	2180      	movs	r1, #128	@ 0x80
 8004c2e:	8813      	ldrh	r3, [r2, #0]
 8004c30:	0209      	lsls	r1, r1, #8
 8004c32:	430b      	orrs	r3, r1
 8004c34:	8013      	strh	r3, [r2, #0]
 8004c36:	69e3      	ldr	r3, [r4, #28]
 8004c38:	2b00      	cmp	r3, #0
 8004c3a:	d100      	bne.n	8004c3e <USB_EPStartXfer+0x39e>
 8004c3c:	e77a      	b.n	8004b34 <USB_EPStartXfer+0x294>
 8004c3e:	7823      	ldrb	r3, [r4, #0]
 8004c40:	493d      	ldr	r1, [pc, #244]	@ (8004d38 <USB_EPStartXfer+0x498>)
 8004c42:	009b      	lsls	r3, r3, #2
 8004c44:	18eb      	adds	r3, r5, r3
 8004c46:	881a      	ldrh	r2, [r3, #0]
 8004c48:	400a      	ands	r2, r1
 8004c4a:	428a      	cmp	r2, r1
 8004c4c:	d002      	beq.n	8004c54 <USB_EPStartXfer+0x3b4>
 8004c4e:	2a00      	cmp	r2, #0
 8004c50:	d000      	beq.n	8004c54 <USB_EPStartXfer+0x3b4>
 8004c52:	e76f      	b.n	8004b34 <USB_EPStartXfer+0x294>
 8004c54:	4939      	ldr	r1, [pc, #228]	@ (8004d3c <USB_EPStartXfer+0x49c>)
 8004c56:	881a      	ldrh	r2, [r3, #0]
 8004c58:	400a      	ands	r2, r1
 8004c5a:	4939      	ldr	r1, [pc, #228]	@ (8004d40 <USB_EPStartXfer+0x4a0>)
 8004c5c:	e77c      	b.n	8004b58 <USB_EPStartXfer+0x2b8>
 8004c5e:	2001      	movs	r0, #1
 8004c60:	0859      	lsrs	r1, r3, #1
 8004c62:	4003      	ands	r3, r0
 8004c64:	18c9      	adds	r1, r1, r3
 8004c66:	0289      	lsls	r1, r1, #10
 8004c68:	8813      	ldrh	r3, [r2, #0]
 8004c6a:	e7d3      	b.n	8004c14 <USB_EPStartXfer+0x374>
 8004c6c:	2001      	movs	r0, #1
 8004c6e:	4283      	cmp	r3, r0
 8004c70:	d000      	beq.n	8004c74 <USB_EPStartXfer+0x3d4>
 8004c72:	e646      	b.n	8004902 <USB_EPStartXfer+0x62>
 8004c74:	698b      	ldr	r3, [r1, #24]
 8004c76:	6909      	ldr	r1, [r1, #16]
 8004c78:	2000      	movs	r0, #0
 8004c7a:	428b      	cmp	r3, r1
 8004c7c:	d901      	bls.n	8004c82 <USB_EPStartXfer+0x3e2>
 8004c7e:	1a58      	subs	r0, r3, r1
 8004c80:	000b      	movs	r3, r1
 8004c82:	61a0      	str	r0, [r4, #24]
 8004c84:	2a00      	cmp	r2, #0
 8004c86:	d000      	beq.n	8004c8a <USB_EPStartXfer+0x3ea>
 8004c88:	e754      	b.n	8004b34 <USB_EPStartXfer+0x294>
 8004c8a:	002e      	movs	r6, r5
 8004c8c:	4a2d      	ldr	r2, [pc, #180]	@ (8004d44 <USB_EPStartXfer+0x4a4>)
 8004c8e:	3650      	adds	r6, #80	@ 0x50
 8004c90:	8831      	ldrh	r1, [r6, #0]
 8004c92:	7820      	ldrb	r0, [r4, #0]
 8004c94:	18aa      	adds	r2, r5, r2
 8004c96:	1852      	adds	r2, r2, r1
 8004c98:	00c0      	lsls	r0, r0, #3
 8004c9a:	1812      	adds	r2, r2, r0
 8004c9c:	8811      	ldrh	r1, [r2, #0]
 8004c9e:	0589      	lsls	r1, r1, #22
 8004ca0:	0d89      	lsrs	r1, r1, #22
 8004ca2:	8011      	strh	r1, [r2, #0]
 8004ca4:	2b3e      	cmp	r3, #62	@ 0x3e
 8004ca6:	d90e      	bls.n	8004cc6 <USB_EPStartXfer+0x426>
 8004ca8:	271f      	movs	r7, #31
 8004caa:	401f      	ands	r7, r3
 8004cac:	0039      	movs	r1, r7
 8004cae:	424f      	negs	r7, r1
 8004cb0:	414f      	adcs	r7, r1
 8004cb2:	0959      	lsrs	r1, r3, #5
 8004cb4:	1bc9      	subs	r1, r1, r7
 8004cb6:	8817      	ldrh	r7, [r2, #0]
 8004cb8:	9101      	str	r1, [sp, #4]
 8004cba:	0289      	lsls	r1, r1, #10
 8004cbc:	430f      	orrs	r7, r1
 8004cbe:	491d      	ldr	r1, [pc, #116]	@ (8004d34 <USB_EPStartXfer+0x494>)
 8004cc0:	4339      	orrs	r1, r7
 8004cc2:	b289      	uxth	r1, r1
 8004cc4:	e005      	b.n	8004cd2 <USB_EPStartXfer+0x432>
 8004cc6:	2b00      	cmp	r3, #0
 8004cc8:	d11c      	bne.n	8004d04 <USB_EPStartXfer+0x464>
 8004cca:	2780      	movs	r7, #128	@ 0x80
 8004ccc:	8811      	ldrh	r1, [r2, #0]
 8004cce:	023f      	lsls	r7, r7, #8
 8004cd0:	4339      	orrs	r1, r7
 8004cd2:	8011      	strh	r1, [r2, #0]
 8004cd4:	4a16      	ldr	r2, [pc, #88]	@ (8004d30 <USB_EPStartXfer+0x490>)
 8004cd6:	8831      	ldrh	r1, [r6, #0]
 8004cd8:	18aa      	adds	r2, r5, r2
 8004cda:	1852      	adds	r2, r2, r1
 8004cdc:	1812      	adds	r2, r2, r0
 8004cde:	8811      	ldrh	r1, [r2, #0]
 8004ce0:	0589      	lsls	r1, r1, #22
 8004ce2:	0d89      	lsrs	r1, r1, #22
 8004ce4:	8011      	strh	r1, [r2, #0]
 8004ce6:	2b3e      	cmp	r3, #62	@ 0x3e
 8004ce8:	d913      	bls.n	8004d12 <USB_EPStartXfer+0x472>
 8004cea:	201f      	movs	r0, #31
 8004cec:	0959      	lsrs	r1, r3, #5
 8004cee:	4003      	ands	r3, r0
 8004cf0:	4258      	negs	r0, r3
 8004cf2:	4143      	adcs	r3, r0
 8004cf4:	1ac9      	subs	r1, r1, r3
 8004cf6:	8813      	ldrh	r3, [r2, #0]
 8004cf8:	0289      	lsls	r1, r1, #10
 8004cfa:	4319      	orrs	r1, r3
 8004cfc:	4b0d      	ldr	r3, [pc, #52]	@ (8004d34 <USB_EPStartXfer+0x494>)
 8004cfe:	430b      	orrs	r3, r1
 8004d00:	b29b      	uxth	r3, r3
 8004d02:	e00c      	b.n	8004d1e <USB_EPStartXfer+0x47e>
 8004d04:	2101      	movs	r1, #1
 8004d06:	085f      	lsrs	r7, r3, #1
 8004d08:	4019      	ands	r1, r3
 8004d0a:	187f      	adds	r7, r7, r1
 8004d0c:	02bf      	lsls	r7, r7, #10
 8004d0e:	8811      	ldrh	r1, [r2, #0]
 8004d10:	e7d6      	b.n	8004cc0 <USB_EPStartXfer+0x420>
 8004d12:	2b00      	cmp	r3, #0
 8004d14:	d105      	bne.n	8004d22 <USB_EPStartXfer+0x482>
 8004d16:	2180      	movs	r1, #128	@ 0x80
 8004d18:	8813      	ldrh	r3, [r2, #0]
 8004d1a:	0209      	lsls	r1, r1, #8
 8004d1c:	430b      	orrs	r3, r1
 8004d1e:	8013      	strh	r3, [r2, #0]
 8004d20:	e708      	b.n	8004b34 <USB_EPStartXfer+0x294>
 8004d22:	2001      	movs	r0, #1
 8004d24:	0859      	lsrs	r1, r3, #1
 8004d26:	4003      	ands	r3, r0
 8004d28:	18c9      	adds	r1, r1, r3
 8004d2a:	0289      	lsls	r1, r1, #10
 8004d2c:	8813      	ldrh	r3, [r2, #0]
 8004d2e:	e7e6      	b.n	8004cfe <USB_EPStartXfer+0x45e>
 8004d30:	00000406 	.word	0x00000406
 8004d34:	ffff8000 	.word	0xffff8000
 8004d38:	00004040 	.word	0x00004040
 8004d3c:	ffff8f8f 	.word	0xffff8f8f
 8004d40:	000080c0 	.word	0x000080c0
 8004d44:	00000402 	.word	0x00000402

08004d48 <USB_ReadPMA>:
 8004d48:	b5f0      	push	{r4, r5, r6, r7, lr}
 8004d4a:	2580      	movs	r5, #128	@ 0x80
 8004d4c:	085c      	lsrs	r4, r3, #1
 8004d4e:	00ed      	lsls	r5, r5, #3
 8004d50:	1952      	adds	r2, r2, r5
 8004d52:	0026      	movs	r6, r4
 8004d54:	000d      	movs	r5, r1
 8004d56:	1880      	adds	r0, r0, r2
 8004d58:	1a47      	subs	r7, r0, r1
 8004d5a:	19ea      	adds	r2, r5, r7
 8004d5c:	2e00      	cmp	r6, #0
 8004d5e:	d106      	bne.n	8004d6e <USB_ReadPMA+0x26>
 8004d60:	07db      	lsls	r3, r3, #31
 8004d62:	d503      	bpl.n	8004d6c <USB_ReadPMA+0x24>
 8004d64:	0064      	lsls	r4, r4, #1
 8004d66:	1900      	adds	r0, r0, r4
 8004d68:	8803      	ldrh	r3, [r0, #0]
 8004d6a:	550b      	strb	r3, [r1, r4]
 8004d6c:	bdf0      	pop	{r4, r5, r6, r7, pc}
 8004d6e:	8812      	ldrh	r2, [r2, #0]
 8004d70:	3e01      	subs	r6, #1
 8004d72:	b292      	uxth	r2, r2
 8004d74:	702a      	strb	r2, [r5, #0]
 8004d76:	0a12      	lsrs	r2, r2, #8
 8004d78:	706a      	strb	r2, [r5, #1]
 8004d7a:	3502      	adds	r5, #2
 8004d7c:	e7ed      	b.n	8004d5a <USB_ReadPMA+0x12>

08004d7e <USBD_Init>:
 8004d7e:	2302      	movs	r3, #2
 8004d80:	b510      	push	{r4, lr}
 8004d82:	2800      	cmp	r0, #0
 8004d84:	d013      	beq.n	8004dae <USBD_Init+0x30>
 8004d86:	23ad      	movs	r3, #173	@ 0xad
 8004d88:	009b      	lsls	r3, r3, #2
 8004d8a:	58c4      	ldr	r4, [r0, r3]
 8004d8c:	2c00      	cmp	r4, #0
 8004d8e:	d001      	beq.n	8004d94 <USBD_Init+0x16>
 8004d90:	2400      	movs	r4, #0
 8004d92:	50c4      	str	r4, [r0, r3]
 8004d94:	2900      	cmp	r1, #0
 8004d96:	d002      	beq.n	8004d9e <USBD_Init+0x20>
 8004d98:	23ac      	movs	r3, #172	@ 0xac
 8004d9a:	009b      	lsls	r3, r3, #2
 8004d9c:	50c1      	str	r1, [r0, r3]
 8004d9e:	23a7      	movs	r3, #167	@ 0xa7
 8004da0:	2101      	movs	r1, #1
 8004da2:	009b      	lsls	r3, r3, #2
 8004da4:	54c1      	strb	r1, [r0, r3]
 8004da6:	7002      	strb	r2, [r0, #0]
 8004da8:	f001 f820 	bl	8005dec <USBD_LL_Init>
 8004dac:	2300      	movs	r3, #0
 8004dae:	0018      	movs	r0, r3
 8004db0:	bd10      	pop	{r4, pc}

08004db2 <USBD_RegisterClass>:
 8004db2:	0003      	movs	r3, r0
 8004db4:	2002      	movs	r0, #2
 8004db6:	2900      	cmp	r1, #0
 8004db8:	d003      	beq.n	8004dc2 <USBD_RegisterClass+0x10>
 8004dba:	22ad      	movs	r2, #173	@ 0xad
 8004dbc:	2000      	movs	r0, #0
 8004dbe:	0092      	lsls	r2, r2, #2
 8004dc0:	5099      	str	r1, [r3, r2]
 8004dc2:	4770      	bx	lr

08004dc4 <USBD_Start>:
 8004dc4:	b510      	push	{r4, lr}
 8004dc6:	f001 f849 	bl	8005e5c <USBD_LL_Start>
 8004dca:	2000      	movs	r0, #0
 8004dcc:	bd10      	pop	{r4, pc}

08004dce <USBD_SetClassConfig>:
 8004dce:	23ad      	movs	r3, #173	@ 0xad
 8004dd0:	009b      	lsls	r3, r3, #2
 8004dd2:	58c2      	ldr	r2, [r0, r3]
 8004dd4:	b510      	push	{r4, lr}
 8004dd6:	2302      	movs	r3, #2
 8004dd8:	2a00      	cmp	r2, #0
 8004dda:	d004      	beq.n	8004de6 <USBD_SetClassConfig+0x18>
 8004ddc:	6813      	ldr	r3, [r2, #0]
 8004dde:	4798      	blx	r3
 8004de0:	1e43      	subs	r3, r0, #1
 8004de2:	4198      	sbcs	r0, r3
 8004de4:	0043      	lsls	r3, r0, #1
 8004de6:	0018      	movs	r0, r3
 8004de8:	bd10      	pop	{r4, pc}

08004dea <USBD_ClrClassConfig>:
 8004dea:	23ad      	movs	r3, #173	@ 0xad
 8004dec:	b510      	push	{r4, lr}
 8004dee:	009b      	lsls	r3, r3, #2
 8004df0:	58c3      	ldr	r3, [r0, r3]
 8004df2:	685b      	ldr	r3, [r3, #4]
 8004df4:	4798      	blx	r3
 8004df6:	2000      	movs	r0, #0
 8004df8:	bd10      	pop	{r4, pc}
	...

08004dfc <USBD_LL_SetupStage>:
 8004dfc:	23aa      	movs	r3, #170	@ 0xaa
 8004dfe:	009b      	lsls	r3, r3, #2
 8004e00:	b570      	push	{r4, r5, r6, lr}
 8004e02:	18c5      	adds	r5, r0, r3
 8004e04:	0004      	movs	r4, r0
 8004e06:	0028      	movs	r0, r5
 8004e08:	f000 fb2c 	bl	8005464 <USBD_ParseSetupRequest>
 8004e0c:	23a5      	movs	r3, #165	@ 0xa5
 8004e0e:	2201      	movs	r2, #1
 8004e10:	009b      	lsls	r3, r3, #2
 8004e12:	50e2      	str	r2, [r4, r3]
 8004e14:	4b11      	ldr	r3, [pc, #68]	@ (8004e5c <USBD_LL_SetupStage+0x60>)
 8004e16:	5ae2      	ldrh	r2, [r4, r3]
 8004e18:	3b16      	subs	r3, #22
 8004e1a:	50e2      	str	r2, [r4, r3]
 8004e1c:	3310      	adds	r3, #16
 8004e1e:	5ce1      	ldrb	r1, [r4, r3]
 8004e20:	231f      	movs	r3, #31
 8004e22:	400b      	ands	r3, r1
 8004e24:	2b01      	cmp	r3, #1
 8004e26:	d009      	beq.n	8004e3c <USBD_LL_SetupStage+0x40>
 8004e28:	2b02      	cmp	r3, #2
 8004e2a:	d00c      	beq.n	8004e46 <USBD_LL_SetupStage+0x4a>
 8004e2c:	2b00      	cmp	r3, #0
 8004e2e:	d10f      	bne.n	8004e50 <USBD_LL_SetupStage+0x54>
 8004e30:	0029      	movs	r1, r5
 8004e32:	0020      	movs	r0, r4
 8004e34:	f000 f91a 	bl	800506c <USBD_StdDevReq>
 8004e38:	2000      	movs	r0, #0
 8004e3a:	bd70      	pop	{r4, r5, r6, pc}
 8004e3c:	0029      	movs	r1, r5
 8004e3e:	0020      	movs	r0, r4
 8004e40:	f000 fa54 	bl	80052ec <USBD_StdItfReq>
 8004e44:	e7f8      	b.n	8004e38 <USBD_LL_SetupStage+0x3c>
 8004e46:	0029      	movs	r1, r5
 8004e48:	0020      	movs	r0, r4
 8004e4a:	f000 fa77 	bl	800533c <USBD_StdEPReq>
 8004e4e:	e7f3      	b.n	8004e38 <USBD_LL_SetupStage+0x3c>
 8004e50:	237f      	movs	r3, #127	@ 0x7f
 8004e52:	0020      	movs	r0, r4
 8004e54:	4399      	bics	r1, r3
 8004e56:	f001 f81f 	bl	8005e98 <USBD_LL_StallEP>
 8004e5a:	e7ed      	b.n	8004e38 <USBD_LL_SetupStage+0x3c>
 8004e5c:	000002ae 	.word	0x000002ae

08004e60 <USBD_LL_DataOutStage>:
 8004e60:	b570      	push	{r4, r5, r6, lr}
 8004e62:	0004      	movs	r4, r0
 8004e64:	0015      	movs	r5, r2
 8004e66:	2900      	cmp	r1, #0
 8004e68:	d12e      	bne.n	8004ec8 <USBD_LL_DataOutStage+0x68>
 8004e6a:	23a5      	movs	r3, #165	@ 0xa5
 8004e6c:	009b      	lsls	r3, r3, #2
 8004e6e:	58c2      	ldr	r2, [r0, r3]
 8004e70:	2a03      	cmp	r2, #3
 8004e72:	d123      	bne.n	8004ebc <USBD_LL_DataOutStage+0x5c>
 8004e74:	0002      	movs	r2, r0
 8004e76:	3255      	adds	r2, #85	@ 0x55
 8004e78:	32ff      	adds	r2, #255	@ 0xff
 8004e7a:	68d3      	ldr	r3, [r2, #12]
 8004e7c:	6910      	ldr	r0, [r2, #16]
 8004e7e:	4283      	cmp	r3, r0
 8004e80:	d90b      	bls.n	8004e9a <USBD_LL_DataOutStage+0x3a>
 8004e82:	1a1b      	subs	r3, r3, r0
 8004e84:	60d3      	str	r3, [r2, #12]
 8004e86:	b282      	uxth	r2, r0
 8004e88:	4298      	cmp	r0, r3
 8004e8a:	d900      	bls.n	8004e8e <USBD_LL_DataOutStage+0x2e>
 8004e8c:	b29a      	uxth	r2, r3
 8004e8e:	0029      	movs	r1, r5
 8004e90:	0020      	movs	r0, r4
 8004e92:	f000 fb2e 	bl	80054f2 <USBD_CtlContinueRx>
 8004e96:	2000      	movs	r0, #0
 8004e98:	bd70      	pop	{r4, r5, r6, pc}
 8004e9a:	23ad      	movs	r3, #173	@ 0xad
 8004e9c:	009b      	lsls	r3, r3, #2
 8004e9e:	58e3      	ldr	r3, [r4, r3]
 8004ea0:	691b      	ldr	r3, [r3, #16]
 8004ea2:	2b00      	cmp	r3, #0
 8004ea4:	d006      	beq.n	8004eb4 <USBD_LL_DataOutStage+0x54>
 8004ea6:	22a7      	movs	r2, #167	@ 0xa7
 8004ea8:	0092      	lsls	r2, r2, #2
 8004eaa:	5ca2      	ldrb	r2, [r4, r2]
 8004eac:	2a03      	cmp	r2, #3
 8004eae:	d101      	bne.n	8004eb4 <USBD_LL_DataOutStage+0x54>
 8004eb0:	0020      	movs	r0, r4
 8004eb2:	4798      	blx	r3
 8004eb4:	0020      	movs	r0, r4
 8004eb6:	f000 fb24 	bl	8005502 <USBD_CtlSendStatus>
 8004eba:	e7ec      	b.n	8004e96 <USBD_LL_DataOutStage+0x36>
 8004ebc:	2a05      	cmp	r2, #5
 8004ebe:	d1ea      	bne.n	8004e96 <USBD_LL_DataOutStage+0x36>
 8004ec0:	50c1      	str	r1, [r0, r3]
 8004ec2:	f000 ffe9 	bl	8005e98 <USBD_LL_StallEP>
 8004ec6:	e7e6      	b.n	8004e96 <USBD_LL_DataOutStage+0x36>
 8004ec8:	23ad      	movs	r3, #173	@ 0xad
 8004eca:	009b      	lsls	r3, r3, #2
 8004ecc:	58c3      	ldr	r3, [r0, r3]
 8004ece:	2002      	movs	r0, #2
 8004ed0:	699b      	ldr	r3, [r3, #24]
 8004ed2:	2b00      	cmp	r3, #0
 8004ed4:	d0e0      	beq.n	8004e98 <USBD_LL_DataOutStage+0x38>
 8004ed6:	22a7      	movs	r2, #167	@ 0xa7
 8004ed8:	0092      	lsls	r2, r2, #2
 8004eda:	5ca2      	ldrb	r2, [r4, r2]
 8004edc:	2a03      	cmp	r2, #3
 8004ede:	d1db      	bne.n	8004e98 <USBD_LL_DataOutStage+0x38>
 8004ee0:	0020      	movs	r0, r4
 8004ee2:	4798      	blx	r3
 8004ee4:	e7d7      	b.n	8004e96 <USBD_LL_DataOutStage+0x36>

08004ee6 <USBD_LL_DataInStage>:
 8004ee6:	b5f8      	push	{r3, r4, r5, r6, r7, lr}
 8004ee8:	000d      	movs	r5, r1
 8004eea:	0004      	movs	r4, r0
 8004eec:	0011      	movs	r1, r2
 8004eee:	2d00      	cmp	r5, #0
 8004ef0:	d14d      	bne.n	8004f8e <USBD_LL_DataInStage+0xa8>
 8004ef2:	23a5      	movs	r3, #165	@ 0xa5
 8004ef4:	009b      	lsls	r3, r3, #2
 8004ef6:	58c3      	ldr	r3, [r0, r3]
 8004ef8:	2b02      	cmp	r3, #2
 8004efa:	d13e      	bne.n	8004f7a <USBD_LL_DataInStage+0x94>
 8004efc:	6a03      	ldr	r3, [r0, #32]
 8004efe:	6a46      	ldr	r6, [r0, #36]	@ 0x24
 8004f00:	42b3      	cmp	r3, r6
 8004f02:	d911      	bls.n	8004f28 <USBD_LL_DataInStage+0x42>
 8004f04:	1b9b      	subs	r3, r3, r6
 8004f06:	6203      	str	r3, [r0, #32]
 8004f08:	b29a      	uxth	r2, r3
 8004f0a:	f000 faea 	bl	80054e2 <USBD_CtlContinueSendData>
 8004f0e:	002b      	movs	r3, r5
 8004f10:	002a      	movs	r2, r5
 8004f12:	0029      	movs	r1, r5
 8004f14:	0020      	movs	r0, r4
 8004f16:	f000 fff8 	bl	8005f0a <USBD_LL_PrepareReceive>
 8004f1a:	23a8      	movs	r3, #168	@ 0xa8
 8004f1c:	009b      	lsls	r3, r3, #2
 8004f1e:	5ce2      	ldrb	r2, [r4, r3]
 8004f20:	2a01      	cmp	r2, #1
 8004f22:	d031      	beq.n	8004f88 <USBD_LL_DataInStage+0xa2>
 8004f24:	2000      	movs	r0, #0
 8004f26:	bdf8      	pop	{r3, r4, r5, r6, r7, pc}
 8004f28:	69c7      	ldr	r7, [r0, #28]
 8004f2a:	0031      	movs	r1, r6
 8004f2c:	0038      	movs	r0, r7
 8004f2e:	f7fb f997 	bl	8000260 <__aeabi_uidivmod>
 8004f32:	1e0d      	subs	r5, r1, #0
 8004f34:	d10c      	bne.n	8004f50 <USBD_LL_DataInStage+0x6a>
 8004f36:	42be      	cmp	r6, r7
 8004f38:	d80a      	bhi.n	8004f50 <USBD_LL_DataInStage+0x6a>
 8004f3a:	26a6      	movs	r6, #166	@ 0xa6
 8004f3c:	00b6      	lsls	r6, r6, #2
 8004f3e:	59a3      	ldr	r3, [r4, r6]
 8004f40:	429f      	cmp	r7, r3
 8004f42:	d205      	bcs.n	8004f50 <USBD_LL_DataInStage+0x6a>
 8004f44:	000a      	movs	r2, r1
 8004f46:	0020      	movs	r0, r4
 8004f48:	f000 facb 	bl	80054e2 <USBD_CtlContinueSendData>
 8004f4c:	51a5      	str	r5, [r4, r6]
 8004f4e:	e7de      	b.n	8004f0e <USBD_LL_DataInStage+0x28>
 8004f50:	23ad      	movs	r3, #173	@ 0xad
 8004f52:	009b      	lsls	r3, r3, #2
 8004f54:	58e3      	ldr	r3, [r4, r3]
 8004f56:	68db      	ldr	r3, [r3, #12]
 8004f58:	2b00      	cmp	r3, #0
 8004f5a:	d006      	beq.n	8004f6a <USBD_LL_DataInStage+0x84>
 8004f5c:	22a7      	movs	r2, #167	@ 0xa7
 8004f5e:	0092      	lsls	r2, r2, #2
 8004f60:	5ca2      	ldrb	r2, [r4, r2]
 8004f62:	2a03      	cmp	r2, #3
 8004f64:	d101      	bne.n	8004f6a <USBD_LL_DataInStage+0x84>
 8004f66:	0020      	movs	r0, r4
 8004f68:	4798      	blx	r3
 8004f6a:	2180      	movs	r1, #128	@ 0x80
 8004f6c:	0020      	movs	r0, r4
 8004f6e:	f000 ff93 	bl	8005e98 <USBD_LL_StallEP>
 8004f72:	0020      	movs	r0, r4
 8004f74:	f000 fad1 	bl	800551a <USBD_CtlReceiveStatus>
 8004f78:	e7cf      	b.n	8004f1a <USBD_LL_DataInStage+0x34>
 8004f7a:	2204      	movs	r2, #4
 8004f7c:	4393      	bics	r3, r2
 8004f7e:	d1cc      	bne.n	8004f1a <USBD_LL_DataInStage+0x34>
 8004f80:	2180      	movs	r1, #128	@ 0x80
 8004f82:	f000 ff89 	bl	8005e98 <USBD_LL_StallEP>
 8004f86:	e7c8      	b.n	8004f1a <USBD_LL_DataInStage+0x34>
 8004f88:	2200      	movs	r2, #0
 8004f8a:	54e2      	strb	r2, [r4, r3]
 8004f8c:	e7ca      	b.n	8004f24 <USBD_LL_DataInStage+0x3e>
 8004f8e:	23ad      	movs	r3, #173	@ 0xad
 8004f90:	009b      	lsls	r3, r3, #2
 8004f92:	58c3      	ldr	r3, [r0, r3]
 8004f94:	2002      	movs	r0, #2
 8004f96:	695b      	ldr	r3, [r3, #20]
 8004f98:	2b00      	cmp	r3, #0
 8004f9a:	d0c4      	beq.n	8004f26 <USBD_LL_DataInStage+0x40>
 8004f9c:	22a7      	movs	r2, #167	@ 0xa7
 8004f9e:	0092      	lsls	r2, r2, #2
 8004fa0:	5ca2      	ldrb	r2, [r4, r2]
 8004fa2:	2a03      	cmp	r2, #3
 8004fa4:	d1bf      	bne.n	8004f26 <USBD_LL_DataInStage+0x40>
 8004fa6:	0029      	movs	r1, r5
 8004fa8:	0020      	movs	r0, r4
 8004faa:	4798      	blx	r3
 8004fac:	e7ba      	b.n	8004f24 <USBD_LL_DataInStage+0x3e>

08004fae <USBD_LL_Reset>:
 8004fae:	2200      	movs	r2, #0
 8004fb0:	b570      	push	{r4, r5, r6, lr}
 8004fb2:	0004      	movs	r4, r0
 8004fb4:	0011      	movs	r1, r2
 8004fb6:	2340      	movs	r3, #64	@ 0x40
 8004fb8:	f000 ff59 	bl	8005e6e <USBD_LL_OpenEP>
 8004fbc:	0023      	movs	r3, r4
 8004fbe:	2501      	movs	r5, #1
 8004fc0:	2640      	movs	r6, #64	@ 0x40
 8004fc2:	33fc      	adds	r3, #252	@ 0xfc
 8004fc4:	2180      	movs	r1, #128	@ 0x80
 8004fc6:	65dd      	str	r5, [r3, #92]	@ 0x5c
 8004fc8:	669e      	str	r6, [r3, #104]	@ 0x68
 8004fca:	2200      	movs	r2, #0
 8004fcc:	0033      	movs	r3, r6
 8004fce:	0020      	movs	r0, r4
 8004fd0:	f000 ff4d 	bl	8005e6e <USBD_LL_OpenEP>
 8004fd4:	23a7      	movs	r3, #167	@ 0xa7
 8004fd6:	2100      	movs	r1, #0
 8004fd8:	009b      	lsls	r3, r3, #2
 8004fda:	61a5      	str	r5, [r4, #24]
 8004fdc:	6266      	str	r6, [r4, #36]	@ 0x24
 8004fde:	54e5      	strb	r5, [r4, r3]
 8004fe0:	3b08      	subs	r3, #8
 8004fe2:	50e1      	str	r1, [r4, r3]
 8004fe4:	3310      	adds	r3, #16
 8004fe6:	6061      	str	r1, [r4, #4]
 8004fe8:	50e1      	str	r1, [r4, r3]
 8004fea:	3314      	adds	r3, #20
 8004fec:	58e3      	ldr	r3, [r4, r3]
 8004fee:	428b      	cmp	r3, r1
 8004ff0:	d005      	beq.n	8004ffe <USBD_LL_Reset+0x50>
 8004ff2:	23ad      	movs	r3, #173	@ 0xad
 8004ff4:	009b      	lsls	r3, r3, #2
 8004ff6:	58e3      	ldr	r3, [r4, r3]
 8004ff8:	0020      	movs	r0, r4
 8004ffa:	685b      	ldr	r3, [r3, #4]
 8004ffc:	4798      	blx	r3
 8004ffe:	2000      	movs	r0, #0
 8005000:	bd70      	pop	{r4, r5, r6, pc}

08005002 <USBD_LL_SetSpeed>:
 8005002:	7401      	strb	r1, [r0, #16]
 8005004:	2000      	movs	r0, #0
 8005006:	4770      	bx	lr

08005008 <USBD_LL_Suspend>:
 8005008:	23a7      	movs	r3, #167	@ 0xa7
 800500a:	009b      	lsls	r3, r3, #2
 800500c:	5cc1      	ldrb	r1, [r0, r3]
 800500e:	4a03      	ldr	r2, [pc, #12]	@ (800501c <USBD_LL_Suspend+0x14>)
 8005010:	5481      	strb	r1, [r0, r2]
 8005012:	2204      	movs	r2, #4
 8005014:	54c2      	strb	r2, [r0, r3]
 8005016:	2000      	movs	r0, #0
 8005018:	4770      	bx	lr
 800501a:	46c0      	nop			@ (mov r8, r8)
 800501c:	0000029d 	.word	0x0000029d

08005020 <USBD_LL_Resume>:
 8005020:	23a7      	movs	r3, #167	@ 0xa7
 8005022:	009b      	lsls	r3, r3, #2
 8005024:	5cc2      	ldrb	r2, [r0, r3]
 8005026:	2a04      	cmp	r2, #4
 8005028:	d102      	bne.n	8005030 <USBD_LL_Resume+0x10>
 800502a:	4a02      	ldr	r2, [pc, #8]	@ (8005034 <USBD_LL_Resume+0x14>)
 800502c:	5c82      	ldrb	r2, [r0, r2]
 800502e:	54c2      	strb	r2, [r0, r3]
 8005030:	2000      	movs	r0, #0
 8005032:	4770      	bx	lr
 8005034:	0000029d 	.word	0x0000029d

08005038 <USBD_LL_SOF>:
 8005038:	23a7      	movs	r3, #167	@ 0xa7
 800503a:	b510      	push	{r4, lr}
 800503c:	009b      	lsls	r3, r3, #2
 800503e:	5cc3      	ldrb	r3, [r0, r3]
 8005040:	2b03      	cmp	r3, #3
 8005042:	d106      	bne.n	8005052 <USBD_LL_SOF+0x1a>
 8005044:	23ad      	movs	r3, #173	@ 0xad
 8005046:	009b      	lsls	r3, r3, #2
 8005048:	58c3      	ldr	r3, [r0, r3]
 800504a:	69db      	ldr	r3, [r3, #28]
 800504c:	2b00      	cmp	r3, #0
 800504e:	d000      	beq.n	8005052 <USBD_LL_SOF+0x1a>
 8005050:	4798      	blx	r3
 8005052:	2000      	movs	r0, #0
 8005054:	bd10      	pop	{r4, pc}

08005056 <USBD_CtlError.constprop.0>:
 8005056:	b510      	push	{r4, lr}
 8005058:	0004      	movs	r4, r0
 800505a:	2180      	movs	r1, #128	@ 0x80
 800505c:	f000 ff1c 	bl	8005e98 <USBD_LL_StallEP>
 8005060:	2100      	movs	r1, #0
 8005062:	0020      	movs	r0, r4
 8005064:	f000 ff18 	bl	8005e98 <USBD_LL_StallEP>
 8005068:	bd10      	pop	{r4, pc}
	...

0800506c <USBD_StdDevReq>:
 800506c:	2260      	movs	r2, #96	@ 0x60
 800506e:	780b      	ldrb	r3, [r1, #0]
 8005070:	b573      	push	{r0, r1, r4, r5, r6, lr}
 8005072:	4013      	ands	r3, r2
 8005074:	000d      	movs	r5, r1
 8005076:	0019      	movs	r1, r3
 8005078:	1892      	adds	r2, r2, r2
 800507a:	3920      	subs	r1, #32
 800507c:	0004      	movs	r4, r0
 800507e:	4211      	tst	r1, r2
 8005080:	d005      	beq.n	800508e <USBD_StdDevReq+0x22>
 8005082:	2b00      	cmp	r3, #0
 8005084:	d00b      	beq.n	800509e <USBD_StdDevReq+0x32>
 8005086:	0020      	movs	r0, r4
 8005088:	f7ff ffe5 	bl	8005056 <USBD_CtlError.constprop.0>
 800508c:	e005      	b.n	800509a <USBD_StdDevReq+0x2e>
 800508e:	23ad      	movs	r3, #173	@ 0xad
 8005090:	009b      	lsls	r3, r3, #2
 8005092:	58c3      	ldr	r3, [r0, r3]
 8005094:	0029      	movs	r1, r5
 8005096:	689b      	ldr	r3, [r3, #8]
 8005098:	4798      	blx	r3
 800509a:	2000      	movs	r0, #0
 800509c:	bd76      	pop	{r1, r2, r4, r5, r6, pc}
 800509e:	7868      	ldrb	r0, [r5, #1]
 80050a0:	2809      	cmp	r0, #9
 80050a2:	d8f0      	bhi.n	8005086 <USBD_StdDevReq+0x1a>
 80050a4:	f7fb f84c 	bl	8000140 <__gnu_thumb1_case_shi>
 80050a8:	010e00ef 	.word	0x010e00ef
 80050ac:	0106ffef 	.word	0x0106ffef
 80050b0:	007dffef 	.word	0x007dffef
 80050b4:	ffef000a 	.word	0xffef000a
 80050b8:	009f00d6 	.word	0x009f00d6
 80050bc:	2300      	movs	r3, #0
 80050be:	466a      	mov	r2, sp
 80050c0:	80d3      	strh	r3, [r2, #6]
 80050c2:	886b      	ldrh	r3, [r5, #2]
 80050c4:	0a18      	lsrs	r0, r3, #8
 80050c6:	3801      	subs	r0, #1
 80050c8:	2806      	cmp	r0, #6
 80050ca:	d8dc      	bhi.n	8005086 <USBD_StdDevReq+0x1a>
 80050cc:	f7fb f824 	bl	8000118 <__gnu_thumb1_case_sqi>
 80050d0:	db261704 	.word	0xdb261704
 80050d4:	40db      	.short	0x40db
 80050d6:	4c          	.byte	0x4c
 80050d7:	00          	.byte	0x00
 80050d8:	23ac      	movs	r3, #172	@ 0xac
 80050da:	009b      	lsls	r3, r3, #2
 80050dc:	58e3      	ldr	r3, [r4, r3]
 80050de:	7c20      	ldrb	r0, [r4, #16]
 80050e0:	681b      	ldr	r3, [r3, #0]
 80050e2:	466a      	mov	r2, sp
 80050e4:	1d91      	adds	r1, r2, #6
 80050e6:	4798      	blx	r3
 80050e8:	466b      	mov	r3, sp
 80050ea:	88d9      	ldrh	r1, [r3, #6]
 80050ec:	88ea      	ldrh	r2, [r5, #6]
 80050ee:	2900      	cmp	r1, #0
 80050f0:	d052      	beq.n	8005198 <USBD_StdDevReq+0x12c>
 80050f2:	2a00      	cmp	r2, #0
 80050f4:	d145      	bne.n	8005182 <USBD_StdDevReq+0x116>
 80050f6:	0020      	movs	r0, r4
 80050f8:	f000 fa03 	bl	8005502 <USBD_CtlSendStatus>
 80050fc:	e7cd      	b.n	800509a <USBD_StdDevReq+0x2e>
 80050fe:	23ad      	movs	r3, #173	@ 0xad
 8005100:	7c22      	ldrb	r2, [r4, #16]
 8005102:	009b      	lsls	r3, r3, #2
 8005104:	58e3      	ldr	r3, [r4, r3]
 8005106:	2a00      	cmp	r2, #0
 8005108:	d106      	bne.n	8005118 <USBD_StdDevReq+0xac>
 800510a:	6a9b      	ldr	r3, [r3, #40]	@ 0x28
 800510c:	466a      	mov	r2, sp
 800510e:	1d90      	adds	r0, r2, #6
 8005110:	4798      	blx	r3
 8005112:	2302      	movs	r3, #2
 8005114:	7043      	strb	r3, [r0, #1]
 8005116:	e7e7      	b.n	80050e8 <USBD_StdDevReq+0x7c>
 8005118:	6adb      	ldr	r3, [r3, #44]	@ 0x2c
 800511a:	e7f7      	b.n	800510c <USBD_StdDevReq+0xa0>
 800511c:	b2d8      	uxtb	r0, r3
 800511e:	2805      	cmp	r0, #5
 8005120:	d8b1      	bhi.n	8005086 <USBD_StdDevReq+0x1a>
 8005122:	23ac      	movs	r3, #172	@ 0xac
 8005124:	009b      	lsls	r3, r3, #2
 8005126:	58e3      	ldr	r3, [r4, r3]
 8005128:	f7fb f800 	bl	800012c <__gnu_thumb1_case_uqi>
 800512c:	0c0a0803 	.word	0x0c0a0803
 8005130:	100e      	.short	0x100e
 8005132:	685b      	ldr	r3, [r3, #4]
 8005134:	2b00      	cmp	r3, #0
 8005136:	d0a6      	beq.n	8005086 <USBD_StdDevReq+0x1a>
 8005138:	7c20      	ldrb	r0, [r4, #16]
 800513a:	e7d2      	b.n	80050e2 <USBD_StdDevReq+0x76>
 800513c:	689b      	ldr	r3, [r3, #8]
 800513e:	e7f9      	b.n	8005134 <USBD_StdDevReq+0xc8>
 8005140:	68db      	ldr	r3, [r3, #12]
 8005142:	e7f7      	b.n	8005134 <USBD_StdDevReq+0xc8>
 8005144:	691b      	ldr	r3, [r3, #16]
 8005146:	e7f5      	b.n	8005134 <USBD_StdDevReq+0xc8>
 8005148:	695b      	ldr	r3, [r3, #20]
 800514a:	e7f3      	b.n	8005134 <USBD_StdDevReq+0xc8>
 800514c:	699b      	ldr	r3, [r3, #24]
 800514e:	e7f1      	b.n	8005134 <USBD_StdDevReq+0xc8>
 8005150:	7c23      	ldrb	r3, [r4, #16]
 8005152:	2b00      	cmp	r3, #0
 8005154:	d000      	beq.n	8005158 <USBD_StdDevReq+0xec>
 8005156:	e796      	b.n	8005086 <USBD_StdDevReq+0x1a>
 8005158:	23ad      	movs	r3, #173	@ 0xad
 800515a:	466a      	mov	r2, sp
 800515c:	009b      	lsls	r3, r3, #2
 800515e:	58e3      	ldr	r3, [r4, r3]
 8005160:	1d90      	adds	r0, r2, #6
 8005162:	6b5b      	ldr	r3, [r3, #52]	@ 0x34
 8005164:	4798      	blx	r3
 8005166:	e7bf      	b.n	80050e8 <USBD_StdDevReq+0x7c>
 8005168:	7c23      	ldrb	r3, [r4, #16]
 800516a:	2b00      	cmp	r3, #0
 800516c:	d000      	beq.n	8005170 <USBD_StdDevReq+0x104>
 800516e:	e78a      	b.n	8005086 <USBD_StdDevReq+0x1a>
 8005170:	23ad      	movs	r3, #173	@ 0xad
 8005172:	466a      	mov	r2, sp
 8005174:	009b      	lsls	r3, r3, #2
 8005176:	58e3      	ldr	r3, [r4, r3]
 8005178:	1d90      	adds	r0, r2, #6
 800517a:	6b1b      	ldr	r3, [r3, #48]	@ 0x30
 800517c:	4798      	blx	r3
 800517e:	2307      	movs	r3, #7
 8005180:	e7c8      	b.n	8005114 <USBD_StdDevReq+0xa8>
 8005182:	1c0b      	adds	r3, r1, #0
 8005184:	4291      	cmp	r1, r2
 8005186:	d900      	bls.n	800518a <USBD_StdDevReq+0x11e>
 8005188:	1c13      	adds	r3, r2, #0
 800518a:	4669      	mov	r1, sp
 800518c:	b29a      	uxth	r2, r3
 800518e:	80cb      	strh	r3, [r1, #6]
 8005190:	0001      	movs	r1, r0
 8005192:	0020      	movs	r0, r4
 8005194:	f000 f997 	bl	80054c6 <USBD_CtlSendData>
 8005198:	88eb      	ldrh	r3, [r5, #6]
 800519a:	2b00      	cmp	r3, #0
 800519c:	d000      	beq.n	80051a0 <USBD_StdDevReq+0x134>
 800519e:	e77c      	b.n	800509a <USBD_StdDevReq+0x2e>
 80051a0:	e7a9      	b.n	80050f6 <USBD_StdDevReq+0x8a>
 80051a2:	88ab      	ldrh	r3, [r5, #4]
 80051a4:	2b00      	cmp	r3, #0
 80051a6:	d000      	beq.n	80051aa <USBD_StdDevReq+0x13e>
 80051a8:	e76d      	b.n	8005086 <USBD_StdDevReq+0x1a>
 80051aa:	88eb      	ldrh	r3, [r5, #6]
 80051ac:	2b00      	cmp	r3, #0
 80051ae:	d000      	beq.n	80051b2 <USBD_StdDevReq+0x146>
 80051b0:	e769      	b.n	8005086 <USBD_StdDevReq+0x1a>
 80051b2:	886d      	ldrh	r5, [r5, #2]
 80051b4:	2d7f      	cmp	r5, #127	@ 0x7f
 80051b6:	d900      	bls.n	80051ba <USBD_StdDevReq+0x14e>
 80051b8:	e765      	b.n	8005086 <USBD_StdDevReq+0x1a>
 80051ba:	26a7      	movs	r6, #167	@ 0xa7
 80051bc:	00b6      	lsls	r6, r6, #2
 80051be:	5da3      	ldrb	r3, [r4, r6]
 80051c0:	2b03      	cmp	r3, #3
 80051c2:	d100      	bne.n	80051c6 <USBD_StdDevReq+0x15a>
 80051c4:	e75f      	b.n	8005086 <USBD_StdDevReq+0x1a>
 80051c6:	4b47      	ldr	r3, [pc, #284]	@ (80052e4 <USBD_StdDevReq+0x278>)
 80051c8:	b2ed      	uxtb	r5, r5
 80051ca:	54e5      	strb	r5, [r4, r3]
 80051cc:	0029      	movs	r1, r5
 80051ce:	0020      	movs	r0, r4
 80051d0:	f000 fe89 	bl	8005ee6 <USBD_LL_SetUSBAddress>
 80051d4:	0020      	movs	r0, r4
 80051d6:	f000 f994 	bl	8005502 <USBD_CtlSendStatus>
 80051da:	2302      	movs	r3, #2
 80051dc:	2d00      	cmp	r5, #0
 80051de:	d100      	bne.n	80051e2 <USBD_StdDevReq+0x176>
 80051e0:	2301      	movs	r3, #1
 80051e2:	55a3      	strb	r3, [r4, r6]
 80051e4:	e759      	b.n	800509a <USBD_StdDevReq+0x2e>
 80051e6:	78a9      	ldrb	r1, [r5, #2]
 80051e8:	4d3f      	ldr	r5, [pc, #252]	@ (80052e8 <USBD_StdDevReq+0x27c>)
 80051ea:	7029      	strb	r1, [r5, #0]
 80051ec:	2901      	cmp	r1, #1
 80051ee:	d900      	bls.n	80051f2 <USBD_StdDevReq+0x186>
 80051f0:	e749      	b.n	8005086 <USBD_StdDevReq+0x1a>
 80051f2:	23a7      	movs	r3, #167	@ 0xa7
 80051f4:	009b      	lsls	r3, r3, #2
 80051f6:	5ce2      	ldrb	r2, [r4, r3]
 80051f8:	2a02      	cmp	r2, #2
 80051fa:	d009      	beq.n	8005210 <USBD_StdDevReq+0x1a4>
 80051fc:	2a03      	cmp	r2, #3
 80051fe:	d015      	beq.n	800522c <USBD_StdDevReq+0x1c0>
 8005200:	0020      	movs	r0, r4
 8005202:	f7ff ff28 	bl	8005056 <USBD_CtlError.constprop.0>
 8005206:	0020      	movs	r0, r4
 8005208:	7829      	ldrb	r1, [r5, #0]
 800520a:	f7ff fdee 	bl	8004dea <USBD_ClrClassConfig>
 800520e:	e744      	b.n	800509a <USBD_StdDevReq+0x2e>
 8005210:	2900      	cmp	r1, #0
 8005212:	d100      	bne.n	8005216 <USBD_StdDevReq+0x1aa>
 8005214:	e76f      	b.n	80050f6 <USBD_StdDevReq+0x8a>
 8005216:	2101      	movs	r1, #1
 8005218:	2203      	movs	r2, #3
 800521a:	6061      	str	r1, [r4, #4]
 800521c:	54e2      	strb	r2, [r4, r3]
 800521e:	0020      	movs	r0, r4
 8005220:	f7ff fdd5 	bl	8004dce <USBD_SetClassConfig>
 8005224:	2802      	cmp	r0, #2
 8005226:	d000      	beq.n	800522a <USBD_StdDevReq+0x1be>
 8005228:	e765      	b.n	80050f6 <USBD_StdDevReq+0x8a>
 800522a:	e72c      	b.n	8005086 <USBD_StdDevReq+0x1a>
 800522c:	2900      	cmp	r1, #0
 800522e:	d106      	bne.n	800523e <USBD_StdDevReq+0x1d2>
 8005230:	2202      	movs	r2, #2
 8005232:	0020      	movs	r0, r4
 8005234:	54e2      	strb	r2, [r4, r3]
 8005236:	6061      	str	r1, [r4, #4]
 8005238:	f7ff fdd7 	bl	8004dea <USBD_ClrClassConfig>
 800523c:	e75b      	b.n	80050f6 <USBD_StdDevReq+0x8a>
 800523e:	6861      	ldr	r1, [r4, #4]
 8005240:	2901      	cmp	r1, #1
 8005242:	d100      	bne.n	8005246 <USBD_StdDevReq+0x1da>
 8005244:	e757      	b.n	80050f6 <USBD_StdDevReq+0x8a>
 8005246:	b2c9      	uxtb	r1, r1
 8005248:	0020      	movs	r0, r4
 800524a:	f7ff fdce 	bl	8004dea <USBD_ClrClassConfig>
 800524e:	7829      	ldrb	r1, [r5, #0]
 8005250:	6061      	str	r1, [r4, #4]
 8005252:	e7e4      	b.n	800521e <USBD_StdDevReq+0x1b2>
 8005254:	88ea      	ldrh	r2, [r5, #6]
 8005256:	2a01      	cmp	r2, #1
 8005258:	d000      	beq.n	800525c <USBD_StdDevReq+0x1f0>
 800525a:	e714      	b.n	8005086 <USBD_StdDevReq+0x1a>
 800525c:	23a7      	movs	r3, #167	@ 0xa7
 800525e:	009b      	lsls	r3, r3, #2
 8005260:	5ce3      	ldrb	r3, [r4, r3]
 8005262:	2b02      	cmp	r3, #2
 8005264:	d807      	bhi.n	8005276 <USBD_StdDevReq+0x20a>
 8005266:	2b00      	cmp	r3, #0
 8005268:	d100      	bne.n	800526c <USBD_StdDevReq+0x200>
 800526a:	e70c      	b.n	8005086 <USBD_StdDevReq+0x1a>
 800526c:	2300      	movs	r3, #0
 800526e:	0021      	movs	r1, r4
 8005270:	60a3      	str	r3, [r4, #8]
 8005272:	3108      	adds	r1, #8
 8005274:	e003      	b.n	800527e <USBD_StdDevReq+0x212>
 8005276:	1d21      	adds	r1, r4, #4
 8005278:	2b03      	cmp	r3, #3
 800527a:	d000      	beq.n	800527e <USBD_StdDevReq+0x212>
 800527c:	e703      	b.n	8005086 <USBD_StdDevReq+0x1a>
 800527e:	0020      	movs	r0, r4
 8005280:	f000 f921 	bl	80054c6 <USBD_CtlSendData>
 8005284:	e709      	b.n	800509a <USBD_StdDevReq+0x2e>
 8005286:	23a7      	movs	r3, #167	@ 0xa7
 8005288:	009b      	lsls	r3, r3, #2
 800528a:	5ce3      	ldrb	r3, [r4, r3]
 800528c:	3b01      	subs	r3, #1
 800528e:	2b02      	cmp	r3, #2
 8005290:	d900      	bls.n	8005294 <USBD_StdDevReq+0x228>
 8005292:	e6f8      	b.n	8005086 <USBD_StdDevReq+0x1a>
 8005294:	88eb      	ldrh	r3, [r5, #6]
 8005296:	2b02      	cmp	r3, #2
 8005298:	d000      	beq.n	800529c <USBD_StdDevReq+0x230>
 800529a:	e6f4      	b.n	8005086 <USBD_StdDevReq+0x1a>
 800529c:	23a9      	movs	r3, #169	@ 0xa9
 800529e:	009b      	lsls	r3, r3, #2
 80052a0:	58e2      	ldr	r2, [r4, r3]
 80052a2:	2301      	movs	r3, #1
 80052a4:	2a00      	cmp	r2, #0
 80052a6:	d000      	beq.n	80052aa <USBD_StdDevReq+0x23e>
 80052a8:	3302      	adds	r3, #2
 80052aa:	0021      	movs	r1, r4
 80052ac:	2202      	movs	r2, #2
 80052ae:	60e3      	str	r3, [r4, #12]
 80052b0:	310c      	adds	r1, #12
 80052b2:	e7e4      	b.n	800527e <USBD_StdDevReq+0x212>
 80052b4:	886b      	ldrh	r3, [r5, #2]
 80052b6:	2b01      	cmp	r3, #1
 80052b8:	d000      	beq.n	80052bc <USBD_StdDevReq+0x250>
 80052ba:	e6ee      	b.n	800509a <USBD_StdDevReq+0x2e>
 80052bc:	22a9      	movs	r2, #169	@ 0xa9
 80052be:	0092      	lsls	r2, r2, #2
 80052c0:	50a3      	str	r3, [r4, r2]
 80052c2:	e718      	b.n	80050f6 <USBD_StdDevReq+0x8a>
 80052c4:	23a7      	movs	r3, #167	@ 0xa7
 80052c6:	009b      	lsls	r3, r3, #2
 80052c8:	5ce3      	ldrb	r3, [r4, r3]
 80052ca:	3b01      	subs	r3, #1
 80052cc:	2b02      	cmp	r3, #2
 80052ce:	d900      	bls.n	80052d2 <USBD_StdDevReq+0x266>
 80052d0:	e6d9      	b.n	8005086 <USBD_StdDevReq+0x1a>
 80052d2:	886b      	ldrh	r3, [r5, #2]
 80052d4:	2b01      	cmp	r3, #1
 80052d6:	d000      	beq.n	80052da <USBD_StdDevReq+0x26e>
 80052d8:	e6df      	b.n	800509a <USBD_StdDevReq+0x2e>
 80052da:	23a9      	movs	r3, #169	@ 0xa9
 80052dc:	2200      	movs	r2, #0
 80052de:	009b      	lsls	r3, r3, #2
 80052e0:	50e2      	str	r2, [r4, r3]
 80052e2:	e708      	b.n	80050f6 <USBD_StdDevReq+0x8a>
 80052e4:	0000029e 	.word	0x0000029e
 80052e8:	200004c8 	.word	0x200004c8

080052ec <USBD_StdItfReq>:
 80052ec:	2360      	movs	r3, #96	@ 0x60
 80052ee:	780a      	ldrb	r2, [r1, #0]
 80052f0:	b570      	push	{r4, r5, r6, lr}
 80052f2:	4013      	ands	r3, r2
 80052f4:	0004      	movs	r4, r0
 80052f6:	000d      	movs	r5, r1
 80052f8:	0652      	lsls	r2, r2, #25
 80052fa:	d501      	bpl.n	8005300 <USBD_StdItfReq+0x14>
 80052fc:	2b40      	cmp	r3, #64	@ 0x40
 80052fe:	d119      	bne.n	8005334 <USBD_StdItfReq+0x48>
 8005300:	23a7      	movs	r3, #167	@ 0xa7
 8005302:	009b      	lsls	r3, r3, #2
 8005304:	5ce3      	ldrb	r3, [r4, r3]
 8005306:	3b01      	subs	r3, #1
 8005308:	2b02      	cmp	r3, #2
 800530a:	d813      	bhi.n	8005334 <USBD_StdItfReq+0x48>
 800530c:	792b      	ldrb	r3, [r5, #4]
 800530e:	2b01      	cmp	r3, #1
 8005310:	d810      	bhi.n	8005334 <USBD_StdItfReq+0x48>
 8005312:	23ad      	movs	r3, #173	@ 0xad
 8005314:	009b      	lsls	r3, r3, #2
 8005316:	58e3      	ldr	r3, [r4, r3]
 8005318:	0029      	movs	r1, r5
 800531a:	689b      	ldr	r3, [r3, #8]
 800531c:	0020      	movs	r0, r4
 800531e:	4798      	blx	r3
 8005320:	88eb      	ldrh	r3, [r5, #6]
 8005322:	2b00      	cmp	r3, #0
 8005324:	d104      	bne.n	8005330 <USBD_StdItfReq+0x44>
 8005326:	2800      	cmp	r0, #0
 8005328:	d102      	bne.n	8005330 <USBD_StdItfReq+0x44>
 800532a:	0020      	movs	r0, r4
 800532c:	f000 f8e9 	bl	8005502 <USBD_CtlSendStatus>
 8005330:	2000      	movs	r0, #0
 8005332:	bd70      	pop	{r4, r5, r6, pc}
 8005334:	0020      	movs	r0, r4
 8005336:	f7ff fe8e 	bl	8005056 <USBD_CtlError.constprop.0>
 800533a:	e7f9      	b.n	8005330 <USBD_StdItfReq+0x44>

0800533c <USBD_StdEPReq>:
 800533c:	b570      	push	{r4, r5, r6, lr}
 800533e:	0004      	movs	r4, r0
 8005340:	2060      	movs	r0, #96	@ 0x60
 8005342:	000b      	movs	r3, r1
 8005344:	888a      	ldrh	r2, [r1, #4]
 8005346:	7809      	ldrb	r1, [r1, #0]
 8005348:	4001      	ands	r1, r0
 800534a:	000d      	movs	r5, r1
 800534c:	1800      	adds	r0, r0, r0
 800534e:	3d20      	subs	r5, #32
 8005350:	4205      	tst	r5, r0
 8005352:	d005      	beq.n	8005360 <USBD_StdEPReq+0x24>
 8005354:	2900      	cmp	r1, #0
 8005356:	d00c      	beq.n	8005372 <USBD_StdEPReq+0x36>
 8005358:	0020      	movs	r0, r4
 800535a:	f7ff fe7c 	bl	8005056 <USBD_CtlError.constprop.0>
 800535e:	e006      	b.n	800536e <USBD_StdEPReq+0x32>
 8005360:	22ad      	movs	r2, #173	@ 0xad
 8005362:	0092      	lsls	r2, r2, #2
 8005364:	58a2      	ldr	r2, [r4, r2]
 8005366:	0019      	movs	r1, r3
 8005368:	0020      	movs	r0, r4
 800536a:	6892      	ldr	r2, [r2, #8]
 800536c:	4790      	blx	r2
 800536e:	2000      	movs	r0, #0
 8005370:	bd70      	pop	{r4, r5, r6, pc}
 8005372:	7858      	ldrb	r0, [r3, #1]
 8005374:	b2d1      	uxtb	r1, r2
 8005376:	2801      	cmp	r0, #1
 8005378:	d038      	beq.n	80053ec <USBD_StdEPReq+0xb0>
 800537a:	2803      	cmp	r0, #3
 800537c:	d020      	beq.n	80053c0 <USBD_StdEPReq+0x84>
 800537e:	2800      	cmp	r0, #0
 8005380:	d1ea      	bne.n	8005358 <USBD_StdEPReq+0x1c>
 8005382:	23a7      	movs	r3, #167	@ 0xa7
 8005384:	009b      	lsls	r3, r3, #2
 8005386:	5ce3      	ldrb	r3, [r4, r3]
 8005388:	2b02      	cmp	r3, #2
 800538a:	d049      	beq.n	8005420 <USBD_StdEPReq+0xe4>
 800538c:	2b03      	cmp	r3, #3
 800538e:	d1e3      	bne.n	8005358 <USBD_StdEPReq+0x1c>
 8005390:	230f      	movs	r3, #15
 8005392:	2514      	movs	r5, #20
 8005394:	400b      	ands	r3, r1
 8005396:	436b      	muls	r3, r5
 8005398:	18e3      	adds	r3, r4, r3
 800539a:	0612      	lsls	r2, r2, #24
 800539c:	d550      	bpl.n	8005440 <USBD_StdEPReq+0x104>
 800539e:	699b      	ldr	r3, [r3, #24]
 80053a0:	2b00      	cmp	r3, #0
 80053a2:	d0d9      	beq.n	8005358 <USBD_StdEPReq+0x1c>
 80053a4:	237f      	movs	r3, #127	@ 0x7f
 80053a6:	400b      	ands	r3, r1
 80053a8:	3301      	adds	r3, #1
 80053aa:	435d      	muls	r5, r3
 80053ac:	1965      	adds	r5, r4, r5
 80053ae:	2980      	cmp	r1, #128	@ 0x80
 80053b0:	d051      	beq.n	8005456 <USBD_StdEPReq+0x11a>
 80053b2:	0020      	movs	r0, r4
 80053b4:	f000 fd82 	bl	8005ebc <USBD_LL_IsStallEP>
 80053b8:	2800      	cmp	r0, #0
 80053ba:	d051      	beq.n	8005460 <USBD_StdEPReq+0x124>
 80053bc:	2301      	movs	r3, #1
 80053be:	e04b      	b.n	8005458 <USBD_StdEPReq+0x11c>
 80053c0:	22a7      	movs	r2, #167	@ 0xa7
 80053c2:	0092      	lsls	r2, r2, #2
 80053c4:	5ca2      	ldrb	r2, [r4, r2]
 80053c6:	2a02      	cmp	r2, #2
 80053c8:	d020      	beq.n	800540c <USBD_StdEPReq+0xd0>
 80053ca:	2a03      	cmp	r2, #3
 80053cc:	d1c4      	bne.n	8005358 <USBD_StdEPReq+0x1c>
 80053ce:	885a      	ldrh	r2, [r3, #2]
 80053d0:	2a00      	cmp	r2, #0
 80053d2:	d107      	bne.n	80053e4 <USBD_StdEPReq+0xa8>
 80053d4:	064a      	lsls	r2, r1, #25
 80053d6:	d005      	beq.n	80053e4 <USBD_StdEPReq+0xa8>
 80053d8:	88db      	ldrh	r3, [r3, #6]
 80053da:	2b00      	cmp	r3, #0
 80053dc:	d102      	bne.n	80053e4 <USBD_StdEPReq+0xa8>
 80053de:	0020      	movs	r0, r4
 80053e0:	f000 fd5a 	bl	8005e98 <USBD_LL_StallEP>
 80053e4:	0020      	movs	r0, r4
 80053e6:	f000 f88c 	bl	8005502 <USBD_CtlSendStatus>
 80053ea:	e7c0      	b.n	800536e <USBD_StdEPReq+0x32>
 80053ec:	22a7      	movs	r2, #167	@ 0xa7
 80053ee:	0092      	lsls	r2, r2, #2
 80053f0:	5ca2      	ldrb	r2, [r4, r2]
 80053f2:	2a02      	cmp	r2, #2
 80053f4:	d00a      	beq.n	800540c <USBD_StdEPReq+0xd0>
 80053f6:	2a03      	cmp	r2, #3
 80053f8:	d1ae      	bne.n	8005358 <USBD_StdEPReq+0x1c>
 80053fa:	885b      	ldrh	r3, [r3, #2]
 80053fc:	2b00      	cmp	r3, #0
 80053fe:	d1b6      	bne.n	800536e <USBD_StdEPReq+0x32>
 8005400:	064b      	lsls	r3, r1, #25
 8005402:	d0ef      	beq.n	80053e4 <USBD_StdEPReq+0xa8>
 8005404:	0020      	movs	r0, r4
 8005406:	f000 fd50 	bl	8005eaa <USBD_LL_ClearStallEP>
 800540a:	e7eb      	b.n	80053e4 <USBD_StdEPReq+0xa8>
 800540c:	064b      	lsls	r3, r1, #25
 800540e:	d0a3      	beq.n	8005358 <USBD_StdEPReq+0x1c>
 8005410:	0020      	movs	r0, r4
 8005412:	f000 fd41 	bl	8005e98 <USBD_LL_StallEP>
 8005416:	2180      	movs	r1, #128	@ 0x80
 8005418:	0020      	movs	r0, r4
 800541a:	f000 fd3d 	bl	8005e98 <USBD_LL_StallEP>
 800541e:	e7a6      	b.n	800536e <USBD_StdEPReq+0x32>
 8005420:	0649      	lsls	r1, r1, #25
 8005422:	d199      	bne.n	8005358 <USBD_StdEPReq+0x1c>
 8005424:	0021      	movs	r1, r4
 8005426:	3155      	adds	r1, #85	@ 0x55
 8005428:	31ff      	adds	r1, #255	@ 0xff
 800542a:	0612      	lsls	r2, r2, #24
 800542c:	d501      	bpl.n	8005432 <USBD_StdEPReq+0xf6>
 800542e:	3941      	subs	r1, #65	@ 0x41
 8005430:	39ff      	subs	r1, #255	@ 0xff
 8005432:	2300      	movs	r3, #0
 8005434:	2202      	movs	r2, #2
 8005436:	600b      	str	r3, [r1, #0]
 8005438:	0020      	movs	r0, r4
 800543a:	f000 f844 	bl	80054c6 <USBD_CtlSendData>
 800543e:	e796      	b.n	800536e <USBD_StdEPReq+0x32>
 8005440:	33fc      	adds	r3, #252	@ 0xfc
 8005442:	6ddb      	ldr	r3, [r3, #92]	@ 0x5c
 8005444:	2b00      	cmp	r3, #0
 8005446:	d100      	bne.n	800544a <USBD_StdEPReq+0x10e>
 8005448:	e786      	b.n	8005358 <USBD_StdEPReq+0x1c>
 800544a:	434d      	muls	r5, r1
 800544c:	3555      	adds	r5, #85	@ 0x55
 800544e:	35ff      	adds	r5, #255	@ 0xff
 8005450:	1965      	adds	r5, r4, r5
 8005452:	2900      	cmp	r1, #0
 8005454:	d1ad      	bne.n	80053b2 <USBD_StdEPReq+0x76>
 8005456:	2300      	movs	r3, #0
 8005458:	602b      	str	r3, [r5, #0]
 800545a:	2202      	movs	r2, #2
 800545c:	0029      	movs	r1, r5
 800545e:	e7eb      	b.n	8005438 <USBD_StdEPReq+0xfc>
 8005460:	6028      	str	r0, [r5, #0]
 8005462:	e7fa      	b.n	800545a <USBD_StdEPReq+0x11e>

08005464 <USBD_ParseSetupRequest>:
 8005464:	780b      	ldrb	r3, [r1, #0]
 8005466:	7003      	strb	r3, [r0, #0]
 8005468:	784b      	ldrb	r3, [r1, #1]
 800546a:	7043      	strb	r3, [r0, #1]
 800546c:	78cb      	ldrb	r3, [r1, #3]
 800546e:	788a      	ldrb	r2, [r1, #2]
 8005470:	021b      	lsls	r3, r3, #8
 8005472:	4313      	orrs	r3, r2
 8005474:	8043      	strh	r3, [r0, #2]
 8005476:	794b      	ldrb	r3, [r1, #5]
 8005478:	790a      	ldrb	r2, [r1, #4]
 800547a:	021b      	lsls	r3, r3, #8
 800547c:	4313      	orrs	r3, r2
 800547e:	8083      	strh	r3, [r0, #4]
 8005480:	79cb      	ldrb	r3, [r1, #7]
 8005482:	798a      	ldrb	r2, [r1, #6]
 8005484:	021b      	lsls	r3, r3, #8
 8005486:	4313      	orrs	r3, r2
 8005488:	80c3      	strh	r3, [r0, #6]
 800548a:	4770      	bx	lr

0800548c <USBD_GetString>:
 800548c:	b570      	push	{r4, r5, r6, lr}
 800548e:	0004      	movs	r4, r0
 8005490:	000d      	movs	r5, r1
 8005492:	0016      	movs	r6, r2
 8005494:	2800      	cmp	r0, #0
 8005496:	d00d      	beq.n	80054b4 <USBD_GetString+0x28>
 8005498:	f7fa fe36 	bl	8000108 <strlen>
 800549c:	b2c3      	uxtb	r3, r0
 800549e:	3301      	adds	r3, #1
 80054a0:	005b      	lsls	r3, r3, #1
 80054a2:	8033      	strh	r3, [r6, #0]
 80054a4:	702b      	strb	r3, [r5, #0]
 80054a6:	2303      	movs	r3, #3
 80054a8:	2000      	movs	r0, #0
 80054aa:	706b      	strb	r3, [r5, #1]
 80054ac:	3b01      	subs	r3, #1
 80054ae:	7821      	ldrb	r1, [r4, #0]
 80054b0:	2900      	cmp	r1, #0
 80054b2:	d100      	bne.n	80054b6 <USBD_GetString+0x2a>
 80054b4:	bd70      	pop	{r4, r5, r6, pc}
 80054b6:	1c5a      	adds	r2, r3, #1
 80054b8:	54e9      	strb	r1, [r5, r3]
 80054ba:	b2d2      	uxtb	r2, r2
 80054bc:	3302      	adds	r3, #2
 80054be:	3401      	adds	r4, #1
 80054c0:	b2db      	uxtb	r3, r3
 80054c2:	54a8      	strb	r0, [r5, r2]
 80054c4:	e7f3      	b.n	80054ae <USBD_GetString+0x22>

080054c6 <USBD_CtlSendData>:
 80054c6:	0013      	movs	r3, r2
 80054c8:	22a5      	movs	r2, #165	@ 0xa5
 80054ca:	b510      	push	{r4, lr}
 80054cc:	2402      	movs	r4, #2
 80054ce:	0092      	lsls	r2, r2, #2
 80054d0:	5084      	str	r4, [r0, r2]
 80054d2:	000a      	movs	r2, r1
 80054d4:	61c3      	str	r3, [r0, #28]
 80054d6:	2100      	movs	r1, #0
 80054d8:	6203      	str	r3, [r0, #32]
 80054da:	f000 fd0d 	bl	8005ef8 <USBD_LL_Transmit>
 80054de:	2000      	movs	r0, #0
 80054e0:	bd10      	pop	{r4, pc}

080054e2 <USBD_CtlContinueSendData>:
 80054e2:	b510      	push	{r4, lr}
 80054e4:	0013      	movs	r3, r2
 80054e6:	000a      	movs	r2, r1
 80054e8:	2100      	movs	r1, #0
 80054ea:	f000 fd05 	bl	8005ef8 <USBD_LL_Transmit>
 80054ee:	2000      	movs	r0, #0
 80054f0:	bd10      	pop	{r4, pc}

080054f2 <USBD_CtlContinueRx>:
 80054f2:	b510      	push	{r4, lr}
 80054f4:	0013      	movs	r3, r2
 80054f6:	000a      	movs	r2, r1
 80054f8:	2100      	movs	r1, #0
 80054fa:	f000 fd06 	bl	8005f0a <USBD_LL_PrepareReceive>
 80054fe:	2000      	movs	r0, #0
 8005500:	bd10      	pop	{r4, pc}

08005502 <USBD_CtlSendStatus>:
 8005502:	23a5      	movs	r3, #165	@ 0xa5
 8005504:	2204      	movs	r2, #4
 8005506:	009b      	lsls	r3, r3, #2
 8005508:	b510      	push	{r4, lr}
 800550a:	50c2      	str	r2, [r0, r3]
 800550c:	2300      	movs	r3, #0
 800550e:	001a      	movs	r2, r3
 8005510:	0019      	movs	r1, r3
 8005512:	f000 fcf1 	bl	8005ef8 <USBD_LL_Transmit>
 8005516:	2000      	movs	r0, #0
 8005518:	bd10      	pop	{r4, pc}

0800551a <USBD_CtlReceiveStatus>:
 800551a:	23a5      	movs	r3, #165	@ 0xa5
 800551c:	2205      	movs	r2, #5
 800551e:	009b      	lsls	r3, r3, #2
 8005520:	b510      	push	{r4, lr}
 8005522:	50c2      	str	r2, [r0, r3]
 8005524:	2300      	movs	r3, #0
 8005526:	001a      	movs	r2, r3
 8005528:	0019      	movs	r1, r3
 800552a:	f000 fcee 	bl	8005f0a <USBD_LL_PrepareReceive>
 800552e:	2000      	movs	r0, #0
 8005530:	bd10      	pop	{r4, pc}
	...

08005534 <MX_USB_DEVICE_Init>:
 8005534:	b510      	push	{r4, lr}
 8005536:	4c11      	ldr	r4, [pc, #68]	@ (800557c <MX_USB_DEVICE_Init+0x48>)
 8005538:	2200      	movs	r2, #0
 800553a:	0020      	movs	r0, r4
 800553c:	4910      	ldr	r1, [pc, #64]	@ (8005580 <MX_USB_DEVICE_Init+0x4c>)
 800553e:	f7ff fc1e 	bl	8004d7e <USBD_Init>
 8005542:	2800      	cmp	r0, #0
 8005544:	d001      	beq.n	800554a <MX_USB_DEVICE_Init+0x16>
 8005546:	f7fc fb25 	bl	8001b94 <Error_Handler>
 800554a:	0020      	movs	r0, r4
 800554c:	490d      	ldr	r1, [pc, #52]	@ (8005584 <MX_USB_DEVICE_Init+0x50>)
 800554e:	f7ff fc30 	bl	8004db2 <USBD_RegisterClass>
 8005552:	2800      	cmp	r0, #0
 8005554:	d001      	beq.n	800555a <MX_USB_DEVICE_Init+0x26>
 8005556:	f7fc fb1d 	bl	8001b94 <Error_Handler>
 800555a:	0020      	movs	r0, r4
 800555c:	490a      	ldr	r1, [pc, #40]	@ (8005588 <MX_USB_DEVICE_Init+0x54>)
 800555e:	f000 f909 	bl	8005774 <USBD_MIDI_RegisterInterface>
 8005562:	2800      	cmp	r0, #0
 8005564:	d001      	beq.n	800556a <MX_USB_DEVICE_Init+0x36>
 8005566:	f7fc fb15 	bl	8001b94 <Error_Handler>
 800556a:	0020      	movs	r0, r4
 800556c:	f7ff fc2a 	bl	8004dc4 <USBD_Start>
 8005570:	2800      	cmp	r0, #0
 8005572:	d001      	beq.n	8005578 <MX_USB_DEVICE_Init+0x44>
 8005574:	f7fc fb0e 	bl	8001b94 <Error_Handler>
 8005578:	bd10      	pop	{r4, pc}
 800557a:	46c0      	nop			@ (mov r8, r8)
 800557c:	200004cc 	.word	0x200004cc
 8005580:	20000058 	.word	0x20000058
 8005584:	20000074 	.word	0x20000074
 8005588:	20000110 	.word	0x20000110

0800558c <USBD_FS_DeviceDescriptor>:
 800558c:	2312      	movs	r3, #18
 800558e:	4801      	ldr	r0, [pc, #4]	@ (8005594 <USBD_FS_DeviceDescriptor+0x8>)
 8005590:	800b      	strh	r3, [r1, #0]
 8005592:	4770      	bx	lr
 8005594:	20000044 	.word	0x20000044

08005598 <USBD_FS_LangIDStrDescriptor>:
 8005598:	2304      	movs	r3, #4
 800559a:	4801      	ldr	r0, [pc, #4]	@ (80055a0 <USBD_FS_LangIDStrDescriptor+0x8>)
 800559c:	800b      	strh	r3, [r1, #0]
 800559e:	4770      	bx	lr
 80055a0:	20000040 	.word	0x20000040

080055a4 <IntToUnicode>:
 80055a4:	b570      	push	{r4, r5, r6, lr}
 80055a6:	2600      	movs	r6, #0
 80055a8:	0052      	lsls	r2, r2, #1
 80055aa:	188a      	adds	r2, r1, r2
 80055ac:	0f05      	lsrs	r5, r0, #28
 80055ae:	b2ec      	uxtb	r4, r5
 80055b0:	0023      	movs	r3, r4
 80055b2:	3337      	adds	r3, #55	@ 0x37
 80055b4:	2d09      	cmp	r5, #9
 80055b6:	d800      	bhi.n	80055ba <IntToUnicode+0x16>
 80055b8:	3b07      	subs	r3, #7
 80055ba:	700b      	strb	r3, [r1, #0]
 80055bc:	704e      	strb	r6, [r1, #1]
 80055be:	3102      	adds	r1, #2
 80055c0:	0100      	lsls	r0, r0, #4
 80055c2:	428a      	cmp	r2, r1
 80055c4:	d1f2      	bne.n	80055ac <IntToUnicode+0x8>
 80055c6:	bd70      	pop	{r4, r5, r6, pc}

080055c8 <USBD_FS_SerialStrDescriptor>:
 80055c8:	231a      	movs	r3, #26
 80055ca:	b510      	push	{r4, lr}
 80055cc:	800b      	strh	r3, [r1, #0]
 80055ce:	4b0a      	ldr	r3, [pc, #40]	@ (80055f8 <USBD_FS_SerialStrDescriptor+0x30>)
 80055d0:	6818      	ldr	r0, [r3, #0]
 80055d2:	4b0a      	ldr	r3, [pc, #40]	@ (80055fc <USBD_FS_SerialStrDescriptor+0x34>)
 80055d4:	681b      	ldr	r3, [r3, #0]
 80055d6:	18c0      	adds	r0, r0, r3
 80055d8:	2800      	cmp	r0, #0
 80055da:	d00a      	beq.n	80055f2 <USBD_FS_SerialStrDescriptor+0x2a>
 80055dc:	4b08      	ldr	r3, [pc, #32]	@ (8005600 <USBD_FS_SerialStrDescriptor+0x38>)
 80055de:	2208      	movs	r2, #8
 80055e0:	681c      	ldr	r4, [r3, #0]
 80055e2:	4908      	ldr	r1, [pc, #32]	@ (8005604 <USBD_FS_SerialStrDescriptor+0x3c>)
 80055e4:	f7ff ffde 	bl	80055a4 <IntToUnicode>
 80055e8:	2204      	movs	r2, #4
 80055ea:	0020      	movs	r0, r4
 80055ec:	4906      	ldr	r1, [pc, #24]	@ (8005608 <USBD_FS_SerialStrDescriptor+0x40>)
 80055ee:	f7ff ffd9 	bl	80055a4 <IntToUnicode>
 80055f2:	4806      	ldr	r0, [pc, #24]	@ (800560c <USBD_FS_SerialStrDescriptor+0x44>)
 80055f4:	bd10      	pop	{r4, pc}
 80055f6:	46c0      	nop			@ (mov r8, r8)
 80055f8:	1ffff7ac 	.word	0x1ffff7ac
 80055fc:	1ffff7b4 	.word	0x1ffff7b4
 8005600:	1ffff7b0 	.word	0x1ffff7b0
 8005604:	20000026 	.word	0x20000026
 8005608:	20000036 	.word	0x20000036
 800560c:	20000024 	.word	0x20000024

08005610 <USBD_FS_ManufacturerStrDescriptor>:
 8005610:	b510      	push	{r4, lr}
 8005612:	4c04      	ldr	r4, [pc, #16]	@ (8005624 <USBD_FS_ManufacturerStrDescriptor+0x14>)
 8005614:	000a      	movs	r2, r1
 8005616:	0021      	movs	r1, r4
 8005618:	4803      	ldr	r0, [pc, #12]	@ (8005628 <USBD_FS_ManufacturerStrDescriptor+0x18>)
 800561a:	f7ff ff37 	bl	800548c <USBD_GetString>
 800561e:	0020      	movs	r0, r4
 8005620:	bd10      	pop	{r4, pc}
 8005622:	46c0      	nop			@ (mov r8, r8)
 8005624:	20000790 	.word	0x20000790
 8005628:	08006028 	.word	0x08006028

0800562c <USBD_FS_ProductStrDescriptor>:
 800562c:	b510      	push	{r4, lr}
 800562e:	4c04      	ldr	r4, [pc, #16]	@ (8005640 <USBD_FS_ProductStrDescriptor+0x14>)
 8005630:	000a      	movs	r2, r1
 8005632:	0021      	movs	r1, r4
 8005634:	4803      	ldr	r0, [pc, #12]	@ (8005644 <USBD_FS_ProductStrDescriptor+0x18>)
 8005636:	f7ff ff29 	bl	800548c <USBD_GetString>
 800563a:	0020      	movs	r0, r4
 800563c:	bd10      	pop	{r4, pc}
 800563e:	46c0      	nop			@ (mov r8, r8)
 8005640:	20000790 	.word	0x20000790
 8005644:	0800603b 	.word	0x0800603b

08005648 <USBD_FS_ConfigStrDescriptor>:
 8005648:	b510      	push	{r4, lr}
 800564a:	4c04      	ldr	r4, [pc, #16]	@ (800565c <USBD_FS_ConfigStrDescriptor+0x14>)
 800564c:	000a      	movs	r2, r1
 800564e:	0021      	movs	r1, r4
 8005650:	4803      	ldr	r0, [pc, #12]	@ (8005660 <USBD_FS_ConfigStrDescriptor+0x18>)
 8005652:	f7ff ff1b 	bl	800548c <USBD_GetString>
 8005656:	0020      	movs	r0, r4
 8005658:	bd10      	pop	{r4, pc}
 800565a:	46c0      	nop			@ (mov r8, r8)
 800565c:	20000790 	.word	0x20000790
 8005660:	08006043 	.word	0x08006043

08005664 <USBD_FS_InterfaceStrDescriptor>:
 8005664:	b510      	push	{r4, lr}
 8005666:	4c04      	ldr	r4, [pc, #16]	@ (8005678 <USBD_FS_InterfaceStrDescriptor+0x14>)
 8005668:	000a      	movs	r2, r1
 800566a:	0021      	movs	r1, r4
 800566c:	4803      	ldr	r0, [pc, #12]	@ (800567c <USBD_FS_InterfaceStrDescriptor+0x18>)
 800566e:	f7ff ff0d 	bl	800548c <USBD_GetString>
 8005672:	0020      	movs	r0, r4
 8005674:	bd10      	pop	{r4, pc}
 8005676:	46c0      	nop			@ (mov r8, r8)
 8005678:	20000790 	.word	0x20000790
 800567c:	0800604e 	.word	0x0800604e

08005680 <USBD_MIDI_Setup>:
 8005680:	2000      	movs	r0, #0
 8005682:	4770      	bx	lr

08005684 <USBD_MIDI_DataIn>:
 8005684:	23ae      	movs	r3, #174	@ 0xae
 8005686:	009b      	lsls	r3, r3, #2
 8005688:	58c3      	ldr	r3, [r0, r3]
 800568a:	2000      	movs	r0, #0
 800568c:	4a02      	ldr	r2, [pc, #8]	@ (8005698 <USBD_MIDI_DataIn+0x14>)
 800568e:	6118      	str	r0, [r3, #16]
 8005690:	6813      	ldr	r3, [r2, #0]
 8005692:	3301      	adds	r3, #1
 8005694:	6013      	str	r3, [r2, #0]
 8005696:	4770      	bx	lr
 8005698:	20000990 	.word	0x20000990

0800569c <USBD_MIDI_GetFSCfgDesc>:
 800569c:	2361      	movs	r3, #97	@ 0x61
 800569e:	8003      	strh	r3, [r0, #0]
 80056a0:	4800      	ldr	r0, [pc, #0]	@ (80056a4 <USBD_MIDI_GetFSCfgDesc+0x8>)
 80056a2:	4770      	bx	lr
 80056a4:	200000ac 	.word	0x200000ac

080056a8 <USBD_MIDI_DataOut>:
 80056a8:	23ae      	movs	r3, #174	@ 0xae
 80056aa:	b537      	push	{r0, r1, r2, r4, r5, lr}
 80056ac:	009b      	lsls	r3, r3, #2
 80056ae:	2101      	movs	r1, #1
 80056b0:	58c5      	ldr	r5, [r0, r3]
 80056b2:	0004      	movs	r4, r0
 80056b4:	f000 fc32 	bl	8005f1c <USBD_LL_GetRxDataSize>
 80056b8:	22af      	movs	r2, #175	@ 0xaf
 80056ba:	0092      	lsls	r2, r2, #2
 80056bc:	58a2      	ldr	r2, [r4, r2]
 80056be:	0003      	movs	r3, r0
 80056c0:	60a8      	str	r0, [r5, #8]
 80056c2:	2a00      	cmp	r2, #0
 80056c4:	d006      	beq.n	80056d4 <USBD_MIDI_DataOut+0x2c>
 80056c6:	6828      	ldr	r0, [r5, #0]
 80056c8:	2800      	cmp	r0, #0
 80056ca:	d003      	beq.n	80056d4 <USBD_MIDI_DataOut+0x2c>
 80056cc:	9301      	str	r3, [sp, #4]
 80056ce:	a901      	add	r1, sp, #4
 80056d0:	6893      	ldr	r3, [r2, #8]
 80056d2:	4798      	blx	r3
 80056d4:	682a      	ldr	r2, [r5, #0]
 80056d6:	2340      	movs	r3, #64	@ 0x40
 80056d8:	2101      	movs	r1, #1
 80056da:	0020      	movs	r0, r4
 80056dc:	f000 fc15 	bl	8005f0a <USBD_LL_PrepareReceive>
 80056e0:	2000      	movs	r0, #0
 80056e2:	bd3e      	pop	{r1, r2, r3, r4, r5, pc}

080056e4 <USBD_MIDI_DeInit>:
 80056e4:	b570      	push	{r4, r5, r6, lr}
 80056e6:	0004      	movs	r4, r0
 80056e8:	25ae      	movs	r5, #174	@ 0xae
 80056ea:	2181      	movs	r1, #129	@ 0x81
 80056ec:	f000 fbcb 	bl	8005e86 <USBD_LL_CloseEP>
 80056f0:	00ad      	lsls	r5, r5, #2
 80056f2:	2101      	movs	r1, #1
 80056f4:	0020      	movs	r0, r4
 80056f6:	f000 fbc6 	bl	8005e86 <USBD_LL_CloseEP>
 80056fa:	5963      	ldr	r3, [r4, r5]
 80056fc:	2b00      	cmp	r3, #0
 80056fe:	d009      	beq.n	8005714 <USBD_MIDI_DeInit+0x30>
 8005700:	23af      	movs	r3, #175	@ 0xaf
 8005702:	009b      	lsls	r3, r3, #2
 8005704:	58e3      	ldr	r3, [r4, r3]
 8005706:	685b      	ldr	r3, [r3, #4]
 8005708:	4798      	blx	r3
 800570a:	5960      	ldr	r0, [r4, r5]
 800570c:	f000 fc12 	bl	8005f34 <USBD_static_free>
 8005710:	2300      	movs	r3, #0
 8005712:	5163      	str	r3, [r4, r5]
 8005714:	2000      	movs	r0, #0
 8005716:	bd70      	pop	{r4, r5, r6, pc}

08005718 <USBD_MIDI_Init>:
 8005718:	b570      	push	{r4, r5, r6, lr}
 800571a:	0005      	movs	r5, r0
 800571c:	2014      	movs	r0, #20
 800571e:	f000 fc05 	bl	8005f2c <USBD_static_malloc>
 8005722:	23ae      	movs	r3, #174	@ 0xae
 8005724:	009b      	lsls	r3, r3, #2
 8005726:	0004      	movs	r4, r0
 8005728:	50e8      	str	r0, [r5, r3]
 800572a:	2002      	movs	r0, #2
 800572c:	2c00      	cmp	r4, #0
 800572e:	d01a      	beq.n	8005766 <USBD_MIDI_Init+0x4e>
 8005730:	2300      	movs	r3, #0
 8005732:	0002      	movs	r2, r0
 8005734:	2181      	movs	r1, #129	@ 0x81
 8005736:	6123      	str	r3, [r4, #16]
 8005738:	6023      	str	r3, [r4, #0]
 800573a:	6063      	str	r3, [r4, #4]
 800573c:	60a3      	str	r3, [r4, #8]
 800573e:	60e3      	str	r3, [r4, #12]
 8005740:	0028      	movs	r0, r5
 8005742:	3340      	adds	r3, #64	@ 0x40
 8005744:	f000 fb93 	bl	8005e6e <USBD_LL_OpenEP>
 8005748:	2202      	movs	r2, #2
 800574a:	2340      	movs	r3, #64	@ 0x40
 800574c:	2101      	movs	r1, #1
 800574e:	0028      	movs	r0, r5
 8005750:	f000 fb8d 	bl	8005e6e <USBD_LL_OpenEP>
 8005754:	23af      	movs	r3, #175	@ 0xaf
 8005756:	009b      	lsls	r3, r3, #2
 8005758:	58eb      	ldr	r3, [r5, r3]
 800575a:	681b      	ldr	r3, [r3, #0]
 800575c:	4798      	blx	r3
 800575e:	6822      	ldr	r2, [r4, #0]
 8005760:	2a00      	cmp	r2, #0
 8005762:	d101      	bne.n	8005768 <USBD_MIDI_Init+0x50>
 8005764:	2000      	movs	r0, #0
 8005766:	bd70      	pop	{r4, r5, r6, pc}
 8005768:	2340      	movs	r3, #64	@ 0x40
 800576a:	2101      	movs	r1, #1
 800576c:	0028      	movs	r0, r5
 800576e:	f000 fbcc 	bl	8005f0a <USBD_LL_PrepareReceive>
 8005772:	e7f7      	b.n	8005764 <USBD_MIDI_Init+0x4c>

08005774 <USBD_MIDI_RegisterInterface>:
 8005774:	0003      	movs	r3, r0
 8005776:	2002      	movs	r0, #2
 8005778:	2900      	cmp	r1, #0
 800577a:	d003      	beq.n	8005784 <USBD_MIDI_RegisterInterface+0x10>
 800577c:	22af      	movs	r2, #175	@ 0xaf
 800577e:	2000      	movs	r0, #0
 8005780:	0092      	lsls	r2, r2, #2
 8005782:	5099      	str	r1, [r3, r2]
 8005784:	4770      	bx	lr

08005786 <USBD_MIDI_SetTxBuffer>:
 8005786:	23ae      	movs	r3, #174	@ 0xae
 8005788:	009b      	lsls	r3, r3, #2
 800578a:	58c3      	ldr	r3, [r0, r3]
 800578c:	2000      	movs	r0, #0
 800578e:	6059      	str	r1, [r3, #4]
 8005790:	60da      	str	r2, [r3, #12]
 8005792:	4770      	bx	lr

08005794 <USBD_MIDI_TransmitPacket>:
 8005794:	23ae      	movs	r3, #174	@ 0xae
 8005796:	009b      	lsls	r3, r3, #2
 8005798:	58c2      	ldr	r2, [r0, r3]
 800579a:	b510      	push	{r4, lr}
 800579c:	6913      	ldr	r3, [r2, #16]
 800579e:	0004      	movs	r4, r0
 80057a0:	2001      	movs	r0, #1
 80057a2:	2b00      	cmp	r3, #0
 80057a4:	d107      	bne.n	80057b6 <USBD_MIDI_TransmitPacket+0x22>
 80057a6:	68d3      	ldr	r3, [r2, #12]
 80057a8:	6110      	str	r0, [r2, #16]
 80057aa:	2181      	movs	r1, #129	@ 0x81
 80057ac:	0020      	movs	r0, r4
 80057ae:	6852      	ldr	r2, [r2, #4]
 80057b0:	b29b      	uxth	r3, r3
 80057b2:	f000 fba1 	bl	8005ef8 <USBD_LL_Transmit>
 80057b6:	bd10      	pop	{r4, pc}

080057b8 <USBD_MIDI_IsTxBusy>:
 80057b8:	2800      	cmp	r0, #0
 80057ba:	d008      	beq.n	80057ce <USBD_MIDI_IsTxBusy+0x16>
 80057bc:	22ae      	movs	r2, #174	@ 0xae
 80057be:	0092      	lsls	r2, r2, #2
 80057c0:	5883      	ldr	r3, [r0, r2]
 80057c2:	1e18      	subs	r0, r3, #0
 80057c4:	d003      	beq.n	80057ce <USBD_MIDI_IsTxBusy+0x16>
 80057c6:	6918      	ldr	r0, [r3, #16]
 80057c8:	1e43      	subs	r3, r0, #1
 80057ca:	4198      	sbcs	r0, r3
 80057cc:	b2c0      	uxtb	r0, r0
 80057ce:	4770      	bx	lr

080057d0 <USBD_MIDI_SetRxBuffer>:
 80057d0:	23ae      	movs	r3, #174	@ 0xae
 80057d2:	009b      	lsls	r3, r3, #2
 80057d4:	58c3      	ldr	r3, [r0, r3]
 80057d6:	2000      	movs	r0, #0
 80057d8:	6019      	str	r1, [r3, #0]
 80057da:	4770      	bx	lr

080057dc <USBD_MIDI_ReceivePacket>:
 80057dc:	23ae      	movs	r3, #174	@ 0xae
 80057de:	009b      	lsls	r3, r3, #2
 80057e0:	58c3      	ldr	r3, [r0, r3]
 80057e2:	b510      	push	{r4, lr}
 80057e4:	681a      	ldr	r2, [r3, #0]
 80057e6:	2302      	movs	r3, #2
 80057e8:	2a00      	cmp	r2, #0
 80057ea:	d004      	beq.n	80057f6 <USBD_MIDI_ReceivePacket+0x1a>
 80057ec:	333e      	adds	r3, #62	@ 0x3e
 80057ee:	2101      	movs	r1, #1
 80057f0:	f000 fb8b 	bl	8005f0a <USBD_LL_PrepareReceive>
 80057f4:	0003      	movs	r3, r0
 80057f6:	0018      	movs	r0, r3
 80057f8:	bd10      	pop	{r4, pc}

080057fa <MIDI_DeInit_FS>:
 80057fa:	2000      	movs	r0, #0
 80057fc:	4770      	bx	lr

080057fe <encode_payload_7bit_fixed>:
 80057fe:	b5f0      	push	{r4, r5, r6, r7, lr}
 8005800:	2700      	movs	r7, #0
 8005802:	000e      	movs	r6, r1
 8005804:	003c      	movs	r4, r7
 8005806:	b085      	sub	sp, #20
 8005808:	9001      	str	r0, [sp, #4]
 800580a:	2207      	movs	r2, #7
 800580c:	2100      	movs	r1, #0
 800580e:	a802      	add	r0, sp, #8
 8005810:	f000 fb91 	bl	8005f36 <memset>
 8005814:	2300      	movs	r3, #0
 8005816:	003a      	movs	r2, r7
 8005818:	0019      	movs	r1, r3
 800581a:	2701      	movs	r7, #1
 800581c:	9d01      	ldr	r5, [sp, #4]
 800581e:	9801      	ldr	r0, [sp, #4]
 8005820:	56ad      	ldrsb	r5, [r5, r2]
 8005822:	5c80      	ldrb	r0, [r0, r2]
 8005824:	2d00      	cmp	r5, #0
 8005826:	da03      	bge.n	8005830 <encode_payload_7bit_fixed+0x32>
 8005828:	003d      	movs	r5, r7
 800582a:	409d      	lsls	r5, r3
 800582c:	4329      	orrs	r1, r5
 800582e:	b2c9      	uxtb	r1, r1
 8005830:	257f      	movs	r5, #127	@ 0x7f
 8005832:	4028      	ands	r0, r5
 8005834:	ad02      	add	r5, sp, #8
 8005836:	5558      	strb	r0, [r3, r5]
 8005838:	2b06      	cmp	r3, #6
 800583a:	d01a      	beq.n	8005872 <encode_payload_7bit_fixed+0x74>
 800583c:	1c50      	adds	r0, r2, #1
 800583e:	b285      	uxth	r5, r0
 8005840:	3301      	adds	r3, #1
 8005842:	2d24      	cmp	r5, #36	@ 0x24
 8005844:	d113      	bne.n	800586e <encode_payload_7bit_fixed+0x70>
 8005846:	b2db      	uxtb	r3, r3
 8005848:	5531      	strb	r1, [r6, r4]
 800584a:	2100      	movs	r1, #0
 800584c:	1c60      	adds	r0, r4, #1
 800584e:	b280      	uxth	r0, r0
 8005850:	1844      	adds	r4, r0, r1
 8005852:	b2cf      	uxtb	r7, r1
 8005854:	b2a4      	uxth	r4, r4
 8005856:	42bb      	cmp	r3, r7
 8005858:	d80d      	bhi.n	8005876 <encode_payload_7bit_fixed+0x78>
 800585a:	3201      	adds	r2, #1
 800585c:	181b      	adds	r3, r3, r0
 800585e:	b297      	uxth	r7, r2
 8005860:	b29c      	uxth	r4, r3
 8005862:	2f24      	cmp	r7, #36	@ 0x24
 8005864:	d001      	beq.n	800586a <encode_payload_7bit_fixed+0x6c>
 8005866:	2c29      	cmp	r4, #41	@ 0x29
 8005868:	d9cf      	bls.n	800580a <encode_payload_7bit_fixed+0xc>
 800586a:	b005      	add	sp, #20
 800586c:	bdf0      	pop	{r4, r5, r6, r7, pc}
 800586e:	0002      	movs	r2, r0
 8005870:	e7d4      	b.n	800581c <encode_payload_7bit_fixed+0x1e>
 8005872:	2307      	movs	r3, #7
 8005874:	e7e8      	b.n	8005848 <encode_payload_7bit_fixed+0x4a>
 8005876:	ad02      	add	r5, sp, #8
 8005878:	5c6f      	ldrb	r7, [r5, r1]
 800587a:	3101      	adds	r1, #1
 800587c:	5537      	strb	r7, [r6, r4]
 800587e:	e7e7      	b.n	8005850 <encode_payload_7bit_fixed+0x52>

08005880 <MIDI_Init_FS>:
 8005880:	b510      	push	{r4, lr}
 8005882:	4c06      	ldr	r4, [pc, #24]	@ (800589c <MIDI_Init_FS+0x1c>)
 8005884:	2200      	movs	r2, #0
 8005886:	0020      	movs	r0, r4
 8005888:	4905      	ldr	r1, [pc, #20]	@ (80058a0 <MIDI_Init_FS+0x20>)
 800588a:	f7ff ff7c 	bl	8005786 <USBD_MIDI_SetTxBuffer>
 800588e:	0020      	movs	r0, r4
 8005890:	4904      	ldr	r1, [pc, #16]	@ (80058a4 <MIDI_Init_FS+0x24>)
 8005892:	f7ff ff9d 	bl	80057d0 <USBD_MIDI_SetRxBuffer>
 8005896:	2000      	movs	r0, #0
 8005898:	bd10      	pop	{r4, pc}
 800589a:	46c0      	nop			@ (mov r8, r8)
 800589c:	200004cc 	.word	0x200004cc
 80058a0:	20000bb0 	.word	0x20000bb0
 80058a4:	20000bf0 	.word	0x20000bf0

080058a8 <MIDI_SetBufferType_FS>:
 80058a8:	4b01      	ldr	r3, [pc, #4]	@ (80058b0 <MIDI_SetBufferType_FS+0x8>)
 80058aa:	7018      	strb	r0, [r3, #0]
 80058ac:	4770      	bx	lr
 80058ae:	46c0      	nop			@ (mov r8, r8)
 80058b0:	2000020c 	.word	0x2000020c

080058b4 <MIDI_GetBufferType_FS>:
 80058b4:	4b01      	ldr	r3, [pc, #4]	@ (80058bc <MIDI_GetBufferType_FS+0x8>)
 80058b6:	7818      	ldrb	r0, [r3, #0]
 80058b8:	b2c0      	uxtb	r0, r0
 80058ba:	4770      	bx	lr
 80058bc:	2000020c 	.word	0x2000020c

080058c0 <MIDI_GetRxBufferBytesAvailable_FS>:
 80058c0:	4a03      	ldr	r2, [pc, #12]	@ (80058d0 <MIDI_GetRxBufferBytesAvailable_FS+0x10>)
 80058c2:	4b04      	ldr	r3, [pc, #16]	@ (80058d4 <MIDI_GetRxBufferBytesAvailable_FS+0x14>)
 80058c4:	8810      	ldrh	r0, [r2, #0]
 80058c6:	881b      	ldrh	r3, [r3, #0]
 80058c8:	1ac0      	subs	r0, r0, r3
 80058ca:	05c0      	lsls	r0, r0, #23
 80058cc:	0dc0      	lsrs	r0, r0, #23
 80058ce:	4770      	bx	lr
 80058d0:	200009ae 	.word	0x200009ae
 80058d4:	200009ac 	.word	0x200009ac

080058d8 <MIDI_Receive_FS>:
 80058d8:	b5f0      	push	{r4, r5, r6, r7, lr}
 80058da:	4a4c      	ldr	r2, [pc, #304]	@ (8005a0c <MIDI_Receive_FS+0x134>)
 80058dc:	6809      	ldr	r1, [r1, #0]
 80058de:	6813      	ldr	r3, [r2, #0]
 80058e0:	b099      	sub	sp, #100	@ 0x64
 80058e2:	3301      	adds	r3, #1
 80058e4:	6013      	str	r3, [r2, #0]
 80058e6:	2940      	cmp	r1, #64	@ 0x40
 80058e8:	d175      	bne.n	80059d6 <MIDI_Receive_FS+0xfe>
 80058ea:	aa0c      	add	r2, sp, #48	@ 0x30
 80058ec:	0014      	movs	r4, r2
 80058ee:	1c43      	adds	r3, r0, #1
 80058f0:	3041      	adds	r0, #65	@ 0x41
 80058f2:	7819      	ldrb	r1, [r3, #0]
 80058f4:	7011      	strb	r1, [r2, #0]
 80058f6:	7859      	ldrb	r1, [r3, #1]
 80058f8:	7051      	strb	r1, [r2, #1]
 80058fa:	7899      	ldrb	r1, [r3, #2]
 80058fc:	3304      	adds	r3, #4
 80058fe:	7091      	strb	r1, [r2, #2]
 8005900:	3203      	adds	r2, #3
 8005902:	4283      	cmp	r3, r0
 8005904:	d1f5      	bne.n	80058f2 <MIDI_Receive_FS+0x1a>
 8005906:	7823      	ldrb	r3, [r4, #0]
 8005908:	2bf0      	cmp	r3, #240	@ 0xf0
 800590a:	d164      	bne.n	80059d6 <MIDI_Receive_FS+0xfe>
 800590c:	7863      	ldrb	r3, [r4, #1]
 800590e:	2b7d      	cmp	r3, #125	@ 0x7d
 8005910:	d161      	bne.n	80059d6 <MIDI_Receive_FS+0xfe>
 8005912:	78a3      	ldrb	r3, [r4, #2]
 8005914:	2b45      	cmp	r3, #69	@ 0x45
 8005916:	d15e      	bne.n	80059d6 <MIDI_Receive_FS+0xfe>
 8005918:	78e3      	ldrb	r3, [r4, #3]
 800591a:	2b4d      	cmp	r3, #77	@ 0x4d
 800591c:	d15b      	bne.n	80059d6 <MIDI_Receive_FS+0xfe>
 800591e:	7923      	ldrb	r3, [r4, #4]
 8005920:	2b57      	cmp	r3, #87	@ 0x57
 8005922:	d158      	bne.n	80059d6 <MIDI_Receive_FS+0xfe>
 8005924:	aa02      	add	r2, sp, #8
 8005926:	189b      	adds	r3, r3, r2
 8005928:	781b      	ldrb	r3, [r3, #0]
 800592a:	2bf7      	cmp	r3, #247	@ 0xf7
 800592c:	d153      	bne.n	80059d6 <MIDI_Receive_FS+0xfe>
 800592e:	2100      	movs	r1, #0
 8005930:	000b      	movs	r3, r1
 8005932:	0018      	movs	r0, r3
 8005934:	1c5a      	adds	r2, r3, #1
 8005936:	232d      	movs	r3, #45	@ 0x2d
 8005938:	ad02      	add	r5, sp, #8
 800593a:	195b      	adds	r3, r3, r5
 800593c:	5c1b      	ldrb	r3, [r3, r0]
 800593e:	b292      	uxth	r2, r2
 8005940:	469c      	mov	ip, r3
 8005942:	2a2a      	cmp	r2, #42	@ 0x2a
 8005944:	d047      	beq.n	80059d6 <MIDI_Receive_FS+0xfe>
 8005946:	000e      	movs	r6, r1
 8005948:	2500      	movs	r5, #0
 800594a:	3006      	adds	r0, #6
 800594c:	0013      	movs	r3, r2
 800594e:	1822      	adds	r2, r4, r0
 8005950:	9201      	str	r2, [sp, #4]
 8005952:	217f      	movs	r1, #127	@ 0x7f
 8005954:	9a01      	ldr	r2, [sp, #4]
 8005956:	4667      	mov	r7, ip
 8005958:	5d52      	ldrb	r2, [r2, r5]
 800595a:	3301      	adds	r3, #1
 800595c:	400a      	ands	r2, r1
 800595e:	397e      	subs	r1, #126	@ 0x7e
 8005960:	40a9      	lsls	r1, r5
 8005962:	b29b      	uxth	r3, r3
 8005964:	4239      	tst	r1, r7
 8005966:	d003      	beq.n	8005970 <MIDI_Receive_FS+0x98>
 8005968:	2180      	movs	r1, #128	@ 0x80
 800596a:	4249      	negs	r1, r1
 800596c:	430a      	orrs	r2, r1
 800596e:	b2d2      	uxtb	r2, r2
 8005970:	1c77      	adds	r7, r6, #1
 8005972:	a803      	add	r0, sp, #12
 8005974:	b2b9      	uxth	r1, r7
 8005976:	5582      	strb	r2, [r0, r6]
 8005978:	2d06      	cmp	r5, #6
 800597a:	d032      	beq.n	80059e2 <MIDI_Receive_FS+0x10a>
 800597c:	2924      	cmp	r1, #36	@ 0x24
 800597e:	d126      	bne.n	80059ce <MIDI_Receive_FS+0xf6>
 8005980:	4b23      	ldr	r3, [pc, #140]	@ (8005a10 <MIDI_Receive_FS+0x138>)
 8005982:	781b      	ldrb	r3, [r3, #0]
 8005984:	2b01      	cmp	r3, #1
 8005986:	d119      	bne.n	80059bc <MIDI_Receive_FS+0xe4>
 8005988:	4a22      	ldr	r2, [pc, #136]	@ (8005a14 <MIDI_Receive_FS+0x13c>)
 800598a:	4923      	ldr	r1, [pc, #140]	@ (8005a18 <MIDI_Receive_FS+0x140>)
 800598c:	8810      	ldrh	r0, [r2, #0]
 800598e:	2200      	movs	r2, #0
 8005990:	880b      	ldrh	r3, [r1, #0]
 8005992:	4c22      	ldr	r4, [pc, #136]	@ (8005a1c <MIDI_Receive_FS+0x144>)
 8005994:	ad03      	add	r5, sp, #12
 8005996:	18ad      	adds	r5, r5, r2
 8005998:	7cad      	ldrb	r5, [r5, #18]
 800599a:	54e5      	strb	r5, [r4, r3]
 800599c:	3301      	adds	r3, #1
 800599e:	05db      	lsls	r3, r3, #23
 80059a0:	0ddb      	lsrs	r3, r3, #23
 80059a2:	4283      	cmp	r3, r0
 80059a4:	d017      	beq.n	80059d6 <MIDI_Receive_FS+0xfe>
 80059a6:	3201      	adds	r2, #1
 80059a8:	2a12      	cmp	r2, #18
 80059aa:	d1f3      	bne.n	8005994 <MIDI_Receive_FS+0xbc>
 80059ac:	800b      	strh	r3, [r1, #0]
 80059ae:	f7ff ff87 	bl	80058c0 <MIDI_GetRxBufferBytesAvailable_FS>
 80059b2:	2201      	movs	r2, #1
 80059b4:	4b1a      	ldr	r3, [pc, #104]	@ (8005a20 <MIDI_Receive_FS+0x148>)
 80059b6:	8018      	strh	r0, [r3, #0]
 80059b8:	4b1a      	ldr	r3, [pc, #104]	@ (8005a24 <MIDI_Receive_FS+0x14c>)
 80059ba:	701a      	strb	r2, [r3, #0]
 80059bc:	2300      	movs	r3, #0
 80059be:	aa03      	add	r2, sp, #12
 80059c0:	5cd2      	ldrb	r2, [r2, r3]
 80059c2:	2a00      	cmp	r2, #0
 80059c4:	d115      	bne.n	80059f2 <MIDI_Receive_FS+0x11a>
 80059c6:	3301      	adds	r3, #1
 80059c8:	2b12      	cmp	r3, #18
 80059ca:	d1f8      	bne.n	80059be <MIDI_Receive_FS+0xe6>
 80059cc:	e003      	b.n	80059d6 <MIDI_Receive_FS+0xfe>
 80059ce:	003e      	movs	r6, r7
 80059d0:	3501      	adds	r5, #1
 80059d2:	2b2a      	cmp	r3, #42	@ 0x2a
 80059d4:	d1bd      	bne.n	8005952 <MIDI_Receive_FS+0x7a>
 80059d6:	4814      	ldr	r0, [pc, #80]	@ (8005a28 <MIDI_Receive_FS+0x150>)
 80059d8:	f7ff ff00 	bl	80057dc <USBD_MIDI_ReceivePacket>
 80059dc:	2000      	movs	r0, #0
 80059de:	b019      	add	sp, #100	@ 0x64
 80059e0:	bdf0      	pop	{r4, r5, r6, r7, pc}
 80059e2:	2b2a      	cmp	r3, #42	@ 0x2a
 80059e4:	d002      	beq.n	80059ec <MIDI_Receive_FS+0x114>
 80059e6:	2924      	cmp	r1, #36	@ 0x24
 80059e8:	d1a3      	bne.n	8005932 <MIDI_Receive_FS+0x5a>
 80059ea:	e7c9      	b.n	8005980 <MIDI_Receive_FS+0xa8>
 80059ec:	2924      	cmp	r1, #36	@ 0x24
 80059ee:	d0c7      	beq.n	8005980 <MIDI_Receive_FS+0xa8>
 80059f0:	e7f1      	b.n	80059d6 <MIDI_Receive_FS+0xfe>
 80059f2:	4c0e      	ldr	r4, [pc, #56]	@ (8005a2c <MIDI_Receive_FS+0x154>)
 80059f4:	7823      	ldrb	r3, [r4, #0]
 80059f6:	2b00      	cmp	r3, #0
 80059f8:	d1ed      	bne.n	80059d6 <MIDI_Receive_FS+0xfe>
 80059fa:	2212      	movs	r2, #18
 80059fc:	480c      	ldr	r0, [pc, #48]	@ (8005a30 <MIDI_Receive_FS+0x158>)
 80059fe:	a903      	add	r1, sp, #12
 8005a00:	f000 fac6 	bl	8005f90 <memcpy>
 8005a04:	2301      	movs	r3, #1
 8005a06:	7023      	strb	r3, [r4, #0]
 8005a08:	e7e5      	b.n	80059d6 <MIDI_Receive_FS+0xfe>
 8005a0a:	46c0      	nop			@ (mov r8, r8)
 8005a0c:	20000998 	.word	0x20000998
 8005a10:	2000020c 	.word	0x2000020c
 8005a14:	200009ac 	.word	0x200009ac
 8005a18:	200009ae 	.word	0x200009ae
 8005a1c:	200009b0 	.word	0x200009b0
 8005a20:	20000996 	.word	0x20000996
 8005a24:	20000994 	.word	0x20000994
 8005a28:	200004cc 	.word	0x200004cc
 8005a2c:	2000034e 	.word	0x2000034e
 8005a30:	2000034f 	.word	0x2000034f

08005a34 <MIDI_ReadRxBuffer_FS>:
 8005a34:	b570      	push	{r4, r5, r6, lr}
 8005a36:	0004      	movs	r4, r0
 8005a38:	000d      	movs	r5, r1
 8005a3a:	f7ff ff41 	bl	80058c0 <MIDI_GetRxBufferBytesAvailable_FS>
 8005a3e:	2301      	movs	r3, #1
 8005a40:	42a8      	cmp	r0, r5
 8005a42:	d30c      	bcc.n	8005a5e <MIDI_ReadRxBuffer_FS+0x2a>
 8005a44:	2100      	movs	r1, #0
 8005a46:	2601      	movs	r6, #1
 8005a48:	4a0a      	ldr	r2, [pc, #40]	@ (8005a74 <MIDI_ReadRxBuffer_FS+0x40>)
 8005a4a:	0020      	movs	r0, r4
 8005a4c:	1965      	adds	r5, r4, r5
 8005a4e:	8813      	ldrh	r3, [r2, #0]
 8005a50:	4c09      	ldr	r4, [pc, #36]	@ (8005a78 <MIDI_ReadRxBuffer_FS+0x44>)
 8005a52:	42a8      	cmp	r0, r5
 8005a54:	d105      	bne.n	8005a62 <MIDI_ReadRxBuffer_FS+0x2e>
 8005a56:	2900      	cmp	r1, #0
 8005a58:	d000      	beq.n	8005a5c <MIDI_ReadRxBuffer_FS+0x28>
 8005a5a:	8013      	strh	r3, [r2, #0]
 8005a5c:	2300      	movs	r3, #0
 8005a5e:	0018      	movs	r0, r3
 8005a60:	bd70      	pop	{r4, r5, r6, pc}
 8005a62:	5ce1      	ldrb	r1, [r4, r3]
 8005a64:	3301      	adds	r3, #1
 8005a66:	05db      	lsls	r3, r3, #23
 8005a68:	7001      	strb	r1, [r0, #0]
 8005a6a:	0ddb      	lsrs	r3, r3, #23
 8005a6c:	0031      	movs	r1, r6
 8005a6e:	3001      	adds	r0, #1
 8005a70:	e7ef      	b.n	8005a52 <MIDI_ReadRxBuffer_FS+0x1e>
 8005a72:	46c0      	nop			@ (mov r8, r8)
 8005a74:	200009ac 	.word	0x200009ac
 8005a78:	200009b0 	.word	0x200009b0

08005a7c <MIDI_FlushRxBuffer_FS>:
 8005a7c:	2280      	movs	r2, #128	@ 0x80
 8005a7e:	b510      	push	{r4, lr}
 8005a80:	0092      	lsls	r2, r2, #2
 8005a82:	2100      	movs	r1, #0
 8005a84:	4804      	ldr	r0, [pc, #16]	@ (8005a98 <MIDI_FlushRxBuffer_FS+0x1c>)
 8005a86:	f000 fa56 	bl	8005f36 <memset>
 8005a8a:	2200      	movs	r2, #0
 8005a8c:	4b03      	ldr	r3, [pc, #12]	@ (8005a9c <MIDI_FlushRxBuffer_FS+0x20>)
 8005a8e:	801a      	strh	r2, [r3, #0]
 8005a90:	4b03      	ldr	r3, [pc, #12]	@ (8005aa0 <MIDI_FlushRxBuffer_FS+0x24>)
 8005a92:	801a      	strh	r2, [r3, #0]
 8005a94:	bd10      	pop	{r4, pc}
 8005a96:	46c0      	nop			@ (mov r8, r8)
 8005a98:	200009b0 	.word	0x200009b0
 8005a9c:	200009ae 	.word	0x200009ae
 8005aa0:	200009ac 	.word	0x200009ac

08005aa4 <MIDI_InitRxBuffer_FS>:
 8005aa4:	b510      	push	{r4, lr}
 8005aa6:	f7ff ffe9 	bl	8005a7c <MIDI_FlushRxBuffer_FS>
 8005aaa:	bd10      	pop	{r4, pc}

08005aac <MIDI_FreeRxBuffer_FS>:
 8005aac:	2200      	movs	r2, #0
 8005aae:	4b02      	ldr	r3, [pc, #8]	@ (8005ab8 <MIDI_FreeRxBuffer_FS+0xc>)
 8005ab0:	801a      	strh	r2, [r3, #0]
 8005ab2:	4b02      	ldr	r3, [pc, #8]	@ (8005abc <MIDI_FreeRxBuffer_FS+0x10>)
 8005ab4:	801a      	strh	r2, [r3, #0]
 8005ab6:	4770      	bx	lr
 8005ab8:	200009ae 	.word	0x200009ae
 8005abc:	200009ac 	.word	0x200009ac

08005ac0 <MIDI_SendResponsePkt_FS>:
 8005ac0:	b5f0      	push	{r4, r5, r6, r7, lr}
 8005ac2:	0015      	movs	r5, r2
 8005ac4:	b099      	sub	sp, #100	@ 0x64
 8005ac6:	2924      	cmp	r1, #36	@ 0x24
 8005ac8:	d101      	bne.n	8005ace <MIDI_SendResponsePkt_FS+0xe>
 8005aca:	2800      	cmp	r0, #0
 8005acc:	d101      	bne.n	8005ad2 <MIDI_SendResponsePkt_FS+0x12>
 8005ace:	4a2f      	ldr	r2, [pc, #188]	@ (8005b8c <MIDI_SendResponsePkt_FS+0xcc>)
 8005ad0:	e050      	b.n	8005b74 <MIDI_SendResponsePkt_FS+0xb4>
 8005ad2:	a901      	add	r1, sp, #4
 8005ad4:	f7ff fe93 	bl	80057fe <encode_payload_7bit_fixed>
 8005ad8:	4b2d      	ldr	r3, [pc, #180]	@ (8005b90 <MIDI_SendResponsePkt_FS+0xd0>)
 8005ada:	2035      	movs	r0, #53	@ 0x35
 8005adc:	930c      	str	r3, [sp, #48]	@ 0x30
 8005ade:	2357      	movs	r3, #87	@ 0x57
 8005ae0:	ac0c      	add	r4, sp, #48	@ 0x30
 8005ae2:	222a      	movs	r2, #42	@ 0x2a
 8005ae4:	a901      	add	r1, sp, #4
 8005ae6:	4468      	add	r0, sp
 8005ae8:	7123      	strb	r3, [r4, #4]
 8005aea:	f000 fa51 	bl	8005f90 <memcpy>
 8005aee:	235f      	movs	r3, #95	@ 0x5f
 8005af0:	22f7      	movs	r2, #247	@ 0xf7
 8005af2:	2104      	movs	r1, #4
 8005af4:	4827      	ldr	r0, [pc, #156]	@ (8005b94 <MIDI_SendResponsePkt_FS+0xd4>)
 8005af6:	446b      	add	r3, sp
 8005af8:	701a      	strb	r2, [r3, #0]
 8005afa:	0006      	movs	r6, r0
 8005afc:	0023      	movs	r3, r4
 8005afe:	2200      	movs	r2, #0
 8005b00:	000c      	movs	r4, r1
 8005b02:	2707      	movs	r7, #7
 8005b04:	7001      	strb	r1, [r0, #0]
 8005b06:	7819      	ldrb	r1, [r3, #0]
 8005b08:	3201      	adds	r2, #1
 8005b0a:	7041      	strb	r1, [r0, #1]
 8005b0c:	7859      	ldrb	r1, [r3, #1]
 8005b0e:	7081      	strb	r1, [r0, #2]
 8005b10:	7899      	ldrb	r1, [r3, #2]
 8005b12:	3303      	adds	r3, #3
 8005b14:	70c1      	strb	r1, [r0, #3]
 8005b16:	3004      	adds	r0, #4
 8005b18:	2a10      	cmp	r2, #16
 8005b1a:	d11c      	bne.n	8005b56 <MIDI_SendResponsePkt_FS+0x96>
 8005b1c:	f7fc f98e 	bl	8001e3c <HAL_GetTick>
 8005b20:	0007      	movs	r7, r0
 8005b22:	4c1d      	ldr	r4, [pc, #116]	@ (8005b98 <MIDI_SendResponsePkt_FS+0xd8>)
 8005b24:	0020      	movs	r0, r4
 8005b26:	f7ff fe47 	bl	80057b8 <USBD_MIDI_IsTxBusy>
 8005b2a:	2800      	cmp	r0, #0
 8005b2c:	d118      	bne.n	8005b60 <MIDI_SendResponsePkt_FS+0xa0>
 8005b2e:	2240      	movs	r2, #64	@ 0x40
 8005b30:	0031      	movs	r1, r6
 8005b32:	0020      	movs	r0, r4
 8005b34:	f7ff fe27 	bl	8005786 <USBD_MIDI_SetTxBuffer>
 8005b38:	0020      	movs	r0, r4
 8005b3a:	f7ff fe2b 	bl	8005794 <USBD_MIDI_TransmitPacket>
 8005b3e:	2800      	cmp	r0, #0
 8005b40:	d1c5      	bne.n	8005ace <MIDI_SendResponsePkt_FS+0xe>
 8005b42:	0020      	movs	r0, r4
 8005b44:	f7ff fe38 	bl	80057b8 <USBD_MIDI_IsTxBusy>
 8005b48:	2800      	cmp	r0, #0
 8005b4a:	d119      	bne.n	8005b80 <MIDI_SendResponsePkt_FS+0xc0>
 8005b4c:	4a13      	ldr	r2, [pc, #76]	@ (8005b9c <MIDI_SendResponsePkt_FS+0xdc>)
 8005b4e:	6813      	ldr	r3, [r2, #0]
 8005b50:	3301      	adds	r3, #1
 8005b52:	6013      	str	r3, [r2, #0]
 8005b54:	e012      	b.n	8005b7c <MIDI_SendResponsePkt_FS+0xbc>
 8005b56:	0021      	movs	r1, r4
 8005b58:	2a0f      	cmp	r2, #15
 8005b5a:	d1d3      	bne.n	8005b04 <MIDI_SendResponsePkt_FS+0x44>
 8005b5c:	0039      	movs	r1, r7
 8005b5e:	e7d1      	b.n	8005b04 <MIDI_SendResponsePkt_FS+0x44>
 8005b60:	4a0f      	ldr	r2, [pc, #60]	@ (8005ba0 <MIDI_SendResponsePkt_FS+0xe0>)
 8005b62:	6813      	ldr	r3, [r2, #0]
 8005b64:	3301      	adds	r3, #1
 8005b66:	6013      	str	r3, [r2, #0]
 8005b68:	f7fc f968 	bl	8001e3c <HAL_GetTick>
 8005b6c:	1bc0      	subs	r0, r0, r7
 8005b6e:	42a8      	cmp	r0, r5
 8005b70:	d3d7      	bcc.n	8005b22 <MIDI_SendResponsePkt_FS+0x62>
 8005b72:	4a0c      	ldr	r2, [pc, #48]	@ (8005ba4 <MIDI_SendResponsePkt_FS+0xe4>)
 8005b74:	20ff      	movs	r0, #255	@ 0xff
 8005b76:	6813      	ldr	r3, [r2, #0]
 8005b78:	3301      	adds	r3, #1
 8005b7a:	6013      	str	r3, [r2, #0]
 8005b7c:	b019      	add	sp, #100	@ 0x64
 8005b7e:	bdf0      	pop	{r4, r5, r6, r7, pc}
 8005b80:	f7fc f95c 	bl	8001e3c <HAL_GetTick>
 8005b84:	1bc0      	subs	r0, r0, r7
 8005b86:	42a8      	cmp	r0, r5
 8005b88:	d3db      	bcc.n	8005b42 <MIDI_SendResponsePkt_FS+0x82>
 8005b8a:	e7f2      	b.n	8005b72 <MIDI_SendResponsePkt_FS+0xb2>
 8005b8c:	2000099c 	.word	0x2000099c
 8005b90:	4d457df0 	.word	0x4d457df0
 8005b94:	20000bb0 	.word	0x20000bb0
 8005b98:	200004cc 	.word	0x200004cc
 8005b9c:	200009a8 	.word	0x200009a8
 8005ba0:	200009a4 	.word	0x200009a4
 8005ba4:	200009a0 	.word	0x200009a0

08005ba8 <MIDI_SendStatusPacket_FS>:
 8005ba8:	b510      	push	{r4, lr}
 8005baa:	b08a      	sub	sp, #40	@ 0x28
 8005bac:	0004      	movs	r4, r0
 8005bae:	2224      	movs	r2, #36	@ 0x24
 8005bb0:	2100      	movs	r1, #0
 8005bb2:	a801      	add	r0, sp, #4
 8005bb4:	f000 f9bf 	bl	8005f36 <memset>
 8005bb8:	466a      	mov	r2, sp
 8005bba:	ba64      	rev16	r4, r4
 8005bbc:	4b0a      	ldr	r3, [pc, #40]	@ (8005be8 <MIDI_SendStatusPacket_FS+0x40>)
 8005bbe:	8314      	strh	r4, [r2, #24]
 8005bc0:	4c0a      	ldr	r4, [pc, #40]	@ (8005bec <MIDI_SendStatusPacket_FS+0x44>)
 8005bc2:	82d3      	strh	r3, [r2, #22]
 8005bc4:	7823      	ldrb	r3, [r4, #0]
 8005bc6:	2b00      	cmp	r3, #0
 8005bc8:	d006      	beq.n	8005bd8 <MIDI_SendStatusPacket_FS+0x30>
 8005bca:	2212      	movs	r2, #18
 8005bcc:	4908      	ldr	r1, [pc, #32]	@ (8005bf0 <MIDI_SendStatusPacket_FS+0x48>)
 8005bce:	a801      	add	r0, sp, #4
 8005bd0:	f000 f9de 	bl	8005f90 <memcpy>
 8005bd4:	2300      	movs	r3, #0
 8005bd6:	7023      	strb	r3, [r4, #0]
 8005bd8:	2264      	movs	r2, #100	@ 0x64
 8005bda:	2124      	movs	r1, #36	@ 0x24
 8005bdc:	a801      	add	r0, sp, #4
 8005bde:	f7ff ff6f 	bl	8005ac0 <MIDI_SendResponsePkt_FS>
 8005be2:	b00a      	add	sp, #40	@ 0x28
 8005be4:	bd10      	pop	{r4, pc}
 8005be6:	46c0      	nop			@ (mov r8, r8)
 8005be8:	00005342 	.word	0x00005342
 8005bec:	200001f8 	.word	0x200001f8
 8005bf0:	200001f9 	.word	0x200001f9

08005bf4 <MIDI_PollTx_FS>:
 8005bf4:	b510      	push	{r4, lr}
 8005bf6:	4c08      	ldr	r4, [pc, #32]	@ (8005c18 <MIDI_PollTx_FS+0x24>)
 8005bf8:	7823      	ldrb	r3, [r4, #0]
 8005bfa:	2b00      	cmp	r3, #0
 8005bfc:	d00a      	beq.n	8005c14 <MIDI_PollTx_FS+0x20>
 8005bfe:	4807      	ldr	r0, [pc, #28]	@ (8005c1c <MIDI_PollTx_FS+0x28>)
 8005c00:	f7ff fdda 	bl	80057b8 <USBD_MIDI_IsTxBusy>
 8005c04:	2800      	cmp	r0, #0
 8005c06:	d105      	bne.n	8005c14 <MIDI_PollTx_FS+0x20>
 8005c08:	4b05      	ldr	r3, [pc, #20]	@ (8005c20 <MIDI_PollTx_FS+0x2c>)
 8005c0a:	7020      	strb	r0, [r4, #0]
 8005c0c:	8818      	ldrh	r0, [r3, #0]
 8005c0e:	b280      	uxth	r0, r0
 8005c10:	f7ff ffca 	bl	8005ba8 <MIDI_SendStatusPacket_FS>
 8005c14:	bd10      	pop	{r4, pc}
 8005c16:	46c0      	nop			@ (mov r8, r8)
 8005c18:	20000994 	.word	0x20000994
 8005c1c:	200004cc 	.word	0x200004cc
 8005c20:	20000996 	.word	0x20000996

08005c24 <MIDI_TrySendResponsePkt_FS>:
 8005c24:	b5f0      	push	{r4, r5, r6, r7, lr}
 8005c26:	0006      	movs	r6, r0
 8005c28:	b099      	sub	sp, #100	@ 0x64
 8005c2a:	2924      	cmp	r1, #36	@ 0x24
 8005c2c:	d101      	bne.n	8005c32 <MIDI_TrySendResponsePkt_FS+0xe>
 8005c2e:	2800      	cmp	r0, #0
 8005c30:	d105      	bne.n	8005c3e <MIDI_TrySendResponsePkt_FS+0x1a>
 8005c32:	4a26      	ldr	r2, [pc, #152]	@ (8005ccc <MIDI_TrySendResponsePkt_FS+0xa8>)
 8005c34:	2002      	movs	r0, #2
 8005c36:	6813      	ldr	r3, [r2, #0]
 8005c38:	3301      	adds	r3, #1
 8005c3a:	6013      	str	r3, [r2, #0]
 8005c3c:	e00a      	b.n	8005c54 <MIDI_TrySendResponsePkt_FS+0x30>
 8005c3e:	4d24      	ldr	r5, [pc, #144]	@ (8005cd0 <MIDI_TrySendResponsePkt_FS+0xac>)
 8005c40:	0028      	movs	r0, r5
 8005c42:	f7ff fdb9 	bl	80057b8 <USBD_MIDI_IsTxBusy>
 8005c46:	1e04      	subs	r4, r0, #0
 8005c48:	d006      	beq.n	8005c58 <MIDI_TrySendResponsePkt_FS+0x34>
 8005c4a:	2001      	movs	r0, #1
 8005c4c:	4a21      	ldr	r2, [pc, #132]	@ (8005cd4 <MIDI_TrySendResponsePkt_FS+0xb0>)
 8005c4e:	6813      	ldr	r3, [r2, #0]
 8005c50:	3301      	adds	r3, #1
 8005c52:	6013      	str	r3, [r2, #0]
 8005c54:	b019      	add	sp, #100	@ 0x64
 8005c56:	bdf0      	pop	{r4, r5, r6, r7, pc}
 8005c58:	0030      	movs	r0, r6
 8005c5a:	a901      	add	r1, sp, #4
 8005c5c:	f7ff fdcf 	bl	80057fe <encode_payload_7bit_fixed>
 8005c60:	4b1d      	ldr	r3, [pc, #116]	@ (8005cd8 <MIDI_TrySendResponsePkt_FS+0xb4>)
 8005c62:	2035      	movs	r0, #53	@ 0x35
 8005c64:	930c      	str	r3, [sp, #48]	@ 0x30
 8005c66:	2357      	movs	r3, #87	@ 0x57
 8005c68:	ae0c      	add	r6, sp, #48	@ 0x30
 8005c6a:	222a      	movs	r2, #42	@ 0x2a
 8005c6c:	a901      	add	r1, sp, #4
 8005c6e:	4468      	add	r0, sp
 8005c70:	7133      	strb	r3, [r6, #4]
 8005c72:	f000 f98d 	bl	8005f90 <memcpy>
 8005c76:	235f      	movs	r3, #95	@ 0x5f
 8005c78:	22f7      	movs	r2, #247	@ 0xf7
 8005c7a:	446b      	add	r3, sp
 8005c7c:	4f17      	ldr	r7, [pc, #92]	@ (8005cdc <MIDI_TrySendResponsePkt_FS+0xb8>)
 8005c7e:	701a      	strb	r2, [r3, #0]
 8005c80:	3af3      	subs	r2, #243	@ 0xf3
 8005c82:	0033      	movs	r3, r6
 8005c84:	0020      	movs	r0, r4
 8005c86:	0039      	movs	r1, r7
 8005c88:	0014      	movs	r4, r2
 8005c8a:	2607      	movs	r6, #7
 8005c8c:	703a      	strb	r2, [r7, #0]
 8005c8e:	781a      	ldrb	r2, [r3, #0]
 8005c90:	3001      	adds	r0, #1
 8005c92:	707a      	strb	r2, [r7, #1]
 8005c94:	785a      	ldrb	r2, [r3, #1]
 8005c96:	70ba      	strb	r2, [r7, #2]
 8005c98:	789a      	ldrb	r2, [r3, #2]
 8005c9a:	3303      	adds	r3, #3
 8005c9c:	70fa      	strb	r2, [r7, #3]
 8005c9e:	3704      	adds	r7, #4
 8005ca0:	2810      	cmp	r0, #16
 8005ca2:	d10d      	bne.n	8005cc0 <MIDI_TrySendResponsePkt_FS+0x9c>
 8005ca4:	2240      	movs	r2, #64	@ 0x40
 8005ca6:	0028      	movs	r0, r5
 8005ca8:	f7ff fd6d 	bl	8005786 <USBD_MIDI_SetTxBuffer>
 8005cac:	0028      	movs	r0, r5
 8005cae:	f7ff fd71 	bl	8005794 <USBD_MIDI_TransmitPacket>
 8005cb2:	2800      	cmp	r0, #0
 8005cb4:	d1bd      	bne.n	8005c32 <MIDI_TrySendResponsePkt_FS+0xe>
 8005cb6:	4a0a      	ldr	r2, [pc, #40]	@ (8005ce0 <MIDI_TrySendResponsePkt_FS+0xbc>)
 8005cb8:	6813      	ldr	r3, [r2, #0]
 8005cba:	3301      	adds	r3, #1
 8005cbc:	6013      	str	r3, [r2, #0]
 8005cbe:	e7c9      	b.n	8005c54 <MIDI_TrySendResponsePkt_FS+0x30>
 8005cc0:	0022      	movs	r2, r4
 8005cc2:	280f      	cmp	r0, #15
 8005cc4:	d1e2      	bne.n	8005c8c <MIDI_TrySendResponsePkt_FS+0x68>
 8005cc6:	0032      	movs	r2, r6
 8005cc8:	e7e0      	b.n	8005c8c <MIDI_TrySendResponsePkt_FS+0x68>
 8005cca:	46c0      	nop			@ (mov r8, r8)
 8005ccc:	2000099c 	.word	0x2000099c
 8005cd0:	200004cc 	.word	0x200004cc
 8005cd4:	200009a4 	.word	0x200009a4
 8005cd8:	4d457df0 	.word	0x4d457df0
 8005cdc:	20000bb0 	.word	0x20000bb0
 8005ce0:	200009a8 	.word	0x200009a8

08005ce4 <USBD_Get_USB_Status>:
 8005ce4:	2800      	cmp	r0, #0
 8005ce6:	d003      	beq.n	8005cf0 <USBD_Get_USB_Status+0xc>
 8005ce8:	3802      	subs	r0, #2
 8005cea:	1e43      	subs	r3, r0, #1
 8005cec:	4198      	sbcs	r0, r3
 8005cee:	3001      	adds	r0, #1
 8005cf0:	4770      	bx	lr
	...

08005cf4 <HAL_PCD_MspInit>:
 8005cf4:	b507      	push	{r0, r1, r2, lr}
 8005cf6:	4b0b      	ldr	r3, [pc, #44]	@ (8005d24 <HAL_PCD_MspInit+0x30>)
 8005cf8:	6802      	ldr	r2, [r0, #0]
 8005cfa:	429a      	cmp	r2, r3
 8005cfc:	d111      	bne.n	8005d22 <HAL_PCD_MspInit+0x2e>
 8005cfe:	2180      	movs	r1, #128	@ 0x80
 8005d00:	4b09      	ldr	r3, [pc, #36]	@ (8005d28 <HAL_PCD_MspInit+0x34>)
 8005d02:	0409      	lsls	r1, r1, #16
 8005d04:	69da      	ldr	r2, [r3, #28]
 8005d06:	201f      	movs	r0, #31
 8005d08:	430a      	orrs	r2, r1
 8005d0a:	61da      	str	r2, [r3, #28]
 8005d0c:	69db      	ldr	r3, [r3, #28]
 8005d0e:	2200      	movs	r2, #0
 8005d10:	400b      	ands	r3, r1
 8005d12:	9301      	str	r3, [sp, #4]
 8005d14:	2101      	movs	r1, #1
 8005d16:	9b01      	ldr	r3, [sp, #4]
 8005d18:	f7fc f8a8 	bl	8001e6c <HAL_NVIC_SetPriority>
 8005d1c:	201f      	movs	r0, #31
 8005d1e:	f7fc f8cf 	bl	8001ec0 <HAL_NVIC_EnableIRQ>
 8005d22:	bd07      	pop	{r0, r1, r2, pc}
 8005d24:	40005c00 	.word	0x40005c00
 8005d28:	40021000 	.word	0x40021000

08005d2c <HAL_PCD_SetupStageCallback>:
 8005d2c:	23ac      	movs	r3, #172	@ 0xac
 8005d2e:	b510      	push	{r4, lr}
 8005d30:	009b      	lsls	r3, r3, #2
 8005d32:	18c1      	adds	r1, r0, r3
 8005d34:	3340      	adds	r3, #64	@ 0x40
 8005d36:	58c0      	ldr	r0, [r0, r3]
 8005d38:	f7ff f860 	bl	8004dfc <USBD_LL_SetupStage>
 8005d3c:	bd10      	pop	{r4, pc}

08005d3e <HAL_PCD_DataOutStageCallback>:
 8005d3e:	2328      	movs	r3, #40	@ 0x28
 8005d40:	434b      	muls	r3, r1
 8005d42:	18c3      	adds	r3, r0, r3
 8005d44:	337d      	adds	r3, #125	@ 0x7d
 8005d46:	33ff      	adds	r3, #255	@ 0xff
 8005d48:	681a      	ldr	r2, [r3, #0]
 8005d4a:	23bc      	movs	r3, #188	@ 0xbc
 8005d4c:	b510      	push	{r4, lr}
 8005d4e:	009b      	lsls	r3, r3, #2
 8005d50:	58c0      	ldr	r0, [r0, r3]
 8005d52:	f7ff f885 	bl	8004e60 <USBD_LL_DataOutStage>
 8005d56:	bd10      	pop	{r4, pc}

08005d58 <HAL_PCD_DataInStageCallback>:
 8005d58:	2328      	movs	r3, #40	@ 0x28
 8005d5a:	434b      	muls	r3, r1
 8005d5c:	18c3      	adds	r3, r0, r3
 8005d5e:	6bda      	ldr	r2, [r3, #60]	@ 0x3c
 8005d60:	23bc      	movs	r3, #188	@ 0xbc
 8005d62:	b510      	push	{r4, lr}
 8005d64:	009b      	lsls	r3, r3, #2
 8005d66:	58c0      	ldr	r0, [r0, r3]
 8005d68:	f7ff f8bd 	bl	8004ee6 <USBD_LL_DataInStage>
 8005d6c:	bd10      	pop	{r4, pc}

08005d6e <HAL_PCD_SOFCallback>:
 8005d6e:	23bc      	movs	r3, #188	@ 0xbc
 8005d70:	b510      	push	{r4, lr}
 8005d72:	009b      	lsls	r3, r3, #2
 8005d74:	58c0      	ldr	r0, [r0, r3]
 8005d76:	f7ff f95f 	bl	8005038 <USBD_LL_SOF>
 8005d7a:	bd10      	pop	{r4, pc}

08005d7c <HAL_PCD_ResetCallback>:
 8005d7c:	6883      	ldr	r3, [r0, #8]
 8005d7e:	b570      	push	{r4, r5, r6, lr}
 8005d80:	0004      	movs	r4, r0
 8005d82:	2b02      	cmp	r3, #2
 8005d84:	d001      	beq.n	8005d8a <HAL_PCD_ResetCallback+0xe>
 8005d86:	f7fb ff05 	bl	8001b94 <Error_Handler>
 8005d8a:	25bc      	movs	r5, #188	@ 0xbc
 8005d8c:	00ad      	lsls	r5, r5, #2
 8005d8e:	2101      	movs	r1, #1
 8005d90:	5960      	ldr	r0, [r4, r5]
 8005d92:	f7ff f936 	bl	8005002 <USBD_LL_SetSpeed>
 8005d96:	5960      	ldr	r0, [r4, r5]
 8005d98:	f7ff f909 	bl	8004fae <USBD_LL_Reset>
 8005d9c:	bd70      	pop	{r4, r5, r6, pc}
	...

08005da0 <HAL_PCD_SuspendCallback>:
 8005da0:	23bc      	movs	r3, #188	@ 0xbc
 8005da2:	b510      	push	{r4, lr}
 8005da4:	0004      	movs	r4, r0
 8005da6:	009b      	lsls	r3, r3, #2
 8005da8:	58c0      	ldr	r0, [r0, r3]
 8005daa:	f7ff f92d 	bl	8005008 <USBD_LL_Suspend>
 8005dae:	69a3      	ldr	r3, [r4, #24]
 8005db0:	2b00      	cmp	r3, #0
 8005db2:	d004      	beq.n	8005dbe <HAL_PCD_SuspendCallback+0x1e>
 8005db4:	2306      	movs	r3, #6
 8005db6:	4a02      	ldr	r2, [pc, #8]	@ (8005dc0 <HAL_PCD_SuspendCallback+0x20>)
 8005db8:	6911      	ldr	r1, [r2, #16]
 8005dba:	430b      	orrs	r3, r1
 8005dbc:	6113      	str	r3, [r2, #16]
 8005dbe:	bd10      	pop	{r4, pc}
 8005dc0:	e000ed00 	.word	0xe000ed00

08005dc4 <HAL_PCD_ResumeCallback>:
 8005dc4:	6983      	ldr	r3, [r0, #24]
 8005dc6:	b510      	push	{r4, lr}
 8005dc8:	0004      	movs	r4, r0
 8005dca:	2b00      	cmp	r3, #0
 8005dcc:	d006      	beq.n	8005ddc <HAL_PCD_ResumeCallback+0x18>
 8005dce:	2106      	movs	r1, #6
 8005dd0:	4a05      	ldr	r2, [pc, #20]	@ (8005de8 <HAL_PCD_ResumeCallback+0x24>)
 8005dd2:	6913      	ldr	r3, [r2, #16]
 8005dd4:	438b      	bics	r3, r1
 8005dd6:	6113      	str	r3, [r2, #16]
 8005dd8:	f7fa fe90 	bl	8000afc <SystemClock_Config>
 8005ddc:	23bc      	movs	r3, #188	@ 0xbc
 8005dde:	009b      	lsls	r3, r3, #2
 8005de0:	58e0      	ldr	r0, [r4, r3]
 8005de2:	f7ff f91d 	bl	8005020 <USBD_LL_Resume>
 8005de6:	bd10      	pop	{r4, pc}
 8005de8:	e000ed00 	.word	0xe000ed00

08005dec <USBD_LL_Init>:
 8005dec:	23bc      	movs	r3, #188	@ 0xbc
 8005dee:	b570      	push	{r4, r5, r6, lr}
 8005df0:	0004      	movs	r4, r0
 8005df2:	4818      	ldr	r0, [pc, #96]	@ (8005e54 <USBD_LL_Init+0x68>)
 8005df4:	009b      	lsls	r3, r3, #2
 8005df6:	50c4      	str	r4, [r0, r3]
 8005df8:	4b17      	ldr	r3, [pc, #92]	@ (8005e58 <USBD_LL_Init+0x6c>)
 8005dfa:	25b0      	movs	r5, #176	@ 0xb0
 8005dfc:	6003      	str	r3, [r0, #0]
 8005dfe:	2308      	movs	r3, #8
 8005e00:	6043      	str	r3, [r0, #4]
 8005e02:	3b06      	subs	r3, #6
 8005e04:	6083      	str	r3, [r0, #8]
 8005e06:	6103      	str	r3, [r0, #16]
 8005e08:	2300      	movs	r3, #0
 8005e0a:	00ad      	lsls	r5, r5, #2
 8005e0c:	5160      	str	r0, [r4, r5]
 8005e0e:	6183      	str	r3, [r0, #24]
 8005e10:	61c3      	str	r3, [r0, #28]
 8005e12:	6203      	str	r3, [r0, #32]
 8005e14:	f7fc faba 	bl	800238c <HAL_PCD_Init>
 8005e18:	2800      	cmp	r0, #0
 8005e1a:	d001      	beq.n	8005e20 <USBD_LL_Init+0x34>
 8005e1c:	f7fb feba 	bl	8001b94 <Error_Handler>
 8005e20:	2200      	movs	r2, #0
 8005e22:	5960      	ldr	r0, [r4, r5]
 8005e24:	0011      	movs	r1, r2
 8005e26:	2318      	movs	r3, #24
 8005e28:	f7fd f91c 	bl	8003064 <HAL_PCDEx_PMAConfig>
 8005e2c:	5960      	ldr	r0, [r4, r5]
 8005e2e:	2358      	movs	r3, #88	@ 0x58
 8005e30:	2200      	movs	r2, #0
 8005e32:	2180      	movs	r1, #128	@ 0x80
 8005e34:	f7fd f916 	bl	8003064 <HAL_PCDEx_PMAConfig>
 8005e38:	5960      	ldr	r0, [r4, r5]
 8005e3a:	2398      	movs	r3, #152	@ 0x98
 8005e3c:	2200      	movs	r2, #0
 8005e3e:	2181      	movs	r1, #129	@ 0x81
 8005e40:	f7fd f910 	bl	8003064 <HAL_PCDEx_PMAConfig>
 8005e44:	5960      	ldr	r0, [r4, r5]
 8005e46:	23d8      	movs	r3, #216	@ 0xd8
 8005e48:	2200      	movs	r2, #0
 8005e4a:	2101      	movs	r1, #1
 8005e4c:	f7fd f90a 	bl	8003064 <HAL_PCDEx_PMAConfig>
 8005e50:	2000      	movs	r0, #0
 8005e52:	bd70      	pop	{r4, r5, r6, pc}
 8005e54:	20000c54 	.word	0x20000c54
 8005e58:	40005c00 	.word	0x40005c00

08005e5c <USBD_LL_Start>:
 8005e5c:	23b0      	movs	r3, #176	@ 0xb0
 8005e5e:	b510      	push	{r4, lr}
 8005e60:	009b      	lsls	r3, r3, #2
 8005e62:	58c0      	ldr	r0, [r0, r3]
 8005e64:	f7fc fafe 	bl	8002464 <HAL_PCD_Start>
 8005e68:	f7ff ff3c 	bl	8005ce4 <USBD_Get_USB_Status>
 8005e6c:	bd10      	pop	{r4, pc}

08005e6e <USBD_LL_OpenEP>:
 8005e6e:	b510      	push	{r4, lr}
 8005e70:	0014      	movs	r4, r2
 8005e72:	001a      	movs	r2, r3
 8005e74:	0023      	movs	r3, r4
 8005e76:	24b0      	movs	r4, #176	@ 0xb0
 8005e78:	00a4      	lsls	r4, r4, #2
 8005e7a:	5900      	ldr	r0, [r0, r4]
 8005e7c:	f7fc fffe 	bl	8002e7c <HAL_PCD_EP_Open>
 8005e80:	f7ff ff30 	bl	8005ce4 <USBD_Get_USB_Status>
 8005e84:	bd10      	pop	{r4, pc}

08005e86 <USBD_LL_CloseEP>:
 8005e86:	23b0      	movs	r3, #176	@ 0xb0
 8005e88:	b510      	push	{r4, lr}
 8005e8a:	009b      	lsls	r3, r3, #2
 8005e8c:	58c0      	ldr	r0, [r0, r3]
 8005e8e:	f7fd f822 	bl	8002ed6 <HAL_PCD_EP_Close>
 8005e92:	f7ff ff27 	bl	8005ce4 <USBD_Get_USB_Status>
 8005e96:	bd10      	pop	{r4, pc}

08005e98 <USBD_LL_StallEP>:
 8005e98:	23b0      	movs	r3, #176	@ 0xb0
 8005e9a:	b510      	push	{r4, lr}
 8005e9c:	009b      	lsls	r3, r3, #2
 8005e9e:	58c0      	ldr	r0, [r0, r3]
 8005ea0:	f7fd f886 	bl	8002fb0 <HAL_PCD_EP_SetStall>
 8005ea4:	f7ff ff1e 	bl	8005ce4 <USBD_Get_USB_Status>
 8005ea8:	bd10      	pop	{r4, pc}

08005eaa <USBD_LL_ClearStallEP>:
 8005eaa:	23b0      	movs	r3, #176	@ 0xb0
 8005eac:	b510      	push	{r4, lr}
 8005eae:	009b      	lsls	r3, r3, #2
 8005eb0:	58c0      	ldr	r0, [r0, r3]
 8005eb2:	f7fd f8a9 	bl	8003008 <HAL_PCD_EP_ClrStall>
 8005eb6:	f7ff ff15 	bl	8005ce4 <USBD_Get_USB_Status>
 8005eba:	bd10      	pop	{r4, pc}

08005ebc <USBD_LL_IsStallEP>:
 8005ebc:	23b0      	movs	r3, #176	@ 0xb0
 8005ebe:	b24a      	sxtb	r2, r1
 8005ec0:	009b      	lsls	r3, r3, #2
 8005ec2:	58c3      	ldr	r3, [r0, r3]
 8005ec4:	2a00      	cmp	r2, #0
 8005ec6:	da07      	bge.n	8005ed8 <USBD_LL_IsStallEP+0x1c>
 8005ec8:	227f      	movs	r2, #127	@ 0x7f
 8005eca:	4011      	ands	r1, r2
 8005ecc:	3101      	adds	r1, #1
 8005ece:	3a57      	subs	r2, #87	@ 0x57
 8005ed0:	434a      	muls	r2, r1
 8005ed2:	189b      	adds	r3, r3, r2
 8005ed4:	7898      	ldrb	r0, [r3, #2]
 8005ed6:	4770      	bx	lr
 8005ed8:	2228      	movs	r2, #40	@ 0x28
 8005eda:	434a      	muls	r2, r1
 8005edc:	189b      	adds	r3, r3, r2
 8005ede:	336b      	adds	r3, #107	@ 0x6b
 8005ee0:	33ff      	adds	r3, #255	@ 0xff
 8005ee2:	7818      	ldrb	r0, [r3, #0]
 8005ee4:	e7f7      	b.n	8005ed6 <USBD_LL_IsStallEP+0x1a>

08005ee6 <USBD_LL_SetUSBAddress>:
 8005ee6:	23b0      	movs	r3, #176	@ 0xb0
 8005ee8:	b510      	push	{r4, lr}
 8005eea:	009b      	lsls	r3, r3, #2
 8005eec:	58c0      	ldr	r0, [r0, r3]
 8005eee:	f7fc facc 	bl	800248a <HAL_PCD_SetAddress>
 8005ef2:	f7ff fef7 	bl	8005ce4 <USBD_Get_USB_Status>
 8005ef6:	bd10      	pop	{r4, pc}

08005ef8 <USBD_LL_Transmit>:
 8005ef8:	b510      	push	{r4, lr}
 8005efa:	24b0      	movs	r4, #176	@ 0xb0
 8005efc:	00a4      	lsls	r4, r4, #2
 8005efe:	5900      	ldr	r0, [r0, r4]
 8005f00:	f7fd f839 	bl	8002f76 <HAL_PCD_EP_Transmit>
 8005f04:	f7ff feee 	bl	8005ce4 <USBD_Get_USB_Status>
 8005f08:	bd10      	pop	{r4, pc}

08005f0a <USBD_LL_PrepareReceive>:
 8005f0a:	b510      	push	{r4, lr}
 8005f0c:	24b0      	movs	r4, #176	@ 0xb0
 8005f0e:	00a4      	lsls	r4, r4, #2
 8005f10:	5900      	ldr	r0, [r0, r4]
 8005f12:	f7fd f807 	bl	8002f24 <HAL_PCD_EP_Receive>
 8005f16:	f7ff fee5 	bl	8005ce4 <USBD_Get_USB_Status>
 8005f1a:	bd10      	pop	{r4, pc}

08005f1c <USBD_LL_GetRxDataSize>:
 8005f1c:	23b0      	movs	r3, #176	@ 0xb0
 8005f1e:	b510      	push	{r4, lr}
 8005f20:	009b      	lsls	r3, r3, #2
 8005f22:	58c0      	ldr	r0, [r0, r3]
 8005f24:	f7fd f81e 	bl	8002f64 <HAL_PCD_EP_GetRxCount>
 8005f28:	bd10      	pop	{r4, pc}
	...

08005f2c <USBD_static_malloc>:
 8005f2c:	4800      	ldr	r0, [pc, #0]	@ (8005f30 <USBD_static_malloc+0x4>)
 8005f2e:	4770      	bx	lr
 8005f30:	20000c30 	.word	0x20000c30

08005f34 <USBD_static_free>:
 8005f34:	4770      	bx	lr

08005f36 <memset>:
 8005f36:	0003      	movs	r3, r0
 8005f38:	1882      	adds	r2, r0, r2
 8005f3a:	4293      	cmp	r3, r2
 8005f3c:	d100      	bne.n	8005f40 <memset+0xa>
 8005f3e:	4770      	bx	lr
 8005f40:	7019      	strb	r1, [r3, #0]
 8005f42:	3301      	adds	r3, #1
 8005f44:	e7f9      	b.n	8005f3a <memset+0x4>
	...

08005f48 <__libc_init_array>:
 8005f48:	b570      	push	{r4, r5, r6, lr}
 8005f4a:	2600      	movs	r6, #0
 8005f4c:	4c0c      	ldr	r4, [pc, #48]	@ (8005f80 <__libc_init_array+0x38>)
 8005f4e:	4d0d      	ldr	r5, [pc, #52]	@ (8005f84 <__libc_init_array+0x3c>)
 8005f50:	1b64      	subs	r4, r4, r5
 8005f52:	10a4      	asrs	r4, r4, #2
 8005f54:	42a6      	cmp	r6, r4
 8005f56:	d109      	bne.n	8005f6c <__libc_init_array+0x24>
 8005f58:	2600      	movs	r6, #0
 8005f5a:	f000 f823 	bl	8005fa4 <_init>
 8005f5e:	4c0a      	ldr	r4, [pc, #40]	@ (8005f88 <__libc_init_array+0x40>)
 8005f60:	4d0a      	ldr	r5, [pc, #40]	@ (8005f8c <__libc_init_array+0x44>)
 8005f62:	1b64      	subs	r4, r4, r5
 8005f64:	10a4      	asrs	r4, r4, #2
 8005f66:	42a6      	cmp	r6, r4
 8005f68:	d105      	bne.n	8005f76 <__libc_init_array+0x2e>
 8005f6a:	bd70      	pop	{r4, r5, r6, pc}
 8005f6c:	00b3      	lsls	r3, r6, #2
 8005f6e:	58eb      	ldr	r3, [r5, r3]
 8005f70:	4798      	blx	r3
 8005f72:	3601      	adds	r6, #1
 8005f74:	e7ee      	b.n	8005f54 <__libc_init_array+0xc>
 8005f76:	00b3      	lsls	r3, r6, #2
 8005f78:	58eb      	ldr	r3, [r5, r3]
 8005f7a:	4798      	blx	r3
 8005f7c:	3601      	adds	r6, #1
 8005f7e:	e7f2      	b.n	8005f66 <__libc_init_array+0x1e>
 8005f80:	0800605c 	.word	0x0800605c
 8005f84:	0800605c 	.word	0x0800605c
 8005f88:	08006060 	.word	0x08006060
 8005f8c:	0800605c 	.word	0x0800605c

08005f90 <memcpy>:
 8005f90:	2300      	movs	r3, #0
 8005f92:	b510      	push	{r4, lr}
 8005f94:	429a      	cmp	r2, r3
 8005f96:	d100      	bne.n	8005f9a <memcpy+0xa>
 8005f98:	bd10      	pop	{r4, pc}
 8005f9a:	5ccc      	ldrb	r4, [r1, r3]
 8005f9c:	54c4      	strb	r4, [r0, r3]
 8005f9e:	3301      	adds	r3, #1
 8005fa0:	e7f8      	b.n	8005f94 <memcpy+0x4>
	...

08005fa4 <_init>:
 8005fa4:	b5f8      	push	{r3, r4, r5, r6, r7, lr}
 8005fa6:	46c0      	nop			@ (mov r8, r8)
 8005fa8:	bcf8      	pop	{r3, r4, r5, r6, r7}
 8005faa:	bc08      	pop	{r3}
 8005fac:	469e      	mov	lr, r3
 8005fae:	4770      	bx	lr

08005fb0 <_fini>:
 8005fb0:	b5f8      	push	{r3, r4, r5, r6, r7, lr}
 8005fb2:	46c0      	nop			@ (mov r8, r8)
 8005fb4:	bcf8      	pop	{r3, r4, r5, r6, r7}
 8005fb6:	bc08      	pop	{r3}
 8005fb8:	469e      	mov	lr, r3
 8005fba:	4770      	bx	lr
 8005fbc:	0000      	movs	r0, r0
	...

08005fc0 <__emw_enter_rom_dfu_by_erasing_flash_veneer>:
 8005fc0:	b401      	push	{r0}
 8005fc2:	4802      	ldr	r0, [pc, #8]	@ (8005fcc <__emw_enter_rom_dfu_by_erasing_flash_veneer+0xc>)
 8005fc4:	4684      	mov	ip, r0
 8005fc6:	bc01      	pop	{r0}
 8005fc8:	4760      	bx	ip
 8005fca:	bf00      	nop
 8005fcc:	2000011d 	.word	0x2000011d

Disassembly of section .data:

20000000 <i2c1_hz>:
20000000:	000186a0                                ....

20000004 <uart1_baud>:
20000004:	0001c200                                ....

20000008 <emw_tick_us>:
20000008:	                                         ..

2000000a <selectedChannelMask>:
2000000a:	                                         ..

2000000c <selectedChannel>:
2000000c:	00000008                                ....

20000010 <samplerPin>:
20000010:	00000001                                ....

20000014 <samplerPort>:
20000014:	48000000                                ...H

20000018 <SystemCoreClock>:
20000018:	007a1200                                ..z.

2000001c <uwTickFreq>:
2000001c:	00000001                                ....

20000020 <uwTickPrio>:
20000020:	00000004                                ....

20000024 <USBD_StringSerial>:
20000024:	0000031a 00000000 00000000 00000000     ................
	...

20000040 <USBD_LangIDDesc>:
20000040:	04090304                                ....

20000044 <USBD_FS_DeviceDesc>:
20000044:	02000112 40000202 57400483 02010200     .......@..@W....
20000054:	00000103                                ....

20000058 <FS_Desc>:
20000058:	0800558d 08005599 08005611 0800562d     .U...U...V..-V..
20000068:	080055c9 08005649 08005665              .U..IV..eV..

20000074 <USBD_MIDI>:
20000074:	08005719 080056e5 08005681 00000000     .W...V...V......
20000084:	00000000 08005685 080056a9 00000000     .....V...V......
	...
2000009c:	0800569d 0800569d 0800569d 00000000     .V...V...V......

200000ac <USBD_MIDI_CfgFSDesc>:
200000ac:	00610209 80000102 00040932 01010000     ..a.....2.......
200000bc:	24090000 09010001 09010100 02000104     ...$............
200000cc:	00000301 00012407 06002f01 01010224     .....$.../..$...
200000dc:	02240600 09000202 03010324 00010201     ..$.....$.......
200000ec:	02032409 01010104 01050700 00004002     .$...........@..
200000fc:	01012505 81050701 00004002 01012505     .%.......@...%..
2000010c:	00000003                                ....

20000110 <USBD_MIDI_Interface_fops_FS>:
20000110:	08005881 080057fb 080058d9              .X...W...X..

2000011c <emw_enter_rom_dfu_by_erasing_flash>:
2000011c:	b570      	push	{r4, r5, r6, lr}
2000011e:	b672      	cpsid	i
20000120:	2200      	movs	r2, #0
20000122:	4b24      	ldr	r3, [pc, #144]	@ (200001b4 <emw_enter_rom_dfu_by_erasing_flash+0x98>)
20000124:	4924      	ldr	r1, [pc, #144]	@ (200001b8 <emw_enter_rom_dfu_by_erasing_flash+0x9c>)
20000126:	601a      	str	r2, [r3, #0]
20000128:	605a      	str	r2, [r3, #4]
2000012a:	609a      	str	r2, [r3, #8]
2000012c:	2301      	movs	r3, #1
2000012e:	4a23      	ldr	r2, [pc, #140]	@ (200001bc <emw_enter_rom_dfu_by_erasing_flash+0xa0>)
20000130:	425b      	negs	r3, r3
20000132:	67d3      	str	r3, [r2, #124]	@ 0x7c
20000134:	22c0      	movs	r2, #192	@ 0xc0
20000136:	0052      	lsls	r2, r2, #1
20000138:	508b      	str	r3, [r1, r2]
2000013a:	4b21      	ldr	r3, [pc, #132]	@ (200001c0 <emw_enter_rom_dfu_by_erasing_flash+0xa4>)
2000013c:	691a      	ldr	r2, [r3, #16]
2000013e:	0612      	lsls	r2, r2, #24
20000140:	d503      	bpl.n	2000014a <emw_enter_rom_dfu_by_erasing_flash+0x2e>
20000142:	4a20      	ldr	r2, [pc, #128]	@ (200001c4 <emw_enter_rom_dfu_by_erasing_flash+0xa8>)
20000144:	605a      	str	r2, [r3, #4]
20000146:	4a20      	ldr	r2, [pc, #128]	@ (200001c8 <emw_enter_rom_dfu_by_erasing_flash+0xac>)
20000148:	605a      	str	r2, [r3, #4]
2000014a:	2234      	movs	r2, #52	@ 0x34
2000014c:	68d9      	ldr	r1, [r3, #12]
2000014e:	430a      	orrs	r2, r1
20000150:	60da      	str	r2, [r3, #12]
20000152:	2201      	movs	r2, #1
20000154:	68d9      	ldr	r1, [r3, #12]
20000156:	4211      	tst	r1, r2
20000158:	d1fc      	bne.n	20000154 <emw_enter_rom_dfu_by_erasing_flash+0x38>
2000015a:	2280      	movs	r2, #128	@ 0x80
2000015c:	2401      	movs	r4, #1
2000015e:	2002      	movs	r0, #2
20000160:	2640      	movs	r6, #64	@ 0x40
20000162:	2520      	movs	r5, #32
20000164:	0512      	lsls	r2, r2, #20
20000166:	68d9      	ldr	r1, [r3, #12]
20000168:	4221      	tst	r1, r4
2000016a:	d1fc      	bne.n	20000166 <emw_enter_rom_dfu_by_erasing_flash+0x4a>
2000016c:	6919      	ldr	r1, [r3, #16]
2000016e:	4301      	orrs	r1, r0
20000170:	6119      	str	r1, [r3, #16]
20000172:	615a      	str	r2, [r3, #20]
20000174:	6919      	ldr	r1, [r3, #16]
20000176:	4331      	orrs	r1, r6
20000178:	6119      	str	r1, [r3, #16]
2000017a:	68d9      	ldr	r1, [r3, #12]
2000017c:	4221      	tst	r1, r4
2000017e:	d1fc      	bne.n	2000017a <emw_enter_rom_dfu_by_erasing_flash+0x5e>
20000180:	68d9      	ldr	r1, [r3, #12]
20000182:	4329      	orrs	r1, r5
20000184:	60d9      	str	r1, [r3, #12]
20000186:	6919      	ldr	r1, [r3, #16]
20000188:	4381      	bics	r1, r0
2000018a:	6119      	str	r1, [r3, #16]
2000018c:	2180      	movs	r1, #128	@ 0x80
2000018e:	00c9      	lsls	r1, r1, #3
20000190:	1852      	adds	r2, r2, r1
20000192:	490e      	ldr	r1, [pc, #56]	@ (200001cc <emw_enter_rom_dfu_by_erasing_flash+0xb0>)
20000194:	428a      	cmp	r2, r1
20000196:	d1e6      	bne.n	20000166 <emw_enter_rom_dfu_by_erasing_flash+0x4a>
20000198:	2280      	movs	r2, #128	@ 0x80
2000019a:	6919      	ldr	r1, [r3, #16]
2000019c:	430a      	orrs	r2, r1
2000019e:	611a      	str	r2, [r3, #16]
200001a0:	f3bf 8f4f 	dsb	sy
200001a4:	4b0a      	ldr	r3, [pc, #40]	@ (200001d0 <emw_enter_rom_dfu_by_erasing_flash+0xb4>)
200001a6:	4a0b      	ldr	r2, [pc, #44]	@ (200001d4 <emw_enter_rom_dfu_by_erasing_flash+0xb8>)
200001a8:	60da      	str	r2, [r3, #12]
200001aa:	f3bf 8f4f 	dsb	sy
200001ae:	46c0      	nop			@ (mov r8, r8)
200001b0:	e7fd      	b.n	200001ae <emw_enter_rom_dfu_by_erasing_flash+0x92>
200001b2:	46c0      	nop			@ (mov r8, r8)
200001b4:	e000e010 	.word	0xe000e010
200001b8:	e000e100 	.word	0xe000e100
200001bc:	e000e104 	.word	0xe000e104
200001c0:	40022000 	.word	0x40022000
200001c4:	45670123 	.word	0x45670123
200001c8:	cdef89ab 	.word	0xcdef89ab
200001cc:	08001000 	.word	0x08001000
200001d0:	e000ed00 	.word	0xe000ed00
200001d4:	05fa0004 	.word	0x05fa0004
